     1                                  
     2                                  
     3                                   %include "../EBNF/EBNFix.asm"
     4                              <1> ;*******************************************************************************
     5                              <1> ; EBNFix shares pointers, variables, subroutine names with grammars and
     6                              <1> ; applications to link with the Kernel.
     7                              <1> ; This file should be included in a new grammar definition, eg. 
     8                              <1> ; a new compiler, interpreter or convertor.
     9                              <1> 
    10                              <1> ; Have after the GLOBAL declarations in the App the line: 
    11                              <1> ;	"%include "../EBNF/EBNFix.asm"
    12                              <1> ; When in reversed order double definition errors will result.
    13                              <1> 
    14                              <1> ;*******************************************************************************
    15                              <1> ;				MEMORY MAP
    16                              <1> ;*******************************************************************************
    17                              <1> ; for server
    18                              <1> sMemL	equ	0x4000000	; 64MB total space 
    19                              <1> sMemBL	equ	0x100		; 256B base length
    20                              <1> sMemSL	equ	0x800		;   2k stack length
    21                              <1> 
    22                              <1> ; for each thread
    23                              <1> tMemL	equ	0x0800000	;  8MB total space
    24                              <1> tMemBL	equ	0x100		; 256B base length
    25                              <1> tMemSL	equ	0x800		;   2k stack length
    26                              <1> 
    27                              <1> ;*******************************************************************************
    28                              <1> ;				CONTEXT PARAMETERS
    29                              <1> ;*******************************************************************************
    30                              <1> ; in registers
    31                              <1> %define rPOk		rcx	; flag 1=match 0=no match during parse
    32                              <1> %define rInPnt		r8	; moving pointer in sIn to continue parse 
    33                              <1> %define rInEnd		r9	; flag if no further parse input available
    34                              <1> %define rOutPnt		r10	; moving pointer to append in sOut
    35                              <1> %define rLastIn		r11	; last term that matched in parse 
    36                              <1> %define rLastInLen	r12	; length of LastIn
    37                              <1> %define rFactCnt	r13	; index during factoring
    38                              <1> %define rInEndFlg	r14	; end of Input message
    39                              <1> %define rInChrCnt	r15	; character counter during text parsing
    40                              <1> 
    41                              <1> ; memory available per thread (each thread has privat rbp area)
    42                              <1> %define mMemEnd		rbp		; end of thread Mem
    43                              <1> %define mMem0		qword [rbp-  8]	; start of Mem
    44                              <1> 
    45                              <1> ; for EBNF parser in thread memory
    46                              <1> %define In0		[rbp- 16]	; start of In
    47                              <1> %define InPntMax	[rbp- 24]	; Pnt furthest parsed before mismatch
    48                              <1> %define InPntOld	[rbp- 32]	; Used for display parsed terminal
    49                              <1> %define InPrev		[rbp- 40]	; 
    50                              <1> %define InPrevLen	[rbp- 48]	; 
    51                              <1> %define OutEnd		[rbp- 56]	; end of out going msg
    52                              <1> %define Out0		[rbp- 64]	; start of out going msg
    53                              <1> %define OutBufEnd	[rbp- 72]	; end of space avail for outgoing msg
    54                              <1> %define LblNxtNew	[rbp- 80]	;
    55                              <1> 
    56                              <1> %define SockFD		[rbp- 88]	; one thread max one Socket (for now)
    57                              <1> %define MasterSockFD	[rbp- 96]	; socket to whch thread msgs are swtched
    58                              <1> 
    59                              <1> 
    60                              <1> %define Tmp0		qword [rbp-104]	; general purpose var, ok for threading
    61                              <1> %define Tmp1		qword [rbp-112]
    62                              <1> %define Tmp2		qword [rbp-120]
    63                              <1> %define Tmp3		qword [rbp-128]
    64                              <1> 
    65                              <1> %define InHold0		qword [rbp-136]	; todo: replace InPrev with InHold, remove automatic update of InPrev during context save/restore (used in Functions.
    66                              <1> %define InHoldLen0	qword [rbp-144]
    67                              <1> %define InHold1		qword [rbp-152]
    68                              <1> %define InHoldLen1	qword [rbp-160]
    69                              <1> %define InHold2		qword [rbp-168]
    70                              <1> %define InHoldLen2	qword [rbp-176]
    71                              <1> %define InHold3		qword [rbp-184]	
    72                              <1> %define InHoldLen3	qword [rbp-192]
    73                              <1> %define InHold4		qword [rbp-200]	
    74                              <1> %define InHoldLen4	qword [rbp-208]
    75                              <1> %define InHold5		qword [rbp-216]	
    76                              <1> %define InHoldLen5	qword [rbp-224]
    77                              <1> 
    78                              <1> ; threading return stack
    79                              <1> %define mAddQuit	[rbp-tMemBL-8]	; BOS	= [rbp-248] (see line 16)
    80                              <1> %define mAddThread	[rbp-tMemBL-16]	; 	= [rbp-256] (see line 16)			; check not tested yet!!!!
    81                              <1> 
    82                              <1> 
    83                              <1> ;******************************************************* Application **********
    84                              <1> EXTERN Rum
    85                              <1> 
    86                              <1> ;******************************************************* EBNFKernel  **********
    87                              <1> EXTERN CLArg
    88                              <1> EXTERN sOut, sPush, sPushA, sCLArg, sConcat, sLI, sMessage, sI2HS
    89                              <1> EXTERN sLeft, sCutRight, sDrop, sDup, sKeyIn
    90                              <1> EXTERN mRSP
    91                              <1> EXTERN MemMap, MemUnmap
    92                              <1> 
    93                              <1> EXTERN InFile, OutFile
    94                              <1> EXTERN EOF
    95                              <1> EXTERN F2I, E2O, I2O, O2F, O2I, F2O, F2OAppend	; from X2X.asm
    96                              <1> EXTERN a, b, n, sIFSF				; from abn.asm
    97                              <1> EXTERN LILenMax, LIValMax
    98                              <1> 
    99                              <1> EXTERN pIn, pInterval, pIntervalQuad, pFindIn
   100                              <1> EXTERN cPush, cPop, cTop, cAndProlog, cAndEpilog, cDrop, cDropExcept
   101                              <1> EXTERN DropLastChar, IsNotDef
   102                              <1> 
   103                              <1> EXTERN cOpenTextGram, cCloseTextGram
   104                              <1> EXTERN cOpenH2HGram, cCloseH2HGram
   105                              <1> 
   106                              <1> EXTERN lClear, LblNew, LblUse, LblCls, LblPush, LblTop, LblDrop, pOutLbl
   107                              <1> 
   108                              <1> EXTERN SDIdStart, SDIdOper, SDIdEnd
   109                              <1> EXTERN pOut, pOutCr,  pOutLIHex, pOutLIHex2Bin, pOutLITrim, pOutLIdpTrim
   110                              <1> 
   111                              <1> EXTERN pOutLI, pOutLILen
   112                              <1> EXTERN pPI, pOutPI, pOutPILen
   113                              <1> 
   114                              <1> EXTERN pHI0, pOutHI0, pOutHILen0
   115                              <1> EXTERN pHI1, pOutHI1, pOutHILen1
   116                              <1> EXTERN pHI2, pOutHI2, pOutHILen2
   117                              <1> EXTERN pHI3, pOutHI3, pOutHILen3
   118                              <1> EXTERN pHI4, pOutHI4, pOutHILen4
   119                              <1> EXTERN pHI5, pOutHI5, pOutHILen5, sHI5
   120                              <1> 
   121                              <1> EXTERN OutSrcLin
   122                              <1> EXTERN pOutInPnt, pOutLILenByte
   123                              <1> EXTERN DspLstTrm, MsgLI, Message, MessageMem, ErrorMessage, Quit
   124                              <1> EXTERN Bin2Dec, Bin4Dec, BinNDec, Bin1Hex, Bin2Hex, BinNHex, Dec2Bin, Hex2Bin
   125                              <1> EXTERN WaitSecond, EcmaTime, IMFTime, GetTime
   126                              <1> EXTERN iRandom
   127                              <1> 
   128                              <1> EXTERN dspebnf
   129                              <1> 
   130                              <1> ;***************************************************** Heap.asm ***************
   131                              <1> EXTERN hClear, hOpen, hAdd, hClose, hCap, hGC
   132                              <1> EXTERN HeapPnt, Heap0, HeapEnd
   133                              <1> EXTERN dspheap
   134                              <1> ;***************************************************** Thread.asm *************
   135                              <1> Extern Thread, wQuit
   136                              <1> ;***************************************************** IP.asm *****************
   137                              <1> Extern ServerSockOpen, ServerSockClose
   138                              <1> Extern ClientSockOpen, ClientSockClose
   139                              <1> Extern S2I, O2S
   140                              <1> Extern dmpin, dmpout, dspin, dspout, dspfd, dspwmem
   141                              <1> ;***************************************************** DES.asm ****************
   142                              <1> EXTERN DES, GenEncKeys, GenDecKeys
   143                              <1> EXTERN SwapKeySet, DupKeySet, DropKeySet
   144                              <1> ;***************************************************** Dir.asm ****************
   145                              <1> EXTERN pOutDir
   146                              <1> 
   147                              <1> ;***************************************************** DebugTools.asm *********
   148                              <1> EXTERN dspreg, dsprex, dspxmm, dspymm
   149                              <1> EXTERN dmphex, dmpreg, dmprex, dmpxmm, dmpymm
   150                              <1> EXTERN dmphexrsi, dmphex10, dmphexold
   151                              <1> EXTERN msg, quit
   152                              <1> 
   153                              <1> 
     4                                  ;------------------------------------------------------------------------------
     5                                  section .bss
     6                                  
     7 00000000 ????????????????        aBitMap0 	resq	1
     8 00000008 ????????????????        aBitMap1	resq	1
     9 00000010 ????????????????        aBitMap48	resq	1
    10 00000018 ????????????????        aBitMap488	resq	1
    11                                  
    12 00000020 ????????????????        aBitMapCur	resq	1
    13                                  ;------------------------------------------------------------------------------
    14                                  section .text
    15                                  ;xxxxxxxxxxxxxxxxxxxxxxxxxxxxxxxxxxxxxxxxxxxxxxxxxxxxxxxxxxxxxxxxxxxxxxxxxxxxxx
    16                                  ; candidates for the EBNFKernel
    17                                  ;xxxxxxxxxxxxxxxxxxxxxxxxxxxxxxxxxxxxxxxxxxxxxxxxxxxxxxxxxxxxxxxxxxxxxxxxxxxxxx
    18                                  
    19                                  LIStore: ; Store LstIn at inline address
    20                                  	; usage: LIStore(<address>)
    21                                  	; uses :rax, rsi, rdi, rdx
    22 00000000 5E                      	pop rsi
    23 00000001 48AD                    	lodsq
    24 00000003 4889C7                  	mov rdi, rax
    25 00000006 56                      	push rsi
    26 00000007 4C89DE                  	mov rsi, rLastIn
    27 0000000A 4C89E2                  	mov rdx, rLastInLen
    28 0000000D 4801D7                  	add rdi, rdx
    29 00000010 FC                      	cld
    30 00000011 48FFCF                  LIStr1:	dec rdi
    31 00000014 AC                      	lodsb
    32 00000015 8807                    	mov [rdi],al
    33 00000017 48FFCA                  	dec rdx
    34 0000001A 75F5                    	jnz LIStr1
    35 0000001C C3                      	ret
    36                                  
    37                                  ;------------------------------------------------------------------------------
    38                                  TapMsg: ; Display txt by pOut between TapMsg and MsgTap
    39                                  	; Usage: TapMsg <code with pOut> MsgTap
    40                                  	; Condition: code should not extend stack
    41                                  	
    42 0000001D 5B                      	pop rbx
    43 0000001E 4152                    	push rOutPnt
    44 00000020 FFE3                    	jmp rbx
    45                                  
    46 00000022 5B                      MsgTap: pop rbx
    47 00000023 5E                      	pop rsi
    48 00000024 53                      	push rbx
    49 00000025 4C89D2                  	mov rdx, rOutPnt
    50 00000028 4829F2                  	sub rdx, rsi
    51 0000002B E8(00000000)            	call MessageMem
    52 00000030 C3                      	ret
    53                                  
    54                                  ;xxxxxxxxxxxxxxxxxxxxxxxxxxxxxxxxxxxxxxxxxxxxxxxxxxxxxxxxxxxxxxxxxxxxxxxxxxxxxx
    55                                  SetBitMapCur:
    56                                  	; usage: SetBitMapCur(x) where x= e.g *aBitMap0
    57                                  	
    58 00000031 5E                      	pop rsi
    59 00000032 48BF-                   	mov rdi, aBitMapCur
    59 00000034 [2000000000000000] 
    60 0000003C FC                      	cld
    61 0000003D 48A5                    	movsq
    62 0000003F FFE6                    	jmp rsi
    63                                  ;------------------------------------------------------------------------------
    64                                  ShowBitMap0:
    65 00000041 4C89D7                  	mov rdi, rOutPnt
    66 00000044 488B1425[20000000]      	mov rdx, [aBitMapCur]
    67 0000004C 488B12                  	mov rdx, [rdx]
    68 0000004F 4831C9                  	xor rcx, rcx
    69 00000052 FC                      	cld
    70 00000053 48FFC1                  ShowB2:	inc rcx
    71 00000056 48D1E2                  	shl rdx, 1
    72 00000059 730B                    	jnc ShowB1
    73 0000005B 4889C8                  	mov rax, rcx
    74 0000005E E8(00000000)            	call Bin2Dec
    75 00000063 B020                    	mov al, " "
    76 00000065 AA                      	stosb
    77 00000066 4883F940                ShowB1:	cmp rcx, 64	
    78 0000006A 75E7                    	jnz ShowB2
    79 0000006C 4989FA                  	mov rOutPnt, rdi
    80 0000006F 48FFC1                  	inc rcx
    81 00000072 49FFCA                  	dec rOutPnt
    82 00000075 C3                      	ret
    83                                  ;------------------------------------------------------------------------------
    84                                  
    85                                  ShowBitMap1:
    86 00000076 4C89D7                  	mov rdi, rOutPnt
    87 00000079 488B1425[08000000]      	mov rdx, [aBitMap1]
    88 00000081 4831C9                  	xor rcx, rcx
    89 00000084 FC                      	cld
    90 00000085 48FFC1                  ShwB12:	inc rcx
    91 00000088 48D1E2                  	shl rdx, 1
    92 0000008B 730F                    	jnc ShwB11
    93 0000008D 4889C8                  	mov rax, rcx
    94 00000090 4883C040                	add rax, 64
    95 00000094 E8(00000000)            	call Bin2Dec
    96 00000099 B020                    	mov al, " "
    97 0000009B AA                      	stosb
    98 0000009C 4883F940                ShwB11:	cmp rcx, 64
    99 000000A0 75E3                    	jnz ShwB12
   100 000000A2 4989FA                  	mov rOutPnt, rdi
   101 000000A5 48FFC1                  	inc rcx
   102 000000A8 49FFCA                  	dec rOutPnt
   103 000000AB C3                      	ret
   104                                  ;------------------------------------------------------------------------------
   105                                  IsBit:	; usage: IsBit(n) or Call-db-statement)
   106                                  	; out: rOk = nth bit of Bitmap0
   107                                  	; uses rax
   108                                  	; mod 64, to keep references in line with IFSF
   109                                  	; above 64, be sure to have set BitMap current
   110                                  	
   111 000000AC 5E                      	pop rsi
   112 000000AD FC                      	cld
   113 000000AE 48AD                    	lodsq
   114 000000B0 4825FF030000            	and rax, 0x3ff
   115 000000B6 BA40000000              	mov rdx,64	
   116 000000BB 4829C2                  	sub rdx, rax
   117 000000BE 488B0425[20000000]      	mov rax, [aBitMapCur]
   118 000000C6 488B00                  	mov rax, [rax]
   119 000000C9 4831C9                   	xor rcx, rcx
   120 000000CC 480FA3D0                	bt rax,rdx
   121 000000D0 7303                    	jnc IsBt1
   122                                  
   123 000000D2 48FFC1                  	inc rcx
   124 000000D5 FFE6                    IsBt1: jmp rsi
   125                                  ;------------------------------------------------------------------------------
   126                                  IsBit1:	; usage: IsBit(n) or Call-db-statement)
   127                                  	; out: rOk = nth bit of Bitmap0
   128                                  	; uses rax
   129                                  	
   130 000000D7 5E                      	pop rsi
   131 000000D8 FC                      	cld
   132 000000D9 48AD                    	lodsq
   133 000000DB 4883E840                	sub rax, 64
   134 000000DF 4825FF030000            	and rax, 0x3ff		; mod 64, to keep references in line with IFSF
   135 000000E5 BA40000000              	mov rdx,64		; above 64, be sure to have set BitMap current
   136 000000EA 4829C2                  	sub rdx, rax
   137 000000ED 488B0425[08000000]      	mov rax, [aBitMap1]
   138 000000F5 4831C9                   	xor rcx, rcx
   139 000000F8 480FA3D0                	bt rax,rdx
   140 000000FC 7303                    	jnc IsBt11
   141 000000FE 48FFC1                  	inc rcx
   142 00000101 FFE6                    IsBt11: jmp rsi
   143                                  
   144                                  ;xxxxxxxxxxxxxxxxxxxxxxxxxxxxxxxxxxxxxxxxxxxxxxxxxxxxxxxxxxxxxxxxxxxxxxxxxxxxxx
   145                                  
   146                                  ;xxxxxxxxxxxxxxxxxxxxxxxxxxxxxxxxxxxxxxxxxxxxxxxxxxxxxxxxxxxxxxxxxxxxxxxxxxxxxx
   147                                  an:
   148 00000103 E8(00000000)            	call cPush
   149 00000108 E8(00000000)            	call a
   150 0000010D E302                    	jrcxz DL0000
   151 0000010F EB0D                    	jmp DLEnd0000
   152 00000111 48FFC1                  DL0000:	inc rcx
   153 00000114 E8(00000000)            	call cTop
   154 00000119 E8(00000000)            	call n
   155                                  DLEnd0000:
   156 0000011E E8(00000000)            	call cDrop
   157 00000123 C3                      	ret
   158                                  
   159                                  ;an	= a | n;
   160                                  
   161                                  ;xxxxxxxxxxxxxxxxxxxxxxxxxxxxxxxxxxxxxxxxxxxxxxxxxxxxxxxxxxxxxxxxxxxxxxxxxxxxxx
   162                                  anp:
   163 00000124 E8(00000000)            	call cPush
   164 00000129 E8D5FFFFFF              	call an
   165 0000012E E302                    	jrcxz DL0001
   166 00000130 EB0F                    	jmp DLEnd0001
   167 00000132 48FFC1                  DL0001:	inc rcx
   168 00000135 E8(00000000)            	call cTop
   169 0000013A E8(00000000)            	call pIn
   170 0000013F 0120                    	 db 0x0001, " "
   171                                  DLEnd0001:
   172 00000141 E8(00000000)            	call cDrop
   173 00000146 C3                      	ret
   174                                  
   175                                  ;anp	= an | " ";
   176                                  
   177                                  ;xxxxxxxxxxxxxxxxxxxxxxxxxxxxxxxxxxxxxxxxxxxxxxxxxxxxxxxxxxxxxxxxxxxxxxxxxxxxxx
   178                                  ans:
   179 00000147 E8(00000000)            	call cPush
   180 0000014C E8B2FFFFFF              	call an
   181 00000151 E302                    	jrcxz DL0002
   182 00000153 EB0D                    	jmp DLEnd0002
   183 00000155 48FFC1                  DL0002:	inc rcx
   184 00000158 E8(00000000)            	call cTop
   185 0000015D E84C020000              	call s
   186                                  DLEnd0002:
   187 00000162 E8(00000000)            	call cDrop
   188 00000167 C3                      	ret
   189                                  
   190                                  ;ans	= an | s ;
   191                                  
   192                                  ;xxxxxxxxxxxxxxxxxxxxxxxxxxxxxxxxxxxxxxxxxxxxxxxxxxxxxxxxxxxxxxxxxxxxxxxxxxxxxx
   193                                  ansb:
   194 00000168 E8(00000000)            	call cPush
   195 0000016D E8(00000000)            	call pInterval
   196 00000172 00FF                    	 db 0, 255
   197 00000174 E8(00000000)            	call cDrop
   198 00000179 C3                      	ret
   199                                  
   200                                  ;ansb	= ^0..^255;
   201                                  
   202                                  ;xxxxxxxxxxxxxxxxxxxxxxxxxxxxxxxxxxxxxxxxxxxxxxxxxxxxxxxxxxxxxxxxxxxxxxxxxxxxxx
   203                                  as:
   204 0000017A E8(00000000)            	call cPush
   205 0000017F E8(00000000)            	call a
   206 00000184 E302                    	jrcxz DL0003
   207 00000186 EB0D                    	jmp DLEnd0003
   208 00000188 48FFC1                  DL0003:	inc rcx
   209 0000018B E8(00000000)            	call cTop
   210 00000190 E819020000              	call s
   211                                  DLEnd0003:
   212 00000195 E8(00000000)            	call cDrop
   213 0000019A C3                      	ret
   214                                  
   215                                  ;as	= a | s;
   216                                  
   217                                  ;xxxxxxxxxxxxxxxxxxxxxxxxxxxxxxxxxxxxxxxxxxxxxxxxxxxxxxxxxxxxxxxxxxxxxxxxxxxxxx
   218                                  CCYY:
   219 0000019B E8(00000000)            	call cPush
   220 000001A0 41BD04000000            	mov rFactCnt, 4
   221 000001A6 4D09ED                  	or rFactCnt, rFactCnt
   222 000001A9 740E                    	jz FacEnd0004
   223                                  FacRep0004:
   224 000001AB E8(00000000)            	call n
   225 000001B0 49FFCD                  	dec rFactCnt
   226 000001B3 E304                    	jrcxz FacEnd0004
   227 000001B5 7402                    	jz FacEnd0004
   228 000001B7 EBF2                    	jmp FacRep0004
   229                                  FacEnd0004:
   230 000001B9 E8(00000000)            	call cDrop
   231 000001BE C3                      	ret
   232                                  
   233                                  ;CCYY	= 4*n;
   234                                  
   235                                  ;xxxxxxxxxxxxxxxxxxxxxxxxxxxxxxxxxxxxxxxxxxxxxxxxxxxxxxxxxxxxxxxxxxxxxxxxxxxxxx
   236                                  YY:
   237 000001BF E8(00000000)            	call cPush
   238 000001C4 41BD02000000            	mov rFactCnt, 2
   239 000001CA 4D09ED                  	or rFactCnt, rFactCnt
   240 000001CD 740E                    	jz FacEnd0005
   241                                  FacRep0005:
   242 000001CF E8(00000000)            	call n
   243 000001D4 49FFCD                  	dec rFactCnt
   244 000001D7 E304                    	jrcxz FacEnd0005
   245 000001D9 7402                    	jz FacEnd0005
   246 000001DB EBF2                    	jmp FacRep0005
   247                                  FacEnd0005:
   248 000001DD E8(00000000)            	call cDrop
   249 000001E2 C3                      	ret
   250                                  
   251                                  ;YY	= 2*n;
   252                                  
   253                                  ;xxxxxxxxxxxxxxxxxxxxxxxxxxxxxxxxxxxxxxxxxxxxxxxxxxxxxxxxxxxxxxxxxxxxxxxxxxxxxx
   254                                  DD:
   255 000001E3 E8(00000000)            	call cPush
   256 000001E8 E8(00000000)            	call cPush
   257 000001ED E8(00000000)            	call pIn
   258 000001F2 0130                    	 db 0x0001, "0"
   259 000001F4 4809C9                  	or rPOk, rPOk
   260 000001F7 7502                    	jnz SD0006
   261 000001F9 EB07                    	jmp SDEnd0006
   262                                  SD0006:
   263 000001FB E8(00000000)            	call pInterval
   264 00000200 3139                    	 db "1", "9"
   265                                  SDEnd0006:
   266 00000202 E8(00000000)            	call cDrop
   267 00000207 E302                    	jrcxz DL0007
   268 00000209 EB4F                    	jmp DLEnd0007
   269 0000020B 48FFC1                  DL0007:	inc rcx
   270 0000020E E8(00000000)            	call cTop
   271 00000213 E8(00000000)            	call cPush
   272 00000218 E8(00000000)            	call pInterval
   273 0000021D 3132                    	 db "1", "2"
   274 0000021F 4809C9                  	or rPOk, rPOk
   275 00000222 7502                    	jnz SD0008
   276 00000224 EB07                    	jmp SDEnd0008
   277                                  SD0008:
   278 00000226 E8(00000000)            	call pInterval
   279 0000022B 3039                    	 db "0", "9"
   280                                  SDEnd0008:
   281 0000022D E8(00000000)            	call cDrop
   282 00000232 E302                    	jrcxz DL0009
   283 00000234 EB24                    	jmp DLEnd0007
   284 00000236 48FFC1                  DL0009:	inc rcx
   285 00000239 E8(00000000)            	call cTop
   286 0000023E E8(00000000)            	call pIn
   287 00000243 023330                  	 db 0x0002, "30"
   288 00000246 E302                    	jrcxz DL000A
   289 00000248 EB10                    	jmp DLEnd0007
   290 0000024A 48FFC1                  DL000A:	inc rcx
   291 0000024D E8(00000000)            	call cTop
   292 00000252 E8(00000000)            	call pIn
   293 00000257 023331                  	 db 0x0002, "31"
   294                                  DLEnd0007:
   295 0000025A E8(00000000)            	call cDrop
   296 0000025F C3                      	ret
   297                                  
   298                                  ;DD	= ("0", "1".."9")|("1".."2","0".."9")|"30"|"31";
   299                                  
   300                                  ;xxxxxxxxxxxxxxxxxxxxxxxxxxxxxxxxxxxxxxxxxxxxxxxxxxxxxxxxxxxxxxxxxxxxxxxxxxxxxx
   301                                  hh:
   302 00000260 E8(00000000)            	call cPush
   303 00000265 E8(00000000)            	call pInterval
   304 0000026A 3031                    	 db "0", "1"
   305 0000026C 4809C9                  	or rPOk, rPOk
   306 0000026F 7502                    	jnz SD000B
   307 00000271 EB07                    	jmp SDEnd000B
   308                                  SD000B:
   309 00000273 E8(00000000)            	call pInterval
   310 00000278 3039                    	 db "0", "9"
   311                                  SDEnd000B:
   312 0000027A E302                    	jrcxz DL000C
   313 0000027C EB3E                    	jmp DLEnd000C
   314 0000027E 48FFC1                  DL000C:	inc rcx
   315 00000281 E8(00000000)            	call cTop
   316 00000286 E8(00000000)            	call pIn
   317 0000028B 0131                    	 db 0x0001, "1"
   318 0000028D 4809C9                  	or rPOk, rPOk
   319 00000290 7502                    	jnz SD000D
   320 00000292 EB07                    	jmp SDEnd000D
   321                                  SD000D:
   322 00000294 E8(00000000)            	call pInterval
   323 00000299 3039                    	 db "0", "9"
   324                                  SDEnd000D:
   325 0000029B E302                    	jrcxz DL000E
   326 0000029D EB1D                    	jmp DLEnd000C
   327 0000029F 48FFC1                  DL000E:	inc rcx
   328 000002A2 E8(00000000)            	call cTop
   329 000002A7 E8(00000000)            	call pIn
   330 000002AC 0132                    	 db 0x0001, "2"
   331 000002AE 4809C9                  	or rPOk, rPOk
   332 000002B1 7502                    	jnz SD000F
   333 000002B3 EB07                    	jmp SDEnd000F
   334                                  SD000F:
   335 000002B5 E8(00000000)            	call pInterval
   336 000002BA 3033                    	 db "0", "3"
   337                                  SDEnd000F:
   338                                  DLEnd000C:
   339 000002BC E8(00000000)            	call cDrop
   340 000002C1 C3                      	ret
   341                                  
   342                                  ;hh	= "0".."1", "0".."9"|"1","0".."9"|"2","0".."3";
   343                                  
   344                                  ;xxxxxxxxxxxxxxxxxxxxxxxxxxxxxxxxxxxxxxxxxxxxxxxxxxxxxxxxxxxxxxxxxxxxxxxxxxxxxx
   345                                  LVAR:
   346 000002C2 E8(00000000)            	call cPush
   347 000002C7 E8(00000000)            	call n
   348 000002CC E8(00000000)            	call cDrop
   349 000002D1 C3                      	ret
   350                                  
   351                                  ;LVAR	= n;
   352                                  
   353                                  ;xxxxxxxxxxxxxxxxxxxxxxxxxxxxxxxxxxxxxxxxxxxxxxxxxxxxxxxxxxxxxxxxxxxxxxxxxxxxxx
   354                                  LLVAR:
   355 000002D2 E8(00000000)            	call cPush
   356 000002D7 41BD02000000            	mov rFactCnt, 2
   357 000002DD 4D09ED                  	or rFactCnt, rFactCnt
   358 000002E0 740E                    	jz FacEnd0010
   359                                  FacRep0010:
   360 000002E2 E8(00000000)            	call n
   361 000002E7 49FFCD                  	dec rFactCnt
   362 000002EA E304                    	jrcxz FacEnd0010
   363 000002EC 7402                    	jz FacEnd0010
   364 000002EE EBF2                    	jmp FacRep0010
   365                                  FacEnd0010:
   366 000002F0 E8(00000000)            	call cDrop
   367 000002F5 C3                      	ret
   368                                  
   369                                  ;LLVAR	= 2*n;
   370                                  
   371                                  ;xxxxxxxxxxxxxxxxxxxxxxxxxxxxxxxxxxxxxxxxxxxxxxxxxxxxxxxxxxxxxxxxxxxxxxxxxxxxxx
   372                                  LLLVAR:
   373 000002F6 E8(00000000)            	call cPush
   374 000002FB 41BD03000000            	mov rFactCnt, 3
   375 00000301 4D09ED                  	or rFactCnt, rFactCnt
   376 00000304 740E                    	jz FacEnd0011
   377                                  FacRep0011:
   378 00000306 E8(00000000)            	call n
   379 0000030B 49FFCD                  	dec rFactCnt
   380 0000030E E304                    	jrcxz FacEnd0011
   381 00000310 7402                    	jz FacEnd0011
   382 00000312 EBF2                    	jmp FacRep0011
   383                                  FacEnd0011:
   384 00000314 E8(00000000)            	call cDrop
   385 00000319 C3                      	ret
   386                                  
   387                                  ;LLLVAR	= 3*n;
   388                                  
   389                                  ;xxxxxxxxxxxxxxxxxxxxxxxxxxxxxxxxxxxxxxxxxxxxxxxxxxxxxxxxxxxxxxxxxxxxxxxxxxxxxx
   390                                  MM:
   391 0000031A E8(00000000)            	call cPush
   392 0000031F E8(00000000)            	call pIn
   393 00000324 0130                    	 db 0x0001, "0"
   394 00000326 4809C9                  	or rPOk, rPOk
   395 00000329 7502                    	jnz SD0012
   396 0000032B EB07                    	jmp SDEnd0012
   397                                  SD0012:
   398 0000032D E8(00000000)            	call pInterval
   399 00000332 3139                    	 db "1", "9"
   400                                  SDEnd0012:
   401 00000334 E302                    	jrcxz DL0013
   402 00000336 EB1D                    	jmp DLEnd0013
   403 00000338 48FFC1                  DL0013:	inc rcx
   404 0000033B E8(00000000)            	call cTop
   405 00000340 E8(00000000)            	call pIn
   406 00000345 0131                    	 db 0x0001, "1"
   407 00000347 4809C9                  	or rPOk, rPOk
   408 0000034A 7502                    	jnz SD0014
   409 0000034C EB07                    	jmp SDEnd0014
   410                                  SD0014:
   411 0000034E E8(00000000)            	call pInterval
   412 00000353 3032                    	 db "0", "2"
   413                                  SDEnd0014:
   414                                  DLEnd0013:
   415 00000355 E8(00000000)            	call cDrop
   416 0000035A C3                      	ret
   417                                  
   418                                  ;MM	= "0", "1".."9"|"1", "0".."2";
   419                                  
   420                                  ;xxxxxxxxxxxxxxxxxxxxxxxxxxxxxxxxxxxxxxxxxxxxxxxxxxxxxxxxxxxxxxxxxxxxxxxxxxxxxx
   421                                  mm:
   422 0000035B E8(00000000)            	call cPush
   423 00000360 E8(00000000)            	call pInterval
   424 00000365 3035                    	 db "0", "5"
   425 00000367 4809C9                  	or rPOk, rPOk
   426 0000036A 7502                    	jnz SD0015
   427 0000036C EB07                    	jmp SDEnd0015
   428                                  SD0015:
   429 0000036E E8(00000000)            	call pInterval
   430 00000373 3039                    	 db "0", "9"
   431                                  SDEnd0015:
   432 00000375 E8(00000000)            	call cDrop
   433 0000037A C3                      	ret
   434                                  
   435                                  ;mm	= "0".."5","0".."9";
   436                                  ;
   437                                  
   438                                  ;xxxxxxxxxxxxxxxxxxxxxxxxxxxxxxxxxxxxxxxxxxxxxxxxxxxxxxxxxxxxxxxxxxxxxxxxxxxxxx
   439                                  ns:
   440 0000037B E8(00000000)            	call cPush
   441 00000380 E8(00000000)            	call n
   442 00000385 E302                    	jrcxz DL0016
   443 00000387 EB0D                    	jmp DLEnd0016
   444 00000389 48FFC1                  DL0016:	inc rcx
   445 0000038C E8(00000000)            	call cTop
   446 00000391 E818000000              	call s
   447                                  DLEnd0016:
   448 00000396 E8(00000000)            	call cDrop
   449 0000039B C3                      	ret
   450                                  
   451                                  ;ns	= n|s;
   452                                  
   453                                  ;xxxxxxxxxxxxxxxxxxxxxxxxxxxxxxxxxxxxxxxxxxxxxxxxxxxxxxxxxxxxxxxxxxxxxxxxxxxxxx
   454                                  p:
   455 0000039C E8(00000000)            	call cPush
   456 000003A1 E8(00000000)            	call pIn
   457 000003A6 0120                    	 db 0x0001, " "
   458 000003A8 E8(00000000)            	call cDrop
   459 000003AD C3                      	ret
   460                                  
   461                                  ;p	= " ";
   462                                  
   463                                  ;xxxxxxxxxxxxxxxxxxxxxxxxxxxxxxxxxxxxxxxxxxxxxxxxxxxxxxxxxxxxxxxxxxxxxxxxxxxxxx
   464                                  s:
   465 000003AE E8(00000000)            	call cPush
   466 000003B3 E8(00000000)            	call pInterval
   467 000003B8 0AFF                    	 db 10, 255
   468 000003BA E8(00000000)            	call cDrop
   469 000003BF C3                      	ret
   470                                  
   471                                  ;s	= ^10..^255;
   472                                  
   473                                  ;xxxxxxxxxxxxxxxxxxxxxxxxxxxxxxxxxxxxxxxxxxxxxxxxxxxxxxxxxxxxxxxxxxxxxxxxxxxxxx
   474                                  nss:
   475 000003C0 E8(00000000)            	call cPush
   476 000003C5 E8(00000000)            	call pInterval
   477 000003CA 3035                    	 db "0", "5"
   478 000003CC 4809C9                  	or rPOk, rPOk
   479 000003CF 7502                    	jnz SD0017
   480 000003D1 EB07                    	jmp SDEnd0017
   481                                  SD0017:
   482 000003D3 E8(00000000)            	call pInterval
   483 000003D8 3039                    	 db "0", "9"
   484                                  SDEnd0017:
   485 000003DA E8(00000000)            	call cDrop
   486 000003DF C3                      	ret
   487                                  
   488                                  ;nss	= "0".."5","0".."9";
   489                                  
   490                                  ;xxxxxxxxxxxxxxxxxxxxxxxxxxxxxxxxxxxxxxxxxxxxxxxxxxxxxxxxxxxxxxxxxxxxxxxxxxxxxx
   491                                  HexDig:
   492 000003E0 E8(00000000)            	call cPush
   493 000003E5 E8(00000000)            	call pInterval
   494 000003EA 3039                    	 db "0", "9"
   495 000003EC E302                    	jrcxz DL0018
   496 000003EE EB22                    	jmp DLEnd0018
   497 000003F0 48FFC1                  DL0018:	inc rcx
   498 000003F3 E8(00000000)            	call cTop
   499 000003F8 E8(00000000)            	call pInterval
   500 000003FD 4146                    	 db "A", "F"
   501 000003FF E302                    	jrcxz DL0019
   502 00000401 EB0F                    	jmp DLEnd0018
   503 00000403 48FFC1                  DL0019:	inc rcx
   504 00000406 E8(00000000)            	call cTop
   505 0000040B E8(00000000)            	call pInterval
   506 00000410 6166                    	 db "a", "f"
   507                                  DLEnd0018:
   508 00000412 E8(00000000)            	call cDrop
   509 00000417 C3                      	ret
   510                                  
   511                                  ;HexDig	= "0".."9"|"A".."F"|"a".."f";
   512                                  ;
   513                                  
   514                                  ;xxxxxxxxxxxxxxxxxxxxxxxxxxxxxxxxxxxxxxxxxxxxxxxxxxxxxxxxxxxxxxxxxxxxxxxxxxxxxx
   515                                  Rum:
   516 00000418 E8(00000000)            	call cPush
   517 0000041D E8(00000000)            	call Message
   518 00000422 0A5374617274696E67-     	 db 0x0A, 'Starting..'
   518 0000042B 2E2E               
   519 0000042D 4809C9                  	or rPOk, rPOk
   520 00000430 7505                    	jnz SD001A
   521 00000432 E9AB000000              	jmp SDEnd001A
   522                                  SD001A:
   523 00000437 6A01                    	push 1
   524 00000439 E8(00000000)            	call sCLArg
   525 0000043E E8(00000000)            	call F2I
   526 00000443 4809C9                  	or rPOk, rPOk
   527 00000446 7505                    	jnz SD001B
   528 00000448 E995000000              	jmp SDEnd001A
   529                                  SD001B:
   530 0000044D E8(00000000)            	call Message
   531 00000452 1F4C6F616465642073-     	 db 0x1F, 'Loaded source..Compiled items: '
   531 0000045B 6F757263652E2E436F-
   531 00000464 6D70696C6564206974-
   531 0000046D 656D733A20         
   532 00000472 4809C9                  	or rPOk, rPOk
   533 00000475 7502                    	jnz SD001C
   534 00000477 EB69                    	jmp SDEnd001A
   535                                  SD001C:
   536 00000479 68[08050000]            	push Grammar
   537 0000047E E8(00000000)            	call I2O
   538 00000483 4809C9                  	or rPOk, rPOk
   539 00000486 7502                    	jnz SD001D
   540 00000488 EB58                    	jmp SDEnd001A
   541                                  SD001D:
   542 0000048A E8(00000000)            	call Message
   543 0000048F 0C4772616D6D617220-     	 db 0x0C, 'Grammar OK..'
   543 00000498 4F4B2E2E           
   544 0000049C 4809C9                  	or rPOk, rPOk
   545 0000049F 7502                    	jnz SD001E
   546 000004A1 EB3F                    	jmp SDEnd001A
   547                                  SD001E:
   548 000004A3 6A01                    	push 1
   549 000004A5 E8(00000000)            	call sCLArg
   550 000004AA E8(00000000)            	call sPush
   551 000004AF 052E6A736F6E            	 db 0x0005, '.json'
   552 000004B5 E8(00000000)            	call sConcat
   553 000004BA E8(00000000)            	call O2F
   554 000004BF 4809C9                  	or rPOk, rPOk
   555 000004C2 7502                    	jnz SD001F
   556 000004C4 EB1C                    	jmp SDEnd001A
   557                                  SD001F:
   558 000004C6 E8(00000000)            	call Message
   559 000004CB 165361766564206F62-     	 db 0x16, 'Saved object.. Done !', 0x0A
   559 000004D4 6A6563742E2E20446F-
   559 000004DD 6E6520210A         
   560                                  SDEnd001A:
   561 000004E2 E302                    	jrcxz DL0020
   562 000004E4 EB1C                    	jmp DLEnd0020
   563 000004E6 48FFC1                  DL0020:	inc rcx
   564 000004E9 E8(00000000)            	call cTop
   565 000004EE E8(00000000)            	call ErrorMessage
   566 000004F3 0E416A2C20736F6D65-     	 db 0x0E, 'Aj, some error'
   566 000004FC 206572726F72       
   567                                  DLEnd0020:
   568 00000502 E8(00000000)            	call cDrop
   569 00000507 C3                      	ret
   570                                  
   571                                  ;Rum	 = 	Message('Starting..')	, F2I (sCLArg(1))			, Message('Loaded source..Compiled items: ')
   572                                  ;					, I2O (*Grammar)			, Message('Grammar OK..')
   573                                  ;					, O2F (sConcat(sCLArg(1),'.json'))	, Message('Saved object.. Done !', 0x0A)
   574                                  ;    					| ErrorMessage('Aj, some error');
   575                                  ;
   576                                  
   577                                  ;xxxxxxxxxxxxxxxxxxxxxxxxxxxxxxxxxxxxxxxxxxxxxxxxxxxxxxxxxxxxxxxxxxxxxxxxxxxxxx
   578                                  Grammar:
   579 00000508 E8(00000000)            	call cPush
   580 0000050D E8(00000000)            	call pOut
   581 00000512 0F7B22547278537472-     	 db 0x0F, '{"TrxStream":{', 0x0A
   581 0000051B 65616D223A7B0A     
   582 00000522 4809C9                  	or rPOk, rPOk
   583 00000525 7502                    	jnz SD0021
   584 00000527 EB73                    	jmp SDEnd0021
   585                                  SD0021:
   586 00000529 E8(00000000)            	call cPush
   587                                  RSRep0024:
   588 0000052E E8(00000000)            	call cPush
   589 00000533 E86A000000              	call Msg
   590 00000538 4809C9                  	or rPOk, rPOk
   591 0000053B 7502                    	jnz SD0025
   592 0000053D EB09                    	jmp SDEnd0025
   593                                  SD0025:
   594 0000053F E8(00000000)            	call pOut
   595 00000544 037D2C0A                	 db 0x03, '},', 0x0a
   596                                  SDEnd0025:
   597 00000548 E8(00000000)            	call cDrop
   598 0000054D E307                    	jrcxz RSEnd0024
   599 0000054F 4D09F6                  	or rInEndFlg, rInEndFlg
   600 00000552 7502                    	jnz RSEnd0024
   601 00000554 EBD8                    	jmp RSRep0024
   602                                  RSEnd0024:
   603 00000556 4831C9                  	xor rPOk, rPOk
   604 00000559 48FFC1                  	inc rPOk
   605 0000055C E8(00000000)            	call cDrop
   606 00000561 4809C9                  	or rPOk, rPOk
   607 00000564 7502                    	jnz SD0026
   608 00000566 EB34                    	jmp SDEnd0021
   609                                  SD0026:
   610 00000568 E8(00000000)            	call cPush
   611 0000056D 41BD02000000            	mov rFactCnt, 2
   612 00000573 4D09ED                  	or rFactCnt, rFactCnt
   613 00000576 740E                    	jz FacEnd0027
   614                                  FacRep0027:
   615 00000578 E8(00000000)            	call DropLastChar
   616 0000057D 49FFCD                  	dec rFactCnt
   617 00000580 E304                    	jrcxz FacEnd0027
   618 00000582 7402                    	jz FacEnd0027
   619 00000584 EBF2                    	jmp FacRep0027
   620                                  FacEnd0027:
   621 00000586 E8(00000000)            	call cDrop
   622 0000058B 4809C9                  	or rPOk, rPOk
   623 0000058E 7502                    	jnz SD0028
   624 00000590 EB0A                    	jmp SDEnd0021
   625                                  SD0028:
   626 00000592 E8(00000000)            	call pOut
   627 00000597 040A7D7D0A              	 db 0x04, 0x0a, '}}', 0x0a
   628                                  SDEnd0021:
   629 0000059C E8(00000000)            	call cDrop
   630 000005A1 C3                      	ret
   631                                  
   632                                  ;Grammar	= 		 pOut('{"TrxStream":{', 0x0A),
   633                                  ;	  { Msg		,pOut('},', 0x0a) 
   634                                  ;		}, 
   635                                  ;	  (2*DropLastChar), pOut(0x0a, '}}', 0x0a);
   636                                  ;
   637                                  
   638                                  ;xxxxxxxxxxxxxxxxxxxxxxxxxxxxxxxxxxxxxxxxxxxxxxxxxxxxxxxxxxxxxxxxxxxxxxxxxxxxxx
   639                                  Msg:
   640 000005A2 E8(00000000)            	call cPush
   641 000005A7 E8(00000000)            	call cPush
   642 000005AC E8CE000000              	call MTI
   643 000005B1 4809C9                  	or rPOk, rPOk
   644 000005B4 7502                    	jnz SD0029
   645 000005B6 EB58                    	jmp SDEnd0029
   646                                  SD0029:
   647 000005B8 E8(00000000)            	call pOut
   648 000005BD 017B                    	 db 0x01, '{'
   649 000005BF 4809C9                  	or rPOk, rPOk
   650 000005C2 7502                    	jnz SD002A
   651 000005C4 EB4A                    	jmp SDEnd0029
   652                                  SD002A:
   653 000005C6 E8(00000000)            	call Message
   654 000005CB 023A20                  	 db 0x02, ": "
   655 000005CE 4809C9                  	or rPOk, rPOk
   656 000005D1 7502                    	jnz SD002B
   657 000005D3 EB3B                    	jmp SDEnd0029
   658                                  SD002B:
   659 000005D5 4831C0                  	xor rax,rax
   660 000005D8 48890425[00000000]      	mov [aBitMap0]  ,rax
   661 000005E0 48890425[08000000]      	mov [aBitMap1]  ,rax
   662 000005E8 48890425[10000000]      	mov [aBitMap48] ,rax
   663 000005F0 48890425[18000000]      	mov [aBitMap488],rax
   664 000005F8 4809C9                  	or rPOk, rPOk
   665 000005FB 7502                    	jnz SD002C
   666 000005FD EB11                    	jmp SDEnd0029
   667                                  SD002C:
   668 000005FF E8E0050000              	call BitMap0
   669 00000604 4809C9                  	or rPOk, rPOk
   670 00000607 7502                    	jnz SD002D
   671 00000609 EB05                    	jmp SDEnd0029
   672                                  SD002D:
   673 0000060B E89E070000              	call Fields0
   674                                  SDEnd0029:
   675 00000610 E8(00000000)            	call cDrop
   676 00000615 E302                    	jrcxz DL002E
   677 00000617 EB60                    	jmp DLEnd002E
   678 00000619 48FFC1                  DL002E:	inc rcx
   679 0000061C E8(00000000)            	call cTop
   680 00000621 E8(00000000)            	call Message
   681 00000626 012C                    	 db 1, ","
   682 00000628 E8(00000000)            	call pOut
   683 0000062D 05223F223A22            	 db 5, '"?":"'
   684 00000633 E8(00000000)            	call cPush
   685 00000638 E8E7FAFFFF              	call anp
   686 0000063D 4809C9                  	or rPOk, rPOk
   687 00000640 7502                    	jnz SD002F
   688 00000642 EB05                    	jmp SDEnd002F
   689                                  SD002F:
   690 00000644 E8(00000000)            	call pOutLI
   691                                  SDEnd002F:
   692 00000649 E302                    	jrcxz DL0030
   693 0000064B EB19                    	jmp DLEnd0030
   694 0000064D 48FFC1                  DL0030:	inc rcx
   695 00000650 E8(00000000)            	call cTop
   696 00000655 E8(00000000)            	call b
   697 0000065A 4809C9                  	or rPOk, rPOk
   698 0000065D 7502                    	jnz SD0031
   699 0000065F EB05                    	jmp SDEnd0031
   700                                  SD0031:
   701 00000661 E8(00000000)            	call pOutLIHex
   702                                  SDEnd0031:
   703                                  DLEnd0030:
   704 00000666 E8(00000000)            	call cDrop
   705 0000066B 4809C9                  	or rPOk, rPOk
   706 0000066E 7502                    	jnz SD0032
   707 00000670 EB07                    	jmp SDEnd0032
   708                                  SD0032:
   709 00000672 E8(00000000)            	call pOut
   710 00000677 0122                    	 db 0x01, '"'
   711                                  SDEnd0032:
   712                                  DLEnd002E:
   713 00000679 E8(00000000)            	call cDrop
   714 0000067E C3                      	ret
   715                                  
   716                                  ;Msg = (	MTI, pOut ('{'), Message (": "),
   717                                  ;					 <.	xor rax,rax.>
   718                                  ;					 <.	mov [aBitMap0]  ,rax.>
   719                                  ;					 <.	mov [aBitMap1]  ,rax.>
   720                                  ;					 <.	mov [aBitMap48] ,rax.>
   721                                  ;					 <.	mov [aBitMap488],rax.>
   722                                  ;	    , BitMap0, Fields0 )| 	<<	call Message>>
   723                                  ;	    				<<	 db 1, ",">>
   724                                  ;	    				<<	call pOut>>
   725                                  ;	    				<<	 db 5, '"?":"'>>
   726                                  ;	    		 	  (anp, pOutLI| b, pOutLIHex), pOut('"') ;
   727                                  ;
   728                                  
   729                                  ;xxxxxxxxxxxxxxxxxxxxxxxxxxxxxxxxxxxxxxxxxxxxxxxxxxxxxxxxxxxxxxxxxxxxxxxxxxxxxx
   730                                  MTI:
   731 0000067F E8(00000000)            	call cPush
   732 00000684 E8(00000000)            	call Message
   733 00000689 010A                    	 db 0x01, 0x0a
   734 0000068B 4809C9                  	or rPOk, rPOk
   735 0000068E 7502                    	jnz SD0033
   736 00000690 EB40                    	jmp SDEnd0033
   737                                  SD0033:
   738 00000692 E8(00000000)            	call pIn
   739 00000697 0431313030              	 db 0x0004, "1100"
   740 0000069C 4809C9                  	or rPOk, rPOk
   741 0000069F 7502                    	jnz SD0034
   742 000006A1 EB2F                    	jmp SDEnd0033
   743                                  SD0034:
   744 000006A3 E8(00000000)            	call pOut
   745 000006A8 1D0A22313130302041-     	 db 0x1D, 0x0a, '"1100 AuthorizationRequest":'
   745 000006B1 7574686F72697A6174-
   745 000006BA 696F6E526571756573-
   745 000006C3 74223A             
   746 000006C6 4809C9                  	or rPOk, rPOk
   747 000006C9 7502                    	jnz SD0035
   748 000006CB EB05                    	jmp SDEnd0033
   749                                  SD0035:
   750 000006CD E8(00000000)            	call MsgLI
   751                                  SDEnd0033:
   752 000006D2 E305                    	jrcxz DL0036
   753 000006D4 E905050000              	jmp DLEnd0036
   754 000006D9 48FFC1                  DL0036:	inc rcx
   755 000006DC E8(00000000)            	call cTop
   756 000006E1 E8(00000000)            	call pIn
   757 000006E6 0431313130              	 db 0x0004, "1110"
   758 000006EB 4809C9                  	or rPOk, rPOk
   759 000006EE 7502                    	jnz SD0037
   760 000006F0 EB30                    	jmp SDEnd0037
   761                                  SD0037:
   762 000006F2 E8(00000000)            	call pOut
   763 000006F7 1E0A22313131302041-     	 db 0x1E, 0x0a, '"1110 AuthorizationResponse":'
   763 00000700 7574686F72697A6174-
   763 00000709 696F6E526573706F6E-
   763 00000712 7365223A           
   764 00000716 4809C9                  	or rPOk, rPOk
   765 00000719 7502                    	jnz SD0038
   766 0000071B EB05                    	jmp SDEnd0037
   767                                  SD0038:
   768 0000071D E8(00000000)            	call MsgLI
   769                                  SDEnd0037:
   770 00000722 E305                    	jrcxz DL0039
   771 00000724 E9B5040000              	jmp DLEnd0036
   772 00000729 48FFC1                  DL0039:	inc rcx
   773 0000072C E8(00000000)            	call cTop
   774 00000731 E8(00000000)            	call pIn
   775 00000736 0431323030              	 db 0x0004, "1200"
   776 0000073B 4809C9                  	or rPOk, rPOk
   777 0000073E 7502                    	jnz SD003A
   778 00000740 EB29                    	jmp SDEnd003A
   779                                  SD003A:
   780 00000742 E8(00000000)            	call pOut
   781 00000747 170A22313230302050-     	 db 0x17, 0x0a, '"1200 PaymentRequest":'
   781 00000750 61796D656E74526571-
   781 00000759 75657374223A       
   782 0000075F 4809C9                  	or rPOk, rPOk
   783 00000762 7502                    	jnz SD003B
   784 00000764 EB05                    	jmp SDEnd003A
   785                                  SD003B:
   786 00000766 E8(00000000)            	call MsgLI
   787                                  SDEnd003A:
   788 0000076B E305                    	jrcxz DL003C
   789 0000076D E96C040000              	jmp DLEnd0036
   790 00000772 48FFC1                  DL003C:	inc rcx
   791 00000775 E8(00000000)            	call cTop
   792 0000077A E8(00000000)            	call pIn
   793 0000077F 0431323130              	 db 0x0004, "1210"
   794 00000784 4809C9                  	or rPOk, rPOk
   795 00000787 7502                    	jnz SD003D
   796 00000789 EB2A                    	jmp SDEnd003D
   797                                  SD003D:
   798 0000078B E8(00000000)            	call pOut
   799 00000790 180A22313231302050-     	 db 0x18, 0x0a, '"1210 PaymentResponse":'
   799 00000799 61796D656E74526573-
   799 000007A2 706F6E7365223A     
   800 000007A9 4809C9                  	or rPOk, rPOk
   801 000007AC 7502                    	jnz SD003E
   802 000007AE EB05                    	jmp SDEnd003D
   803                                  SD003E:
   804 000007B0 E8(00000000)            	call MsgLI
   805                                  SDEnd003D:
   806 000007B5 E305                    	jrcxz DL003F
   807 000007B7 E922040000              	jmp DLEnd0036
   808 000007BC 48FFC1                  DL003F:	inc rcx
   809 000007BF E8(00000000)            	call cTop
   810 000007C4 E8(00000000)            	call pIn
   811 000007C9 0431323230              	 db 0x0004, "1220"
   812 000007CE 4809C9                  	or rPOk, rPOk
   813 000007D1 7502                    	jnz SD0040
   814 000007D3 EB2C                    	jmp SDEnd0040
   815                                  SD0040:
   816 000007D5 E8(00000000)            	call pOut
   817 000007DA 1A0A22313232302054-     	 db 0x1A, 0x0a, '"1220 TransactionAdvice":'
   817 000007E3 72616E73616374696F-
   817 000007EC 6E416476696365223A 
   818 000007F5 4809C9                  	or rPOk, rPOk
   819 000007F8 7502                    	jnz SD0041
   820 000007FA EB05                    	jmp SDEnd0040
   821                                  SD0041:
   822 000007FC E8(00000000)            	call MsgLI
   823                                  SDEnd0040:
   824 00000801 E305                    	jrcxz DL0042
   825 00000803 E9D6030000              	jmp DLEnd0036
   826 00000808 48FFC1                  DL0042:	inc rcx
   827 0000080B E8(00000000)            	call cTop
   828 00000810 E8(00000000)            	call pIn
   829 00000815 0431323231              	 db 0x0004, "1221"
   830 0000081A 4809C9                  	or rPOk, rPOk
   831 0000081D 7502                    	jnz SD0043
   832 0000081F EB32                    	jmp SDEnd0043
   833                                  SD0043:
   834 00000821 E8(00000000)            	call pOut
   835 00000826 200A22313232312054-     	 db 0x20, 0x0a, '"1221 TransactionAdviceRepeat":'
   835 0000082F 72616E73616374696F-
   835 00000838 6E4164766963655265-
   835 00000841 70656174223A       
   836 00000847 4809C9                  	or rPOk, rPOk
   837 0000084A 7502                    	jnz SD0044
   838 0000084C EB05                    	jmp SDEnd0043
   839                                  SD0044:
   840 0000084E E8(00000000)            	call MsgLI
   841                                  SDEnd0043:
   842 00000853 E305                    	jrcxz DL0045
   843 00000855 E984030000              	jmp DLEnd0036
   844 0000085A 48FFC1                  DL0045:	inc rcx
   845 0000085D E8(00000000)            	call cTop
   846 00000862 E8(00000000)            	call pIn
   847 00000867 0431323330              	 db 0x0004, "1230"
   848 0000086C 4809C9                  	or rPOk, rPOk
   849 0000086F 7502                    	jnz SD0046
   850 00000871 EB30                    	jmp SDEnd0046
   851                                  SD0046:
   852 00000873 E8(00000000)            	call pOut
   853 00000878 1E0A22313233302041-     	 db 0x1E, 0x0a, '"1230 AuthorizationResponse":'
   853 00000881 7574686F72697A6174-
   853 0000088A 696F6E526573706F6E-
   853 00000893 7365223A           
   854 00000897 4809C9                  	or rPOk, rPOk
   855 0000089A 7502                    	jnz SD0047
   856 0000089C EB05                    	jmp SDEnd0046
   857                                  SD0047:
   858 0000089E E8(00000000)            	call MsgLI
   859                                  SDEnd0046:
   860 000008A3 E305                    	jrcxz DL0048
   861 000008A5 E934030000              	jmp DLEnd0036
   862 000008AA 48FFC1                  DL0048:	inc rcx
   863 000008AD E8(00000000)            	call cTop
   864 000008B2 E8(00000000)            	call pIn
   865 000008B7 0431343230              	 db 0x0004, "1420"
   866 000008BC 4809C9                  	or rPOk, rPOk
   867 000008BF 7502                    	jnz SD0049
   868 000008C1 EB29                    	jmp SDEnd0049
   869                                  SD0049:
   870 000008C3 E8(00000000)            	call pOut
   871 000008C8 170A22313432302052-     	 db 0x17, 0x0a, '"1420 ReversalAdvice":'
   871 000008D1 6576657273616C4164-
   871 000008DA 76696365223A       
   872 000008E0 4809C9                  	or rPOk, rPOk
   873 000008E3 7502                    	jnz SD004A
   874 000008E5 EB05                    	jmp SDEnd0049
   875                                  SD004A:
   876 000008E7 E8(00000000)            	call MsgLI
   877                                  SDEnd0049:
   878 000008EC E305                    	jrcxz DL004B
   879 000008EE E9EB020000              	jmp DLEnd0036
   880 000008F3 48FFC1                  DL004B:	inc rcx
   881 000008F6 E8(00000000)            	call cTop
   882 000008FB E8(00000000)            	call pIn
   883 00000900 0431343231              	 db 0x0004, "1421"
   884 00000905 4809C9                  	or rPOk, rPOk
   885 00000908 7502                    	jnz SD004C
   886 0000090A EB2F                    	jmp SDEnd004C
   887                                  SD004C:
   888 0000090C E8(00000000)            	call pOut
   889 00000911 1D0A22313432312052-     	 db 0x1D, 0x0a, '"1421 ReversalAdviceRepeat":'
   889 0000091A 6576657273616C4164-
   889 00000923 766963655265706561-
   889 0000092C 74223A             
   890 0000092F 4809C9                  	or rPOk, rPOk
   891 00000932 7502                    	jnz SD004D
   892 00000934 EB05                    	jmp SDEnd004C
   893                                  SD004D:
   894 00000936 E8(00000000)            	call MsgLI
   895                                  SDEnd004C:
   896 0000093B E305                    	jrcxz DL004E
   897 0000093D E99C020000              	jmp DLEnd0036
   898 00000942 48FFC1                  DL004E:	inc rcx
   899 00000945 E8(00000000)            	call cTop
   900 0000094A E8(00000000)            	call pIn
   901 0000094F 0431343330              	 db 0x0004, "1430"
   902 00000954 4809C9                  	or rPOk, rPOk
   903 00000957 7502                    	jnz SD004F
   904 00000959 EB31                    	jmp SDEnd004F
   905                                  SD004F:
   906 0000095B E8(00000000)            	call pOut
   907 00000960 1F0A22313433302052-     	 db 0x1F, 0x0a, '"1430 ReversalAdviceResponse":'
   907 00000969 6576657273616C4164-
   907 00000972 76696365526573706F-
   907 0000097B 6E7365223A         
   908 00000980 4809C9                  	or rPOk, rPOk
   909 00000983 7502                    	jnz SD0050
   910 00000985 EB05                    	jmp SDEnd004F
   911                                  SD0050:
   912 00000987 E8(00000000)            	call MsgLI
   913                                  SDEnd004F:
   914 0000098C E305                    	jrcxz DL0051
   915 0000098E E94B020000              	jmp DLEnd0036
   916 00000993 48FFC1                  DL0051:	inc rcx
   917 00000996 E8(00000000)            	call cTop
   918 0000099B E8(00000000)            	call pIn
   919 000009A0 0431353230              	 db 0x0004, "1520"
   920 000009A5 4809C9                  	or rPOk, rPOk
   921 000009A8 7502                    	jnz SD0052
   922 000009AA EB2F                    	jmp SDEnd0052
   923                                  SD0052:
   924 000009AC E8(00000000)            	call pOut
   925 000009B1 1D0A22313532302052-     	 db 0x1D, 0x0a, '"1520 ReconciliationAdvice":'
   925 000009BA 65636F6E63696C6961-
   925 000009C3 74696F6E4164766963-
   925 000009CC 65223A             
   926 000009CF 4809C9                  	or rPOk, rPOk
   927 000009D2 7502                    	jnz SD0053
   928 000009D4 EB05                    	jmp SDEnd0052
   929                                  SD0053:
   930 000009D6 E8(00000000)            	call MsgLI
   931                                  SDEnd0052:
   932 000009DB E305                    	jrcxz DL0054
   933 000009DD E9FC010000              	jmp DLEnd0036
   934 000009E2 48FFC1                  DL0054:	inc rcx
   935 000009E5 E8(00000000)            	call cTop
   936 000009EA E8(00000000)            	call pIn
   937 000009EF 0431353330              	 db 0x0004, "1530"
   938 000009F4 4809C9                  	or rPOk, rPOk
   939 000009F7 7502                    	jnz SD0055
   940 000009F9 EB37                    	jmp SDEnd0055
   941                                  SD0055:
   942 000009FB E8(00000000)            	call pOut
   943 00000A00 250A22313533302052-     	 db 0x25, 0x0a, '"1530 ReconciliationAdviceResponse":'
   943 00000A09 65636F6E63696C6961-
   943 00000A12 74696F6E4164766963-
   943 00000A1B 65526573706F6E7365-
   943 00000A24 223A               
   944 00000A26 4809C9                  	or rPOk, rPOk
   945 00000A29 7502                    	jnz SD0056
   946 00000A2B EB05                    	jmp SDEnd0055
   947                                  SD0056:
   948 00000A2D E8(00000000)            	call MsgLI
   949                                  SDEnd0055:
   950 00000A32 E305                    	jrcxz DL0057
   951 00000A34 E9A5010000              	jmp DLEnd0036
   952 00000A39 48FFC1                  DL0057:	inc rcx
   953 00000A3C E8(00000000)            	call cTop
   954 00000A41 E8(00000000)            	call pIn
   955 00000A46 0431383230              	 db 0x0004, "1820"
   956 00000A4B 4809C9                  	or rPOk, rPOk
   957 00000A4E 7502                    	jnz SD0058
   958 00000A50 EB32                    	jmp SDEnd0058
   959                                  SD0058:
   960 00000A52 E8(00000000)            	call pOut
   961 00000A57 200A2231383230204E-     	 db 0x20, 0x0a, '"1820 NetworkManagementAdvice":'
   961 00000A60 6574776F726B4D616E-
   961 00000A69 6167656D656E744164-
   961 00000A72 76696365223A       
   962 00000A78 4809C9                  	or rPOk, rPOk
   963 00000A7B 7502                    	jnz SD0059
   964 00000A7D EB05                    	jmp SDEnd0058
   965                                  SD0059:
   966 00000A7F E8(00000000)            	call MsgLI
   967                                  SDEnd0058:
   968 00000A84 E305                    	jrcxz DL005A
   969 00000A86 E953010000              	jmp DLEnd0036
   970 00000A8B 48FFC1                  DL005A:	inc rcx
   971 00000A8E E8(00000000)            	call cTop
   972 00000A93 E8(00000000)            	call pIn
   973 00000A98 0431383231              	 db 0x0004, "1821"
   974 00000A9D 4809C9                  	or rPOk, rPOk
   975 00000AA0 7502                    	jnz SD005B
   976 00000AA2 EB38                    	jmp SDEnd005B
   977                                  SD005B:
   978 00000AA4 E8(00000000)            	call pOut
   979 00000AA9 260A2231383231204E-     	 db 0x26, 0x0a, '"1821 NetworkManagementAdviceRepeat":'
   979 00000AB2 6574776F726B4D616E-
   979 00000ABB 6167656D656E744164-
   979 00000AC4 766963655265706561-
   979 00000ACD 74223A             
   980 00000AD0 4809C9                  	or rPOk, rPOk
   981 00000AD3 7502                    	jnz SD005C
   982 00000AD5 EB05                    	jmp SDEnd005B
   983                                  SD005C:
   984 00000AD7 E8(00000000)            	call MsgLI
   985                                  SDEnd005B:
   986 00000ADC E305                    	jrcxz DL005D
   987 00000ADE E9FB000000              	jmp DLEnd0036
   988 00000AE3 48FFC1                  DL005D:	inc rcx
   989 00000AE6 E8(00000000)            	call cTop
   990 00000AEB E8(00000000)            	call pIn
   991 00000AF0 0431383330              	 db 0x0004, "1830"
   992 00000AF5 4809C9                  	or rPOk, rPOk
   993 00000AF8 7502                    	jnz SD005E
   994 00000AFA EB3A                    	jmp SDEnd005E
   995                                  SD005E:
   996 00000AFC E8(00000000)            	call pOut
   997 00000B01 280A2231383330204E-     	 db 0x28, 0x0a, '"1830 NetworkManagementAdviceResponse":'
   997 00000B0A 6574776F726B4D616E-
   997 00000B13 6167656D656E744164-
   997 00000B1C 76696365526573706F-
   997 00000B25 6E7365223A         
   998 00000B2A 4809C9                  	or rPOk, rPOk
   999 00000B2D 7502                    	jnz SD005F
  1000 00000B2F EB05                    	jmp SDEnd005E
  1001                                  SD005F:
  1002 00000B31 E8(00000000)            	call MsgLI
  1003                                  SDEnd005E:
  1004 00000B36 E305                    	jrcxz DL0060
  1005 00000B38 E9A1000000              	jmp DLEnd0036
  1006 00000B3D 48FFC1                  DL0060:	inc rcx
  1007 00000B40 E8(00000000)            	call cTop
  1008 00000B45 E8(00000000)            	call pIn
  1009 00000B4A 0439313030              	 db 0x0004, "9100"
  1010 00000B4F 4809C9                  	or rPOk, rPOk
  1011 00000B52 7502                    	jnz SD0061
  1012 00000B54 EB35                    	jmp SDEnd0061
  1013                                  SD0061:
  1014 00000B56 E8(00000000)            	call pOut
  1015 00000B5B 230A22393130302049-     	 db 0x23, 0x0a, '"9100 IndoorAuthorizationRequest":'
  1015 00000B64 6E646F6F7241757468-
  1015 00000B6D 6F72697A6174696F6E-
  1015 00000B76 52657175657374223A 
  1016 00000B7F 4809C9                  	or rPOk, rPOk
  1017 00000B82 7502                    	jnz SD0062
  1018 00000B84 EB05                    	jmp SDEnd0061
  1019                                  SD0062:
  1020 00000B86 E8(00000000)            	call MsgLI
  1021                                  SDEnd0061:
  1022 00000B8B E302                    	jrcxz DL0063
  1023 00000B8D EB4F                    	jmp DLEnd0036
  1024 00000B8F 48FFC1                  DL0063:	inc rcx
  1025 00000B92 E8(00000000)            	call cTop
  1026 00000B97 E8(00000000)            	call pIn
  1027 00000B9C 0439313130              	 db 0x0004, "9110"
  1028 00000BA1 4809C9                  	or rPOk, rPOk
  1029 00000BA4 7502                    	jnz SD0064
  1030 00000BA6 EB36                    	jmp SDEnd0064
  1031                                  SD0064:
  1032 00000BA8 E8(00000000)            	call pOut
  1033 00000BAD 240A22393131302049-     	 db 0x24, 0x0a, '"9110 IndoorAuthorizationResponse":'
  1033 00000BB6 6E646F6F7241757468-
  1033 00000BBF 6F72697A6174696F6E-
  1033 00000BC8 526573706F6E736522-
  1033 00000BD1 3A                 
  1034 00000BD2 4809C9                  	or rPOk, rPOk
  1035 00000BD5 7502                    	jnz SD0065
  1036 00000BD7 EB05                    	jmp SDEnd0064
  1037                                  SD0065:
  1038 00000BD9 E8(00000000)            	call MsgLI
  1039                                  SDEnd0064:
  1040                                  DLEnd0036:
  1041 00000BDE E8(00000000)            	call cDrop
  1042 00000BE3 C3                      	ret
  1043                                  
  1044                                  ;MTI = 	Message (0x0a),
  1045                                  ;	"1100"		,pOut(0x0a, '"1100 AuthorizationRequest":') 		,MsgLI	|
  1046                                  ;	"1110"		,pOut(0x0a, '"1110 AuthorizationResponse":')		,MsgLI	|
  1047                                  ;	"1200"		,pOut(0x0a, '"1200 PaymentRequest":')			,MsgLI	|
  1048                                  ;	"1210"		,pOut(0x0a, '"1210 PaymentResponse":')			,MsgLI	|
  1049                                  ;	"1220"		,pOut(0x0a, '"1220 TransactionAdvice":')		,MsgLI	|
  1050                                  ;	"1221"		,pOut(0x0a, '"1221 TransactionAdviceRepeat":')		,MsgLI	|
  1051                                  ;	"1230"		,pOut(0x0a, '"1230 AuthorizationResponse":')		,MsgLI	|
  1052                                  ;	"1420"		,pOut(0x0a, '"1420 ReversalAdvice":')			,MsgLI	|
  1053                                  ;	"1421"		,pOut(0x0a, '"1421 ReversalAdviceRepeat":')		,MsgLI	|
  1054                                  ;	"1430"		,pOut(0x0a, '"1430 ReversalAdviceResponse":') 		,MsgLI	|
  1055                                  ;	"1520"		,pOut(0x0a, '"1520 ReconciliationAdvice":') 		,MsgLI	|
  1056                                  ;	"1530"		,pOut(0x0a, '"1530 ReconciliationAdviceResponse":') 	,MsgLI	|
  1057                                  ;	"1820"		,pOut(0x0a, '"1820 NetworkManagementAdvice":')		,MsgLI	|
  1058                                  ;	"1821"		,pOut(0x0a, '"1821 NetworkManagementAdviceRepeat":')	,MsgLI	|
  1059                                  ;	"1830"		,pOut(0x0a, '"1830 NetworkManagementAdviceResponse":')	,MsgLI	|
  1060                                  ;	"9100"		,pOut(0x0a, '"9100 IndoorAuthorizationRequest":') 	,MsgLI	|
  1061                                  ;	"9110"		,pOut(0x0a, '"9110 IndoorAuthorizationResponse":')	,MsgLI	;
  1062                                  ;
  1063                                  
  1064                                  ;xxxxxxxxxxxxxxxxxxxxxxxxxxxxxxxxxxxxxxxxxxxxxxxxxxxxxxxxxxxxxxxxxxxxxxxxxxxxxx
  1065                                  BitMap0:
  1066 00000BE4 E8(00000000)            	call cPush
  1067 00000BE9 E8(00000000)            	call cPush
  1068 00000BEE 41BD08000000            	mov rFactCnt, 8
  1069 00000BF4 4D09ED                  	or rFactCnt, rFactCnt
  1070 00000BF7 740E                    	jz FacEnd0066
  1071                                  FacRep0066:
  1072 00000BF9 E8(00000000)            	call b
  1073 00000BFE 49FFCD                  	dec rFactCnt
  1074 00000C01 E304                    	jrcxz FacEnd0066
  1075 00000C03 7402                    	jz FacEnd0066
  1076 00000C05 EBF2                    	jmp FacRep0066
  1077                                  FacEnd0066:
  1078 00000C07 E8(00000000)            	call cDrop
  1079 00000C0C 4809C9                  	or rPOk, rPOk
  1080 00000C0F 7502                    	jnz SD0067
  1081 00000C11 EB65                    	jmp SDEnd0067
  1082                                  SD0067:
  1083 00000C13 E8E8F3FFFF              	call LIStore
  1084 00000C18 [0000000000000000]      	 dq aBitMap0
  1085 00000C20 4809C9                  	or rPOk, rPOk
  1086 00000C23 7502                    	jnz SD0068
  1087 00000C25 EB51                    	jmp SDEnd0067
  1088                                  SD0068:
  1089 00000C27 E805F4FFFF              	call SetBitMapCur
  1090 00000C2C [0000000000000000]      	 dq aBitMap0
  1091 00000C34 4809C9                  	or rPOk, rPOk
  1092 00000C37 7502                    	jnz SD0069
  1093 00000C39 EB3D                    	jmp SDEnd0067
  1094                                  SD0069:
  1095 00000C3B E8(00000000)            	call pOut
  1096 00000C40 0F0A09224269744D61-     	 db 0x0F, 0x0a, 0x09, '"BitMap0" : "'
  1096 00000C49 703022203A2022     
  1097 00000C50 4809C9                  	or rPOk, rPOk
  1098 00000C53 7502                    	jnz SD006A
  1099 00000C55 EB21                    	jmp SDEnd0067
  1100                                  SD006A:
  1101 00000C57 E8C1F3FFFF              	call TapMsg
  1102 00000C5C E8E0F3FFFF              	call ShowBitMap0
  1103 00000C61 E8(00000000)            	call Message
  1104 00000C66 0420423A20              	 db 0x04, " B: "
  1105 00000C6B E8B2F3FFFF              	call MsgTap
  1106 00000C70 E8(00000000)            	call pOut
  1107 00000C75 02222C                  	 db 0x02, '",'
  1108                                  SDEnd0067:
  1109 00000C78 E8(00000000)            	call cDrop
  1110 00000C7D C3                      	ret
  1111                                  
  1112                                  ;BitMap0  = (8*b)	, LIStore(*aBitMap0), SetBitMapCur(*aBitMap0)
  1113                                  ;			, pOut(0x0a, 0x09, '"BitMap0" : "'),		TapMsg ShowBitMap0 Message(" B: ") 		MsgTap pOut('",') ;
  1114                                  
  1115                                  ;xxxxxxxxxxxxxxxxxxxxxxxxxxxxxxxxxxxxxxxxxxxxxxxxxxxxxxxxxxxxxxxxxxxxxxxxxxxxxx
  1116                                  BitMap1:
  1117 00000C7E E8(00000000)            	call cPush
  1118 00000C83 E8(00000000)            	call cPush
  1119 00000C88 41BD08000000            	mov rFactCnt, 8
  1120 00000C8E 4D09ED                  	or rFactCnt, rFactCnt
  1121 00000C91 740E                    	jz FacEnd006B
  1122                                  FacRep006B:
  1123 00000C93 E8(00000000)            	call b
  1124 00000C98 49FFCD                  	dec rFactCnt
  1125 00000C9B E304                    	jrcxz FacEnd006B
  1126 00000C9D 7402                    	jz FacEnd006B
  1127 00000C9F EBF2                    	jmp FacRep006B
  1128                                  FacEnd006B:
  1129 00000CA1 E8(00000000)            	call cDrop
  1130 00000CA6 4809C9                  	or rPOk, rPOk
  1131 00000CA9 7502                    	jnz SD006C
  1132 00000CAB EB58                    	jmp SDEnd006C
  1133                                  SD006C:
  1134 00000CAD E84EF3FFFF              	call LIStore
  1135 00000CB2 [0800000000000000]      	 dq aBitMap1
  1136 00000CBA 4809C9                  	or rPOk, rPOk
  1137 00000CBD 7502                    	jnz SD006D
  1138 00000CBF EB44                    	jmp SDEnd006C
  1139                                  SD006D:
  1140 00000CC1 E8(00000000)            	call pOut
  1141 00000CC6 0F0A09224269744D61-     	 db 0x0F, 0x0a, 0x09, '"BitMap1" : "'
  1141 00000CCF 703122203A2022     
  1142 00000CD6 4809C9                  	or rPOk, rPOk
  1143 00000CD9 7502                    	jnz SD006E
  1144 00000CDB EB28                    	jmp SDEnd006C
  1145                                  SD006E:
  1146 00000CDD E83BF3FFFF              	call TapMsg
  1147 00000CE2 E88FF3FFFF              	call ShowBitMap1
  1148 00000CE7 E8(00000000)            	call Message
  1149 00000CEC 0B0A20202020202042-     	 db 0x0B, 0x0a, "      B1: "
  1149 00000CF5 313A20             
  1150 00000CF8 E825F3FFFF              	call MsgTap
  1151 00000CFD E8(00000000)            	call pOut
  1152 00000D02 02222C                  	 db 0x02, '",'
  1153                                  SDEnd006C:
  1154 00000D05 E8(00000000)            	call cDrop
  1155 00000D0A C3                      	ret
  1156                                  
  1157                                  ;BitMap1  = (8*b)	, LIStore(*aBitMap1)
  1158                                  ;			, pOut(0x0a, 0x09, '"BitMap1" : "'),		TapMsg ShowBitMap1 Message(0x0a, "      B1: ")	MsgTap pOut('",') ;
  1159                                  
  1160                                  ;xxxxxxxxxxxxxxxxxxxxxxxxxxxxxxxxxxxxxxxxxxxxxxxxxxxxxxxxxxxxxxxxxxxxxxxxxxxxxx
  1161                                  BitMap48:
  1162 00000D0B E8(00000000)            	call cPush
  1163 00000D10 E8(00000000)            	call cPush
  1164 00000D15 41BD08000000            	mov rFactCnt, 8
  1165 00000D1B 4D09ED                  	or rFactCnt, rFactCnt
  1166 00000D1E 740E                    	jz FacEnd006F
  1167                                  FacRep006F:
  1168 00000D20 E8(00000000)            	call b
  1169 00000D25 49FFCD                  	dec rFactCnt
  1170 00000D28 E304                    	jrcxz FacEnd006F
  1171 00000D2A 7402                    	jz FacEnd006F
  1172 00000D2C EBF2                    	jmp FacRep006F
  1173                                  FacEnd006F:
  1174 00000D2E E8(00000000)            	call cDrop
  1175 00000D33 4809C9                  	or rPOk, rPOk
  1176 00000D36 7502                    	jnz SD0070
  1177 00000D38 EB6E                    	jmp SDEnd0070
  1178                                  SD0070:
  1179 00000D3A E8C1F2FFFF              	call LIStore
  1180 00000D3F [1000000000000000]      	 dq aBitMap48
  1181 00000D47 4809C9                  	or rPOk, rPOk
  1182 00000D4A 7502                    	jnz SD0071
  1183 00000D4C EB5A                    	jmp SDEnd0070
  1184                                  SD0071:
  1185 00000D4E E8DEF2FFFF              	call SetBitMapCur
  1186 00000D53 [1000000000000000]      	 dq aBitMap48
  1187 00000D5B 4809C9                  	or rPOk, rPOk
  1188 00000D5E 7502                    	jnz SD0072
  1189 00000D60 EB46                    	jmp SDEnd0070
  1190                                  SD0072:
  1191 00000D62 E8(00000000)            	call pOut
  1192 00000D67 110A0909224269744D-     	 db 0x11, 0x0a, 0x09, 0x09, '"BitMap48" : "'
  1192 00000D70 6170343822203A2022 
  1193 00000D79 4809C9                  	or rPOk, rPOk
  1194 00000D7C 7502                    	jnz SD0073
  1195 00000D7E EB28                    	jmp SDEnd0070
  1196                                  SD0073:
  1197 00000D80 E898F2FFFF              	call TapMsg
  1198 00000D85 E8B7F2FFFF              	call ShowBitMap0
  1199 00000D8A E8(00000000)            	call Message
  1200 00000D8F 0B0A20202020204234-     	 db 0x0B, 0x0a, "     B48: "
  1200 00000D98 383A20             
  1201 00000D9B E882F2FFFF              	call MsgTap
  1202 00000DA0 E8(00000000)            	call pOut
  1203 00000DA5 02222C                  	 db 0x02, '",'
  1204                                  SDEnd0070:
  1205 00000DA8 E8(00000000)            	call cDrop
  1206 00000DAD C3                      	ret
  1207                                  
  1208                                  ;BitMap48 = (8*b)	, LIStore(*aBitMap48), SetBitMapCur(*aBitMap48) 
  1209                                  ;			, pOut(0x0a, 0x09, 0x09, '"BitMap48" : "'),	TapMsg ShowBitMap0 Message(0x0a, "     B48: ")	MsgTap pOut('",') ;
  1210                                  ;
  1211                                  ;/*IFSF1997*/
  1212                                  
  1213                                  ;xxxxxxxxxxxxxxxxxxxxxxxxxxxxxxxxxxxxxxxxxxxxxxxxxxxxxxxxxxxxxxxxxxxxxxxxxxxxxx
  1214                                  Fields0:
  1215 00000DAE E8(00000000)            	call cPush
  1216 00000DB3 E8(00000000)            	call cPush
  1217 00000DB8 E8EFF2FFFF              	call IsBit
  1218 00000DBD 0100000000000000        	 dq 1
  1219 00000DC5 4809C9                  	or rPOk, rPOk
  1220 00000DC8 7502                    	jnz SD0074
  1221 00000DCA EB05                    	jmp SDEnd0074
  1222                                  SD0074:
  1223 00000DCC E8ADFEFFFF              	call BitMap1
  1224                                  SDEnd0074:
  1225 00000DD1 E8(00000000)            	call cDrop
  1226 00000DD6 4831C9                  	xor rPOk, rPOk
  1227 00000DD9 48FFC1                  	inc rPOk
  1228 00000DDC 4809C9                  	or rPOk, rPOk
  1229 00000DDF 7505                    	jnz SD0075
  1230 00000DE1 E94B2C0000              	jmp SDEnd0075
  1231                                  SD0075:
  1232 00000DE6 E8(00000000)            	call cPush
  1233 00000DEB E8BCF2FFFF              	call IsBit
  1234 00000DF0 0200000000000000        	 dq 2
  1235 00000DF8 4809C9                  	or rPOk, rPOk
  1236 00000DFB 7502                    	jnz SD0076
  1237 00000DFD EB6D                    	jmp SDEnd0076
  1238                                  SD0076:
  1239 00000DFF E8(00000000)            	call cPush
  1240 00000E04 E8C9F4FFFF              	call LLVAR
  1241 00000E09 E8(00000000)            	call Dec2Bin
  1242 00000E0E 4989C5                  	mov rFactCnt, rax
  1243 00000E11 4809C0                  	or rax, rax
  1244 00000E14 7502                    	jnz FacRep0077
  1245 00000E16 EB0E                    	jmp FacEnd0077
  1246                                  FacRep0077:
  1247 00000E18 E82AF3FFFF              	call ans
  1248 00000E1D 49FFCD                  	dec rFactCnt
  1249 00000E20 E304                    	jrcxz FacEnd0077
  1250 00000E22 7402                    	jz FacEnd0077
  1251 00000E24 EBF2                    	jmp FacRep0077
  1252                                  FacEnd0077:
  1253 00000E26 E8(00000000)            	call cDrop
  1254 00000E2B 4809C9                  	or rPOk, rPOk
  1255 00000E2E 7502                    	jnz SD0078
  1256 00000E30 EB3A                    	jmp SDEnd0076
  1257                                  SD0078:
  1258 00000E32 E8(00000000)            	call pOut
  1259 00000E37 190A09224230322050-     	 db 0x19, 0x0a, 0x09, '"B02 PAN (manual)"		: "'
  1259 00000E40 414E20286D616E7561-
  1259 00000E49 6C292209093A2022   
  1260 00000E51 4809C9                  	or rPOk, rPOk
  1261 00000E54 7502                    	jnz SD0079
  1262 00000E56 EB14                    	jmp SDEnd0076
  1263                                  SD0079:
  1264 00000E58 E8(00000000)            	call pOutLI
  1265 00000E5D 4809C9                  	or rPOk, rPOk
  1266 00000E60 7502                    	jnz SD007A
  1267 00000E62 EB08                    	jmp SDEnd0076
  1268                                  SD007A:
  1269 00000E64 E8(00000000)            	call pOut
  1270 00000E69 02222C                  	 db 0x02, '",'
  1271                                  SDEnd0076:
  1272 00000E6C E8(00000000)            	call cDrop
  1273 00000E71 4831C9                  	xor rPOk, rPOk
  1274 00000E74 48FFC1                  	inc rPOk
  1275 00000E77 4809C9                  	or rPOk, rPOk
  1276 00000E7A 7505                    	jnz SD007B
  1277 00000E7C E9B02B0000              	jmp SDEnd0075
  1278                                  SD007B:
  1279 00000E81 E8(00000000)            	call cPush
  1280 00000E86 E821F2FFFF              	call IsBit
  1281 00000E8B 0300000000000000        	 dq 3
  1282 00000E93 4809C9                  	or rPOk, rPOk
  1283 00000E96 7502                    	jnz SD007C
  1284 00000E98 EB4C                    	jmp SDEnd007C
  1285                                  SD007C:
  1286 00000E9A E8(00000000)            	call cPush
  1287 00000E9F 41BD06000000            	mov rFactCnt, 6
  1288 00000EA5 4D09ED                  	or rFactCnt, rFactCnt
  1289 00000EA8 740E                    	jz FacEnd007D
  1290                                  FacRep007D:
  1291 00000EAA E8(00000000)            	call n
  1292 00000EAF 49FFCD                  	dec rFactCnt
  1293 00000EB2 E304                    	jrcxz FacEnd007D
  1294 00000EB4 7402                    	jz FacEnd007D
  1295 00000EB6 EBF2                    	jmp FacRep007D
  1296                                  FacEnd007D:
  1297 00000EB8 E8(00000000)            	call cDrop
  1298 00000EBD 4809C9                  	or rPOk, rPOk
  1299 00000EC0 7502                    	jnz SD007E
  1300 00000EC2 EB22                    	jmp SDEnd007C
  1301                                  SD007E:
  1302 00000EC4 E8(00000000)            	call pOut
  1303 00000EC9 1C0A09224230332050-     	 db 0x1C, 0x0a, 0x09, '"B03 Processing code"		: {'
  1303 00000ED2 726F63657373696E67-
  1303 00000EDB 20636F64652209093A-
  1303 00000EE4 207B               
  1304                                  SDEnd007C:
  1305 00000EE6 4809C9                  	or rPOk, rPOk
  1306 00000EE9 7502                    	jnz AD007F
  1307 00000EEB EB0F                    	jmp ADEnd007F
  1308                                  AD007F:
  1309 00000EED E8(00000000)            	call cAndProlog
  1310 00000EF2 E8523B0000              	call Bit3
  1311 00000EF7 E8(00000000)            	call cAndEpilog
  1312                                  ADEnd007F:
  1313 00000EFC E8(00000000)            	call cDrop
  1314 00000F01 4831C9                  	xor rPOk, rPOk
  1315 00000F04 48FFC1                  	inc rPOk
  1316 00000F07 4809C9                  	or rPOk, rPOk
  1317 00000F0A 7505                    	jnz SD0080
  1318 00000F0C E9202B0000              	jmp SDEnd0075
  1319                                  SD0080:
  1320 00000F11 E8(00000000)            	call cPush
  1321 00000F16 E891F1FFFF              	call IsBit
  1322 00000F1B 0400000000000000        	 dq 4
  1323 00000F23 4809C9                  	or rPOk, rPOk
  1324 00000F26 7502                    	jnz SD0081
  1325 00000F28 EB68                    	jmp SDEnd0081
  1326                                  SD0081:
  1327 00000F2A E8(00000000)            	call cPush
  1328 00000F2F 41BD0C000000            	mov rFactCnt, 12
  1329 00000F35 4D09ED                  	or rFactCnt, rFactCnt
  1330 00000F38 740E                    	jz FacEnd0082
  1331                                  FacRep0082:
  1332 00000F3A E8(00000000)            	call n
  1333 00000F3F 49FFCD                  	dec rFactCnt
  1334 00000F42 E304                    	jrcxz FacEnd0082
  1335 00000F44 7402                    	jz FacEnd0082
  1336 00000F46 EBF2                    	jmp FacRep0082
  1337                                  FacEnd0082:
  1338 00000F48 E8(00000000)            	call cDrop
  1339 00000F4D 4809C9                  	or rPOk, rPOk
  1340 00000F50 7502                    	jnz SD0083
  1341 00000F52 EB3E                    	jmp SDEnd0081
  1342                                  SD0083:
  1343 00000F54 E8(00000000)            	call pOut
  1344 00000F59 1E0A09224230342041-     	 db 0x1E, 0x0a, 0x09, '"B04 Amount transaction"	: "'
  1344 00000F62 6D6F756E7420747261-
  1344 00000F6B 6E73616374696F6E22-
  1344 00000F74 093A2022           
  1345 00000F78 4809C9                  	or rPOk, rPOk
  1346 00000F7B 7502                    	jnz SD0084
  1347 00000F7D EB13                    	jmp SDEnd0081
  1348                                  SD0084:
  1349 00000F7F E8(00000000)            	call pOutLI
  1350 00000F84 4809C9                  	or rPOk, rPOk
  1351 00000F87 7502                    	jnz SD0085
  1352 00000F89 EB07                    	jmp SDEnd0081
  1353                                  SD0085:
  1354 00000F8B E8(00000000)            	call pOut
  1355 00000F90 0128                    	 db 0x01, "("
  1356                                  SDEnd0081:
  1357 00000F92 4809C9                  	or rPOk, rPOk
  1358 00000F95 7505                    	jnz AD0086
  1359 00000F97 E99A000000              	jmp ADEnd0086
  1360                                  AD0086:
  1361 00000F9C E8(00000000)            	call cAndProlog
  1362 00000FA1 E8(00000000)            	call cPush
  1363 00000FA6 41BD0A000000            	mov rFactCnt, 10
  1364 00000FAC 4D09ED                  	or rFactCnt, rFactCnt
  1365 00000FAF 740E                    	jz FacEnd0087
  1366                                  FacRep0087:
  1367 00000FB1 E8(00000000)            	call n
  1368 00000FB6 49FFCD                  	dec rFactCnt
  1369 00000FB9 E304                    	jrcxz FacEnd0087
  1370 00000FBB 7402                    	jz FacEnd0087
  1371 00000FBD EBF2                    	jmp FacRep0087
  1372                                  FacEnd0087:
  1373 00000FBF E8(00000000)            	call cDrop
  1374 00000FC4 4809C9                  	or rPOk, rPOk
  1375 00000FC7 7502                    	jnz SD0088
  1376 00000FC9 EB66                    	jmp SDEnd0088
  1377                                  SD0088:
  1378 00000FCB E8(00000000)            	call pOutLITrim
  1379 00000FD0 4809C9                  	or rPOk, rPOk
  1380 00000FD3 7502                    	jnz SD0089
  1381 00000FD5 EB5A                    	jmp SDEnd0088
  1382                                  SD0089:
  1383 00000FD7 E8(00000000)            	call pOut
  1384 00000FDC 012E                    	 db 0x01, "."
  1385 00000FDE 4809C9                  	or rPOk, rPOk
  1386 00000FE1 7502                    	jnz SD008A
  1387 00000FE3 EB4C                    	jmp SDEnd0088
  1388                                  SD008A:
  1389 00000FE5 E8(00000000)            	call cPush
  1390 00000FEA 41BD02000000            	mov rFactCnt, 2
  1391 00000FF0 4D09ED                  	or rFactCnt, rFactCnt
  1392 00000FF3 740E                    	jz FacEnd008B
  1393                                  FacRep008B:
  1394 00000FF5 E8(00000000)            	call n
  1395 00000FFA 49FFCD                  	dec rFactCnt
  1396 00000FFD E304                    	jrcxz FacEnd008B
  1397 00000FFF 7402                    	jz FacEnd008B
  1398 00001001 EBF2                    	jmp FacRep008B
  1399                                  FacEnd008B:
  1400 00001003 E8(00000000)            	call cDrop
  1401 00001008 4809C9                  	or rPOk, rPOk
  1402 0000100B 7502                    	jnz SD008C
  1403 0000100D EB22                    	jmp SDEnd0088
  1404                                  SD008C:
  1405 0000100F E8(00000000)            	call pOutLI
  1406 00001014 4809C9                  	or rPOk, rPOk
  1407 00001017 7502                    	jnz SD008D
  1408 00001019 EB16                    	jmp SDEnd0088
  1409                                  SD008D:
  1410 0000101B E8(00000000)            	call pOut
  1411 00001020 0129                    	 db 0x01, ")"
  1412 00001022 4809C9                  	or rPOk, rPOk
  1413 00001025 7502                    	jnz SD008E
  1414 00001027 EB08                    	jmp SDEnd0088
  1415                                  SD008E:
  1416 00001029 E8(00000000)            	call pOut
  1417 0000102E 02222C                  	 db 0x02, '",'
  1418                                  SDEnd0088:
  1419 00001031 E8(00000000)            	call cAndEpilog
  1420                                  ADEnd0086:
  1421 00001036 E8(00000000)            	call cDrop
  1422 0000103B 4831C9                  	xor rPOk, rPOk
  1423 0000103E 48FFC1                  	inc rPOk
  1424 00001041 4809C9                  	or rPOk, rPOk
  1425 00001044 7505                    	jnz SD008F
  1426 00001046 E9E6290000              	jmp SDEnd0075
  1427                                  SD008F:
  1428 0000104B E8(00000000)            	call cPush
  1429 00001050 E857F0FFFF              	call IsBit
  1430 00001055 0500000000000000        	 dq 5
  1431 0000105D 4809C9                  	or rPOk, rPOk
  1432 00001060 7502                    	jnz SD0090
  1433 00001062 EB23                    	jmp SDEnd0090
  1434                                  SD0090:
  1435 00001064 E8(00000000)            	call pOut
  1436 00001069 0E0A09224230352209-     	 db 0x0E, 0x0a, 0x09, '"B05"				: "'
  1436 00001072 0909093A2022       
  1437 00001078 4809C9                  	or rPOk, rPOk
  1438 0000107B 7502                    	jnz SD0091
  1439 0000107D EB08                    	jmp SDEnd0090
  1440                                  SD0091:
  1441 0000107F E8(00000000)            	call pOut
  1442 00001084 02222C                  	 db 0x02, '",'
  1443                                  SDEnd0090:
  1444 00001087 E8(00000000)            	call cDrop
  1445 0000108C 4831C9                  	xor rPOk, rPOk
  1446 0000108F 48FFC1                  	inc rPOk
  1447 00001092 4809C9                  	or rPOk, rPOk
  1448 00001095 7505                    	jnz SD0092
  1449 00001097 E995290000              	jmp SDEnd0075
  1450                                  SD0092:
  1451 0000109C E8(00000000)            	call cPush
  1452 000010A1 E806F0FFFF              	call IsBit
  1453 000010A6 0600000000000000        	 dq 6
  1454 000010AE 4809C9                  	or rPOk, rPOk
  1455 000010B1 7502                    	jnz SD0093
  1456 000010B3 EB23                    	jmp SDEnd0093
  1457                                  SD0093:
  1458 000010B5 E8(00000000)            	call pOut
  1459 000010BA 0E0A09224230362209-     	 db 0x0E, 0x0a, 0x09, '"B06"				: "'
  1459 000010C3 0909093A2022       
  1460 000010C9 4809C9                  	or rPOk, rPOk
  1461 000010CC 7502                    	jnz SD0094
  1462 000010CE EB08                    	jmp SDEnd0093
  1463                                  SD0094:
  1464 000010D0 E8(00000000)            	call pOut
  1465 000010D5 02222C                  	 db 0x02, '",'
  1466                                  SDEnd0093:
  1467 000010D8 E8(00000000)            	call cDrop
  1468 000010DD 4831C9                  	xor rPOk, rPOk
  1469 000010E0 48FFC1                  	inc rPOk
  1470 000010E3 4809C9                  	or rPOk, rPOk
  1471 000010E6 7505                    	jnz SD0095
  1472 000010E8 E944290000              	jmp SDEnd0075
  1473                                  SD0095:
  1474 000010ED E8(00000000)            	call cPush
  1475 000010F2 E8B5EFFFFF              	call IsBit
  1476 000010F7 0700000000000000        	 dq 7
  1477 000010FF 4809C9                  	or rPOk, rPOk
  1478 00001102 7502                    	jnz SD0096
  1479 00001104 EB52                    	jmp SDEnd0096
  1480                                  SD0096:
  1481 00001106 E8(00000000)            	call cPush
  1482 0000110B 41BD0A000000            	mov rFactCnt, 10
  1483 00001111 4D09ED                  	or rFactCnt, rFactCnt
  1484 00001114 740E                    	jz FacEnd0097
  1485                                  FacRep0097:
  1486 00001116 E8(00000000)            	call n
  1487 0000111B 49FFCD                  	dec rFactCnt
  1488 0000111E E304                    	jrcxz FacEnd0097
  1489 00001120 7402                    	jz FacEnd0097
  1490 00001122 EBF2                    	jmp FacRep0097
  1491                                  FacEnd0097:
  1492 00001124 E8(00000000)            	call cDrop
  1493 00001129 4809C9                  	or rPOk, rPOk
  1494 0000112C 7502                    	jnz SD0098
  1495 0000112E EB28                    	jmp SDEnd0096
  1496                                  SD0098:
  1497 00001130 E8(00000000)            	call pOut
  1498 00001135 220A09224230372044-     	 db 0x22, 0x0a, 0x09, '"B07 Date time transmission"	: "'
  1498 0000113E 6174652074696D6520-
  1498 00001147 7472616E736D697373-
  1498 00001150 696F6E22093A2022   
  1499                                  SDEnd0096:
  1500 00001158 4809C9                  	or rPOk, rPOk
  1501 0000115B 7505                    	jnz AD0099
  1502 0000115D E9D2000000              	jmp ADEnd0099
  1503                                  AD0099:
  1504 00001162 E8(00000000)            	call cAndProlog
  1505 00001167 E8AEF1FFFF              	call MM
  1506 0000116C 4809C9                  	or rPOk, rPOk
  1507 0000116F 7505                    	jnz SD009A
  1508 00001171 E9B9000000              	jmp SDEnd009A
  1509                                  SD009A:
  1510 00001176 E8(00000000)            	call pOutLI
  1511 0000117B 4809C9                  	or rPOk, rPOk
  1512 0000117E 7505                    	jnz SD009B
  1513 00001180 E9AA000000              	jmp SDEnd009A
  1514                                  SD009B:
  1515 00001185 E8(00000000)            	call pOut
  1516 0000118A 012D                    	 db 0x01, '-'
  1517 0000118C 4809C9                  	or rPOk, rPOk
  1518 0000118F 7505                    	jnz SD009C
  1519 00001191 E999000000              	jmp SDEnd009A
  1520                                  SD009C:
  1521 00001196 E848F0FFFF              	call DD
  1522 0000119B 4809C9                  	or rPOk, rPOk
  1523 0000119E 7505                    	jnz SD009D
  1524 000011A0 E98A000000              	jmp SDEnd009A
  1525                                  SD009D:
  1526 000011A5 E8(00000000)            	call pOutLI
  1527 000011AA 4809C9                  	or rPOk, rPOk
  1528 000011AD 7502                    	jnz SD009E
  1529 000011AF EB7E                    	jmp SDEnd009A
  1530                                  SD009E:
  1531 000011B1 E8(00000000)            	call pOut
  1532 000011B6 0154                    	 db 0x01, 'T'
  1533 000011B8 4809C9                  	or rPOk, rPOk
  1534 000011BB 7502                    	jnz SD009F
  1535 000011BD EB70                    	jmp SDEnd009A
  1536                                  SD009F:
  1537 000011BF E89CF0FFFF              	call hh
  1538 000011C4 4809C9                  	or rPOk, rPOk
  1539 000011C7 7502                    	jnz SD00A0
  1540 000011C9 EB64                    	jmp SDEnd009A
  1541                                  SD00A0:
  1542 000011CB E8(00000000)            	call pOutLI
  1543 000011D0 4809C9                  	or rPOk, rPOk
  1544 000011D3 7502                    	jnz SD00A1
  1545 000011D5 EB58                    	jmp SDEnd009A
  1546                                  SD00A1:
  1547 000011D7 E8(00000000)            	call pOut
  1548 000011DC 013A                    	 db 0x01, ':'
  1549 000011DE 4809C9                  	or rPOk, rPOk
  1550 000011E1 7502                    	jnz SD00A2
  1551 000011E3 EB4A                    	jmp SDEnd009A
  1552                                  SD00A2:
  1553 000011E5 E871F1FFFF              	call mm
  1554 000011EA 4809C9                  	or rPOk, rPOk
  1555 000011ED 7502                    	jnz SD00A3
  1556 000011EF EB3E                    	jmp SDEnd009A
  1557                                  SD00A3:
  1558 000011F1 E8(00000000)            	call pOutLI
  1559 000011F6 4809C9                  	or rPOk, rPOk
  1560 000011F9 7502                    	jnz SD00A4
  1561 000011FB EB32                    	jmp SDEnd009A
  1562                                  SD00A4:
  1563 000011FD E8(00000000)            	call pOut
  1564 00001202 013A                    	 db 0x01, ':'
  1565 00001204 4809C9                  	or rPOk, rPOk
  1566 00001207 7502                    	jnz SD00A5
  1567 00001209 EB24                    	jmp SDEnd009A
  1568                                  SD00A5:
  1569 0000120B E8B0F1FFFF              	call nss
  1570 00001210 4809C9                  	or rPOk, rPOk
  1571 00001213 7502                    	jnz SD00A6
  1572 00001215 EB18                    	jmp SDEnd009A
  1573                                  SD00A6:
  1574 00001217 E8(00000000)            	call pOutLI
  1575 0000121C 4809C9                  	or rPOk, rPOk
  1576 0000121F 7502                    	jnz SD00A7
  1577 00001221 EB0C                    	jmp SDEnd009A
  1578                                  SD00A7:
  1579 00001223 E8(00000000)            	call pOut
  1580 00001228 062E303030222C          	 db 0x06, '.000",'
  1581                                  SDEnd009A:
  1582 0000122F E8(00000000)            	call cAndEpilog
  1583                                  ADEnd0099:
  1584 00001234 E8(00000000)            	call cDrop
  1585 00001239 4831C9                  	xor rPOk, rPOk
  1586 0000123C 48FFC1                  	inc rPOk
  1587 0000123F 4809C9                  	or rPOk, rPOk
  1588 00001242 7505                    	jnz SD00A8
  1589 00001244 E9E8270000              	jmp SDEnd0075
  1590                                  SD00A8:
  1591 00001249 E8(00000000)            	call cPush
  1592 0000124E E859EEFFFF              	call IsBit
  1593 00001253 0800000000000000        	 dq 8
  1594 0000125B 4809C9                  	or rPOk, rPOk
  1595 0000125E 7502                    	jnz SD00A9
  1596 00001260 EB23                    	jmp SDEnd00A9
  1597                                  SD00A9:
  1598 00001262 E8(00000000)            	call pOut
  1599 00001267 0E0A09224230382209-     	 db 0x0E, 0x0a, 0x09, '"B08"				: "'
  1599 00001270 0909093A2022       
  1600 00001276 4809C9                  	or rPOk, rPOk
  1601 00001279 7502                    	jnz SD00AA
  1602 0000127B EB08                    	jmp SDEnd00A9
  1603                                  SD00AA:
  1604 0000127D E8(00000000)            	call pOut
  1605 00001282 02222C                  	 db 0x02, '",'
  1606                                  SDEnd00A9:
  1607 00001285 E8(00000000)            	call cDrop
  1608 0000128A 4831C9                  	xor rPOk, rPOk
  1609 0000128D 48FFC1                  	inc rPOk
  1610 00001290 4809C9                  	or rPOk, rPOk
  1611 00001293 7505                    	jnz SD00AB
  1612 00001295 E997270000              	jmp SDEnd0075
  1613                                  SD00AB:
  1614 0000129A E8(00000000)            	call cPush
  1615 0000129F E808EEFFFF              	call IsBit
  1616 000012A4 0900000000000000        	 dq 9
  1617 000012AC 4809C9                  	or rPOk, rPOk
  1618 000012AF 7502                    	jnz SD00AC
  1619 000012B1 EB23                    	jmp SDEnd00AC
  1620                                  SD00AC:
  1621 000012B3 E8(00000000)            	call pOut
  1622 000012B8 0E0A09224230392209-     	 db 0x0E, 0x0a, 0x09, '"B09"				: "'
  1622 000012C1 0909093A2022       
  1623 000012C7 4809C9                  	or rPOk, rPOk
  1624 000012CA 7502                    	jnz SD00AD
  1625 000012CC EB08                    	jmp SDEnd00AC
  1626                                  SD00AD:
  1627 000012CE E8(00000000)            	call pOut
  1628 000012D3 02222C                  	 db 0x02, '",'
  1629                                  SDEnd00AC:
  1630 000012D6 E8(00000000)            	call cDrop
  1631 000012DB 4831C9                  	xor rPOk, rPOk
  1632 000012DE 48FFC1                  	inc rPOk
  1633 000012E1 4809C9                  	or rPOk, rPOk
  1634 000012E4 7505                    	jnz SD00AE
  1635 000012E6 E946270000              	jmp SDEnd0075
  1636                                  SD00AE:
  1637 000012EB E8(00000000)            	call cPush
  1638 000012F0 E8B7EDFFFF              	call IsBit
  1639 000012F5 0A00000000000000        	 dq 10
  1640 000012FD 4809C9                  	or rPOk, rPOk
  1641 00001300 7502                    	jnz SD00AF
  1642 00001302 EB23                    	jmp SDEnd00AF
  1643                                  SD00AF:
  1644 00001304 E8(00000000)            	call pOut
  1645 00001309 0E0A09224231302209-     	 db 0x0E, 0x0a, 0x09, '"B10"				: "'
  1645 00001312 0909093A2022       
  1646 00001318 4809C9                  	or rPOk, rPOk
  1647 0000131B 7502                    	jnz SD00B0
  1648 0000131D EB08                    	jmp SDEnd00AF
  1649                                  SD00B0:
  1650 0000131F E8(00000000)            	call pOut
  1651 00001324 02222C                  	 db 0x02, '",'
  1652                                  SDEnd00AF:
  1653 00001327 E8(00000000)            	call cDrop
  1654 0000132C 4831C9                  	xor rPOk, rPOk
  1655 0000132F 48FFC1                  	inc rPOk
  1656 00001332 4809C9                  	or rPOk, rPOk
  1657 00001335 7505                    	jnz SD00B1
  1658 00001337 E9F5260000              	jmp SDEnd0075
  1659                                  SD00B1:
  1660 0000133C E8(00000000)            	call cPush
  1661 00001341 E866EDFFFF              	call IsBit
  1662 00001346 0B00000000000000        	 dq 11
  1663 0000134E 4809C9                  	or rPOk, rPOk
  1664 00001351 7502                    	jnz SD00B2
  1665 00001353 EB5D                    	jmp SDEnd00B2
  1666                                  SD00B2:
  1667 00001355 E8(00000000)            	call cPush
  1668 0000135A 41BD06000000            	mov rFactCnt, 6
  1669 00001360 4D09ED                  	or rFactCnt, rFactCnt
  1670 00001363 740E                    	jz FacEnd00B3
  1671                                  FacRep00B3:
  1672 00001365 E8(00000000)            	call n
  1673 0000136A 49FFCD                  	dec rFactCnt
  1674 0000136D E304                    	jrcxz FacEnd00B3
  1675 0000136F 7402                    	jz FacEnd00B3
  1676 00001371 EBF2                    	jmp FacRep00B3
  1677                                  FacEnd00B3:
  1678 00001373 E8(00000000)            	call cDrop
  1679 00001378 4809C9                  	or rPOk, rPOk
  1680 0000137B 7502                    	jnz SD00B4
  1681 0000137D EB33                    	jmp SDEnd00B2
  1682                                  SD00B4:
  1683 0000137F E8(00000000)            	call pOut
  1684 00001384 120A09224231312053-     	 db 0x12, 0x0a, 0x09, '"B11 STAN"			: "'
  1684 0000138D 54414E220909093A20-
  1684 00001396 22                 
  1685 00001397 4809C9                  	or rPOk, rPOk
  1686 0000139A 7502                    	jnz SD00B5
  1687 0000139C EB14                    	jmp SDEnd00B2
  1688                                  SD00B5:
  1689 0000139E E8(00000000)            	call pOutLI
  1690 000013A3 4809C9                  	or rPOk, rPOk
  1691 000013A6 7502                    	jnz SD00B6
  1692 000013A8 EB08                    	jmp SDEnd00B2
  1693                                  SD00B6:
  1694 000013AA E8(00000000)            	call pOut
  1695 000013AF 02222C                  	 db 0x02, '",'
  1696                                  SDEnd00B2:
  1697 000013B2 E8(00000000)            	call cDrop
  1698 000013B7 4831C9                  	xor rPOk, rPOk
  1699 000013BA 48FFC1                  	inc rPOk
  1700 000013BD 4809C9                  	or rPOk, rPOk
  1701 000013C0 7505                    	jnz SD00B7
  1702 000013C2 E96A260000              	jmp SDEnd0075
  1703                                  SD00B7:
  1704 000013C7 E8(00000000)            	call cPush
  1705 000013CC E8DBECFFFF              	call IsBit
  1706 000013D1 0C00000000000000        	 dq 12
  1707 000013D9 4809C9                  	or rPOk, rPOk
  1708 000013DC 7502                    	jnz SD00B8
  1709 000013DE EB53                    	jmp SDEnd00B8
  1710                                  SD00B8:
  1711 000013E0 E8(00000000)            	call cPush
  1712 000013E5 41BD0C000000            	mov rFactCnt, 12
  1713 000013EB 4D09ED                  	or rFactCnt, rFactCnt
  1714 000013EE 740E                    	jz FacEnd00B9
  1715                                  FacRep00B9:
  1716 000013F0 E8(00000000)            	call n
  1717 000013F5 49FFCD                  	dec rFactCnt
  1718 000013F8 E304                    	jrcxz FacEnd00B9
  1719 000013FA 7402                    	jz FacEnd00B9
  1720 000013FC EBF2                    	jmp FacRep00B9
  1721                                  FacEnd00B9:
  1722 000013FE E8(00000000)            	call cDrop
  1723 00001403 4809C9                  	or rPOk, rPOk
  1724 00001406 7502                    	jnz SD00BA
  1725 00001408 EB29                    	jmp SDEnd00B8
  1726                                  SD00BA:
  1727 0000140A E8(00000000)            	call pOut
  1728 0000140F 230A09224231322044-     	 db 0x23, 0x0a, 0x09, '"B12 Date time transaction"	: "20'
  1728 00001418 6174652074696D6520-
  1728 00001421 7472616E7361637469-
  1728 0000142A 6F6E22093A20223230 
  1729                                  SDEnd00B8:
  1730 00001433 4809C9                  	or rPOk, rPOk
  1731 00001436 7505                    	jnz AD00BB
  1732 00001438 E901010000              	jmp ADEnd00BB
  1733                                  AD00BB:
  1734 0000143D E8(00000000)            	call cAndProlog
  1735 00001442 E878EDFFFF              	call YY
  1736 00001447 4809C9                  	or rPOk, rPOk
  1737 0000144A 7505                    	jnz SD00BC
  1738 0000144C E9E8000000              	jmp SDEnd00BC
  1739                                  SD00BC:
  1740 00001451 E8(00000000)            	call pOutLI
  1741 00001456 4809C9                  	or rPOk, rPOk
  1742 00001459 7505                    	jnz SD00BD
  1743 0000145B E9D9000000              	jmp SDEnd00BC
  1744                                  SD00BD:
  1745 00001460 E8(00000000)            	call pOut
  1746 00001465 012D                    	 db 0x01, '-'
  1747 00001467 4809C9                  	or rPOk, rPOk
  1748 0000146A 7505                    	jnz SD00BE
  1749 0000146C E9C8000000              	jmp SDEnd00BC
  1750                                  SD00BE:
  1751 00001471 E8A4EEFFFF              	call MM
  1752 00001476 4809C9                  	or rPOk, rPOk
  1753 00001479 7505                    	jnz SD00BF
  1754 0000147B E9B9000000              	jmp SDEnd00BC
  1755                                  SD00BF:
  1756 00001480 E8(00000000)            	call pOutLI
  1757 00001485 4809C9                  	or rPOk, rPOk
  1758 00001488 7505                    	jnz SD00C0
  1759 0000148A E9AA000000              	jmp SDEnd00BC
  1760                                  SD00C0:
  1761 0000148F E8(00000000)            	call pOut
  1762 00001494 012D                    	 db 0x01, '-'
  1763 00001496 4809C9                  	or rPOk, rPOk
  1764 00001499 7505                    	jnz SD00C1
  1765 0000149B E999000000              	jmp SDEnd00BC
  1766                                  SD00C1:
  1767 000014A0 E83EEDFFFF              	call DD
  1768 000014A5 4809C9                  	or rPOk, rPOk
  1769 000014A8 7505                    	jnz SD00C2
  1770 000014AA E98A000000              	jmp SDEnd00BC
  1771                                  SD00C2:
  1772 000014AF E8(00000000)            	call pOutLI
  1773 000014B4 4809C9                  	or rPOk, rPOk
  1774 000014B7 7502                    	jnz SD00C3
  1775 000014B9 EB7E                    	jmp SDEnd00BC
  1776                                  SD00C3:
  1777 000014BB E8(00000000)            	call pOut
  1778 000014C0 0154                    	 db 0x01, 'T'
  1779 000014C2 4809C9                  	or rPOk, rPOk
  1780 000014C5 7502                    	jnz SD00C4
  1781 000014C7 EB70                    	jmp SDEnd00BC
  1782                                  SD00C4:
  1783 000014C9 E892EDFFFF              	call hh
  1784 000014CE 4809C9                  	or rPOk, rPOk
  1785 000014D1 7502                    	jnz SD00C5
  1786 000014D3 EB64                    	jmp SDEnd00BC
  1787                                  SD00C5:
  1788 000014D5 E8(00000000)            	call pOutLI
  1789 000014DA 4809C9                  	or rPOk, rPOk
  1790 000014DD 7502                    	jnz SD00C6
  1791 000014DF EB58                    	jmp SDEnd00BC
  1792                                  SD00C6:
  1793 000014E1 E8(00000000)            	call pOut
  1794 000014E6 013A                    	 db 0x01, ':'
  1795 000014E8 4809C9                  	or rPOk, rPOk
  1796 000014EB 7502                    	jnz SD00C7
  1797 000014ED EB4A                    	jmp SDEnd00BC
  1798                                  SD00C7:
  1799 000014EF E867EEFFFF              	call mm
  1800 000014F4 4809C9                  	or rPOk, rPOk
  1801 000014F7 7502                    	jnz SD00C8
  1802 000014F9 EB3E                    	jmp SDEnd00BC
  1803                                  SD00C8:
  1804 000014FB E8(00000000)            	call pOutLI
  1805 00001500 4809C9                  	or rPOk, rPOk
  1806 00001503 7502                    	jnz SD00C9
  1807 00001505 EB32                    	jmp SDEnd00BC
  1808                                  SD00C9:
  1809 00001507 E8(00000000)            	call pOut
  1810 0000150C 013A                    	 db 0x01, ':'
  1811 0000150E 4809C9                  	or rPOk, rPOk
  1812 00001511 7502                    	jnz SD00CA
  1813 00001513 EB24                    	jmp SDEnd00BC
  1814                                  SD00CA:
  1815 00001515 E8A6EEFFFF              	call nss
  1816 0000151A 4809C9                  	or rPOk, rPOk
  1817 0000151D 7502                    	jnz SD00CB
  1818 0000151F EB18                    	jmp SDEnd00BC
  1819                                  SD00CB:
  1820 00001521 E8(00000000)            	call pOutLI
  1821 00001526 4809C9                  	or rPOk, rPOk
  1822 00001529 7502                    	jnz SD00CC
  1823 0000152B EB0C                    	jmp SDEnd00BC
  1824                                  SD00CC:
  1825 0000152D E8(00000000)            	call pOut
  1826 00001532 062E303030222C          	 db 0x06, '.000",'
  1827                                  SDEnd00BC:
  1828 00001539 E8(00000000)            	call cAndEpilog
  1829                                  ADEnd00BB:
  1830 0000153E E8(00000000)            	call cDrop
  1831 00001543 4831C9                  	xor rPOk, rPOk
  1832 00001546 48FFC1                  	inc rPOk
  1833 00001549 4809C9                  	or rPOk, rPOk
  1834 0000154C 7505                    	jnz SD00CD
  1835 0000154E E9DE240000              	jmp SDEnd0075
  1836                                  SD00CD:
  1837 00001553 E8(00000000)            	call cPush
  1838 00001558 E84FEBFFFF              	call IsBit
  1839 0000155D 0D00000000000000        	 dq 13
  1840 00001565 4809C9                  	or rPOk, rPOk
  1841 00001568 7502                    	jnz SD00CE
  1842 0000156A EB59                    	jmp SDEnd00CE
  1843                                  SD00CE:
  1844 0000156C E8(00000000)            	call cPush
  1845 00001571 41BD04000000            	mov rFactCnt, 4
  1846 00001577 4D09ED                  	or rFactCnt, rFactCnt
  1847 0000157A 740E                    	jz FacEnd00CF
  1848                                  FacRep00CF:
  1849 0000157C E8(00000000)            	call n
  1850 00001581 49FFCD                  	dec rFactCnt
  1851 00001584 E304                    	jrcxz FacEnd00CF
  1852 00001586 7402                    	jz FacEnd00CF
  1853 00001588 EBF2                    	jmp FacRep00CF
  1854                                  FacEnd00CF:
  1855 0000158A E8(00000000)            	call cDrop
  1856 0000158F 4809C9                  	or rPOk, rPOk
  1857 00001592 7502                    	jnz SD00D0
  1858 00001594 EB2F                    	jmp SDEnd00CE
  1859                                  SD00D0:
  1860 00001596 E8(00000000)            	call pOut
  1861 0000159B 0E0A09224231332209-     	 db 0x0E, 0x0a, 0x09, '"B13"				: "'
  1861 000015A4 0909093A2022       
  1862 000015AA 4809C9                  	or rPOk, rPOk
  1863 000015AD 7502                    	jnz SD00D1
  1864 000015AF EB14                    	jmp SDEnd00CE
  1865                                  SD00D1:
  1866 000015B1 E8(00000000)            	call pOutLI
  1867 000015B6 4809C9                  	or rPOk, rPOk
  1868 000015B9 7502                    	jnz SD00D2
  1869 000015BB EB08                    	jmp SDEnd00CE
  1870                                  SD00D2:
  1871 000015BD E8(00000000)            	call pOut
  1872 000015C2 02222C                  	 db 0x02, '",'
  1873                                  SDEnd00CE:
  1874 000015C5 E8(00000000)            	call cDrop
  1875 000015CA 4831C9                  	xor rPOk, rPOk
  1876 000015CD 48FFC1                  	inc rPOk
  1877 000015D0 4809C9                  	or rPOk, rPOk
  1878 000015D3 7505                    	jnz SD00D3
  1879 000015D5 E957240000              	jmp SDEnd0075
  1880                                  SD00D3:
  1881 000015DA E8(00000000)            	call cPush
  1882 000015DF E8C8EAFFFF              	call IsBit
  1883 000015E4 0E00000000000000        	 dq 14
  1884 000015EC 4809C9                  	or rPOk, rPOk
  1885 000015EF 7502                    	jnz SD00D4
  1886 000015F1 EB59                    	jmp SDEnd00D4
  1887                                  SD00D4:
  1888 000015F3 E8(00000000)            	call cPush
  1889 000015F8 41BD04000000            	mov rFactCnt, 4
  1890 000015FE 4D09ED                  	or rFactCnt, rFactCnt
  1891 00001601 740E                    	jz FacEnd00D5
  1892                                  FacRep00D5:
  1893 00001603 E8(00000000)            	call n
  1894 00001608 49FFCD                  	dec rFactCnt
  1895 0000160B E304                    	jrcxz FacEnd00D5
  1896 0000160D 7402                    	jz FacEnd00D5
  1897 0000160F EBF2                    	jmp FacRep00D5
  1898                                  FacEnd00D5:
  1899 00001611 E8(00000000)            	call cDrop
  1900 00001616 4809C9                  	or rPOk, rPOk
  1901 00001619 7502                    	jnz SD00D6
  1902 0000161B EB2F                    	jmp SDEnd00D4
  1903                                  SD00D6:
  1904 0000161D E8(00000000)            	call pOut
  1905 00001622 0E0A09224231342209-     	 db 0x0E, 0x0a, 0x09, '"B14"				: "'
  1905 0000162B 0909093A2022       
  1906 00001631 4809C9                  	or rPOk, rPOk
  1907 00001634 7502                    	jnz SD00D7
  1908 00001636 EB14                    	jmp SDEnd00D4
  1909                                  SD00D7:
  1910 00001638 E8(00000000)            	call pOutLI
  1911 0000163D 4809C9                  	or rPOk, rPOk
  1912 00001640 7502                    	jnz SD00D8
  1913 00001642 EB08                    	jmp SDEnd00D4
  1914                                  SD00D8:
  1915 00001644 E8(00000000)            	call pOut
  1916 00001649 02222C                  	 db 0x02, '",'
  1917                                  SDEnd00D4:
  1918 0000164C E8(00000000)            	call cDrop
  1919 00001651 4831C9                  	xor rPOk, rPOk
  1920 00001654 48FFC1                  	inc rPOk
  1921 00001657 4809C9                  	or rPOk, rPOk
  1922 0000165A 7505                    	jnz SD00D9
  1923 0000165C E9D0230000              	jmp SDEnd0075
  1924                                  SD00D9:
  1925 00001661 E8(00000000)            	call cPush
  1926 00001666 E841EAFFFF              	call IsBit
  1927 0000166B 0F00000000000000        	 dq 15
  1928 00001673 4809C9                  	or rPOk, rPOk
  1929 00001676 7502                    	jnz SD00DA
  1930 00001678 EB67                    	jmp SDEnd00DA
  1931                                  SD00DA:
  1932 0000167A E8(00000000)            	call cPush
  1933 0000167F 41BD06000000            	mov rFactCnt, 6
  1934 00001685 4D09ED                  	or rFactCnt, rFactCnt
  1935 00001688 740E                    	jz FacEnd00DB
  1936                                  FacRep00DB:
  1937 0000168A E8(00000000)            	call n
  1938 0000168F 49FFCD                  	dec rFactCnt
  1939 00001692 E304                    	jrcxz FacEnd00DB
  1940 00001694 7402                    	jz FacEnd00DB
  1941 00001696 EBF2                    	jmp FacRep00DB
  1942                                  FacEnd00DB:
  1943 00001698 E8(00000000)            	call cDrop
  1944 0000169D 4809C9                  	or rPOk, rPOk
  1945 000016A0 7502                    	jnz SD00DC
  1946 000016A2 EB3D                    	jmp SDEnd00DA
  1947                                  SD00DC:
  1948 000016A4 E8(00000000)            	call pOut
  1949 000016A9 1C0A09224231352053-     	 db 0x1C, 0x0a, 0x09, '"B15 Settlement date"		: "'
  1949 000016B2 6574746C656D656E74-
  1949 000016BB 20646174652209093A-
  1949 000016C4 2022               
  1950 000016C6 4809C9                  	or rPOk, rPOk
  1951 000016C9 7502                    	jnz SD00DD
  1952 000016CB EB14                    	jmp SDEnd00DA
  1953                                  SD00DD:
  1954 000016CD E8(00000000)            	call pOutLI
  1955 000016D2 4809C9                  	or rPOk, rPOk
  1956 000016D5 7502                    	jnz SD00DE
  1957 000016D7 EB08                    	jmp SDEnd00DA
  1958                                  SD00DE:
  1959 000016D9 E8(00000000)            	call pOut
  1960 000016DE 02222C                  	 db 0x02, '",'
  1961                                  SDEnd00DA:
  1962 000016E1 E8(00000000)            	call cDrop
  1963 000016E6 4831C9                  	xor rPOk, rPOk
  1964 000016E9 48FFC1                  	inc rPOk
  1965 000016EC 4809C9                  	or rPOk, rPOk
  1966 000016EF 7505                    	jnz SD00DF
  1967 000016F1 E93B230000              	jmp SDEnd0075
  1968                                  SD00DF:
  1969 000016F6 E8(00000000)            	call cPush
  1970 000016FB E8ACE9FFFF              	call IsBit
  1971 00001700 1000000000000000        	 dq 16
  1972 00001708 4809C9                  	or rPOk, rPOk
  1973 0000170B 7502                    	jnz SD00E0
  1974 0000170D EB23                    	jmp SDEnd00E0
  1975                                  SD00E0:
  1976 0000170F E8(00000000)            	call pOut
  1977 00001714 0E0A09224231362209-     	 db 0x0E, 0x0a, 0x09, '"B16"				: "'
  1977 0000171D 0909093A2022       
  1978 00001723 4809C9                  	or rPOk, rPOk
  1979 00001726 7502                    	jnz SD00E1
  1980 00001728 EB08                    	jmp SDEnd00E0
  1981                                  SD00E1:
  1982 0000172A E8(00000000)            	call pOut
  1983 0000172F 02222C                  	 db 0x02, '",'
  1984                                  SDEnd00E0:
  1985 00001732 E8(00000000)            	call cDrop
  1986 00001737 4831C9                  	xor rPOk, rPOk
  1987 0000173A 48FFC1                  	inc rPOk
  1988 0000173D 4809C9                  	or rPOk, rPOk
  1989 00001740 7505                    	jnz SD00E2
  1990 00001742 E9EA220000              	jmp SDEnd0075
  1991                                  SD00E2:
  1992 00001747 E8(00000000)            	call cPush
  1993 0000174C E85BE9FFFF              	call IsBit
  1994 00001751 1100000000000000        	 dq 17
  1995 00001759 4809C9                  	or rPOk, rPOk
  1996 0000175C 7502                    	jnz SD00E3
  1997 0000175E EB23                    	jmp SDEnd00E3
  1998                                  SD00E3:
  1999 00001760 E8(00000000)            	call pOut
  2000 00001765 0E0A09224231372209-     	 db 0x0E, 0x0a, 0x09, '"B17"				: "'
  2000 0000176E 0909093A2022       
  2001 00001774 4809C9                  	or rPOk, rPOk
  2002 00001777 7502                    	jnz SD00E4
  2003 00001779 EB08                    	jmp SDEnd00E3
  2004                                  SD00E4:
  2005 0000177B E8(00000000)            	call pOut
  2006 00001780 02222C                  	 db 0x02, '",'
  2007                                  SDEnd00E3:
  2008 00001783 E8(00000000)            	call cDrop
  2009 00001788 4831C9                  	xor rPOk, rPOk
  2010 0000178B 48FFC1                  	inc rPOk
  2011 0000178E 4809C9                  	or rPOk, rPOk
  2012 00001791 7505                    	jnz SD00E5
  2013 00001793 E999220000              	jmp SDEnd0075
  2014                                  SD00E5:
  2015 00001798 E8(00000000)            	call cPush
  2016 0000179D E80AE9FFFF              	call IsBit
  2017 000017A2 1200000000000000        	 dq 18
  2018 000017AA 4809C9                  	or rPOk, rPOk
  2019 000017AD 7502                    	jnz SD00E6
  2020 000017AF EB67                    	jmp SDEnd00E6
  2021                                  SD00E6:
  2022 000017B1 E8(00000000)            	call cPush
  2023 000017B6 41BD04000000            	mov rFactCnt, 4
  2024 000017BC 4D09ED                  	or rFactCnt, rFactCnt
  2025 000017BF 740E                    	jz FacEnd00E7
  2026                                  FacRep00E7:
  2027 000017C1 E8(00000000)            	call n
  2028 000017C6 49FFCD                  	dec rFactCnt
  2029 000017C9 E304                    	jrcxz FacEnd00E7
  2030 000017CB 7402                    	jz FacEnd00E7
  2031 000017CD EBF2                    	jmp FacRep00E7
  2032                                  FacEnd00E7:
  2033 000017CF E8(00000000)            	call cDrop
  2034 000017D4 4809C9                  	or rPOk, rPOk
  2035 000017D7 7502                    	jnz SD00E8
  2036 000017D9 EB3D                    	jmp SDEnd00E6
  2037                                  SD00E8:
  2038 000017DB E8(00000000)            	call pOut
  2039 000017E0 1C0A09224231382072-     	 db 0x1C, 0x0a, 0x09, '"B18 reference number"	: "'
  2039 000017E9 65666572656E636520-
  2039 000017F2 6E756D62657222093A-
  2039 000017FB 2022               
  2040 000017FD 4809C9                  	or rPOk, rPOk
  2041 00001800 7502                    	jnz SD00E9
  2042 00001802 EB14                    	jmp SDEnd00E6
  2043                                  SD00E9:
  2044 00001804 E8(00000000)            	call pOutLI
  2045 00001809 4809C9                  	or rPOk, rPOk
  2046 0000180C 7502                    	jnz SD00EA
  2047 0000180E EB08                    	jmp SDEnd00E6
  2048                                  SD00EA:
  2049 00001810 E8(00000000)            	call pOut
  2050 00001815 02222C                  	 db 0x02, '",'
  2051                                  SDEnd00E6:
  2052 00001818 E8(00000000)            	call cDrop
  2053 0000181D 4831C9                  	xor rPOk, rPOk
  2054 00001820 48FFC1                  	inc rPOk
  2055 00001823 4809C9                  	or rPOk, rPOk
  2056 00001826 7505                    	jnz SD00EB
  2057 00001828 E904220000              	jmp SDEnd0075
  2058                                  SD00EB:
  2059 0000182D E8(00000000)            	call cPush
  2060 00001832 E875E8FFFF              	call IsBit
  2061 00001837 1300000000000000        	 dq 19
  2062 0000183F 4809C9                  	or rPOk, rPOk
  2063 00001842 7502                    	jnz SD00EC
  2064 00001844 EB23                    	jmp SDEnd00EC
  2065                                  SD00EC:
  2066 00001846 E8(00000000)            	call pOut
  2067 0000184B 0E0A09224231392209-     	 db 0x0E, 0x0a, 0x09, '"B19"				: "'
  2067 00001854 0909093A2022       
  2068 0000185A 4809C9                  	or rPOk, rPOk
  2069 0000185D 7502                    	jnz SD00ED
  2070 0000185F EB08                    	jmp SDEnd00EC
  2071                                  SD00ED:
  2072 00001861 E8(00000000)            	call pOut
  2073 00001866 02222C                  	 db 0x02, '",'
  2074                                  SDEnd00EC:
  2075 00001869 E8(00000000)            	call cDrop
  2076 0000186E 4831C9                  	xor rPOk, rPOk
  2077 00001871 48FFC1                  	inc rPOk
  2078 00001874 4809C9                  	or rPOk, rPOk
  2079 00001877 7505                    	jnz SD00EE
  2080 00001879 E9B3210000              	jmp SDEnd0075
  2081                                  SD00EE:
  2082 0000187E E8(00000000)            	call cPush
  2083 00001883 E824E8FFFF              	call IsBit
  2084 00001888 1400000000000000        	 dq 20
  2085 00001890 4809C9                  	or rPOk, rPOk
  2086 00001893 7502                    	jnz SD00EF
  2087 00001895 EB65                    	jmp SDEnd00EF
  2088                                  SD00EF:
  2089 00001897 E8(00000000)            	call cPush
  2090 0000189C 41BD03000000            	mov rFactCnt, 3
  2091 000018A2 4D09ED                  	or rFactCnt, rFactCnt
  2092 000018A5 740E                    	jz FacEnd00F0
  2093                                  FacRep00F0:
  2094 000018A7 E8(00000000)            	call n
  2095 000018AC 49FFCD                  	dec rFactCnt
  2096 000018AF E304                    	jrcxz FacEnd00F0
  2097 000018B1 7402                    	jz FacEnd00F0
  2098 000018B3 EBF2                    	jmp FacRep00F0
  2099                                  FacEnd00F0:
  2100 000018B5 E8(00000000)            	call cDrop
  2101 000018BA 4809C9                  	or rPOk, rPOk
  2102 000018BD 7502                    	jnz SD00F1
  2103 000018BF EB3B                    	jmp SDEnd00EF
  2104                                  SD00F1:
  2105 000018C1 E8(00000000)            	call pOut
  2106 000018C6 1A0A0922423230204C-     	 db 0x1A, 0x0a, 0x09, '"B20 Language code"		: "'
  2106 000018CF 616E67756167652063-
  2106 000018D8 6F64652209093A2022 
  2107 000018E1 4809C9                  	or rPOk, rPOk
  2108 000018E4 7502                    	jnz SD00F2
  2109 000018E6 EB14                    	jmp SDEnd00EF
  2110                                  SD00F2:
  2111 000018E8 E8(00000000)            	call pOutLI
  2112 000018ED 4809C9                  	or rPOk, rPOk
  2113 000018F0 7502                    	jnz SD00F3
  2114 000018F2 EB08                    	jmp SDEnd00EF
  2115                                  SD00F3:
  2116 000018F4 E8(00000000)            	call pOut
  2117 000018F9 02222C                  	 db 0x02, '",'
  2118                                  SDEnd00EF:
  2119 000018FC E8(00000000)            	call cDrop
  2120 00001901 4831C9                  	xor rPOk, rPOk
  2121 00001904 48FFC1                  	inc rPOk
  2122 00001907 4809C9                  	or rPOk, rPOk
  2123 0000190A 7505                    	jnz SD00F4
  2124 0000190C E920210000              	jmp SDEnd0075
  2125                                  SD00F4:
  2126 00001911 E8(00000000)            	call cPush
  2127 00001916 E891E7FFFF              	call IsBit
  2128 0000191B 1500000000000000        	 dq 21
  2129 00001923 4809C9                  	or rPOk, rPOk
  2130 00001926 7502                    	jnz SD00F5
  2131 00001928 EB23                    	jmp SDEnd00F5
  2132                                  SD00F5:
  2133 0000192A E8(00000000)            	call pOut
  2134 0000192F 0E0A09224232312209-     	 db 0x0E, 0x0a, 0x09, '"B21"				: "'
  2134 00001938 0909093A2022       
  2135 0000193E 4809C9                  	or rPOk, rPOk
  2136 00001941 7502                    	jnz SD00F6
  2137 00001943 EB08                    	jmp SDEnd00F5
  2138                                  SD00F6:
  2139 00001945 E8(00000000)            	call pOut
  2140 0000194A 02222C                  	 db 0x02, '",'
  2141                                  SDEnd00F5:
  2142 0000194D E8(00000000)            	call cDrop
  2143 00001952 4831C9                  	xor rPOk, rPOk
  2144 00001955 48FFC1                  	inc rPOk
  2145 00001958 4809C9                  	or rPOk, rPOk
  2146 0000195B 7505                    	jnz SD00F7
  2147 0000195D E9CF200000              	jmp SDEnd0075
  2148                                  SD00F7:
  2149 00001962 E8(00000000)            	call cPush
  2150 00001967 E840E7FFFF              	call IsBit
  2151 0000196C 1600000000000000        	 dq 22
  2152 00001974 4809C9                  	or rPOk, rPOk
  2153 00001977 7502                    	jnz SD00F8
  2154 00001979 EB4B                    	jmp SDEnd00F8
  2155                                  SD00F8:
  2156 0000197B E8(00000000)            	call cPush
  2157 00001980 41BD0C000000            	mov rFactCnt, 12
  2158 00001986 4D09ED                  	or rFactCnt, rFactCnt
  2159 00001989 740E                    	jz FacEnd00F9
  2160                                  FacRep00F9:
  2161 0000198B E873E7FFFF              	call an
  2162 00001990 49FFCD                  	dec rFactCnt
  2163 00001993 E304                    	jrcxz FacEnd00F9
  2164 00001995 7402                    	jz FacEnd00F9
  2165 00001997 EBF2                    	jmp FacRep00F9
  2166                                  FacEnd00F9:
  2167 00001999 E8(00000000)            	call cDrop
  2168 0000199E 4809C9                  	or rPOk, rPOk
  2169 000019A1 7502                    	jnz SD00FA
  2170 000019A3 EB21                    	jmp SDEnd00F8
  2171                                  SD00FA:
  2172 000019A5 E8(00000000)            	call pOut
  2173 000019AA 1B0A09224232322050-     	 db 0x1B, 0x0a, 0x09, '"B22 POS data code" 		: {'
  2173 000019B3 4F5320646174612063-
  2173 000019BC 6F6465222009093A20-
  2173 000019C5 7B                 
  2174                                  SDEnd00F8:
  2175 000019C6 4809C9                  	or rPOk, rPOk
  2176 000019C9 7502                    	jnz AD00FB
  2177 000019CB EB0F                    	jmp ADEnd00FB
  2178                                  AD00FB:
  2179 000019CD E8(00000000)            	call cAndProlog
  2180 000019D2 E878390000              	call Bit22
  2181 000019D7 E8(00000000)            	call cAndEpilog
  2182                                  ADEnd00FB:
  2183 000019DC E8(00000000)            	call cDrop
  2184 000019E1 4831C9                  	xor rPOk, rPOk
  2185 000019E4 48FFC1                  	inc rPOk
  2186 000019E7 4809C9                  	or rPOk, rPOk
  2187 000019EA 7505                    	jnz SD00FC
  2188 000019EC E940200000              	jmp SDEnd0075
  2189                                  SD00FC:
  2190 000019F1 E8(00000000)            	call cPush
  2191 000019F6 E8B1E6FFFF              	call IsBit
  2192 000019FB 1700000000000000        	 dq 23
  2193 00001A03 4809C9                  	or rPOk, rPOk
  2194 00001A06 7502                    	jnz SD00FD
  2195 00001A08 EB2F                    	jmp SDEnd00FD
  2196                                  SD00FD:
  2197 00001A0A E8(00000000)            	call pOut
  2198 00001A0F 0E0A09224232332209-     	 db 0x0E, 0x0a, 0x09, '"B23"				: "'
  2198 00001A18 0909093A2022       
  2199 00001A1E 4809C9                  	or rPOk, rPOk
  2200 00001A21 7502                    	jnz SD00FE
  2201 00001A23 EB14                    	jmp SDEnd00FD
  2202                                  SD00FE:
  2203 00001A25 E8(00000000)            	call pOutLI
  2204 00001A2A 4809C9                  	or rPOk, rPOk
  2205 00001A2D 7502                    	jnz SD00FF
  2206 00001A2F EB08                    	jmp SDEnd00FD
  2207                                  SD00FF:
  2208 00001A31 E8(00000000)            	call pOut
  2209 00001A36 02222C                  	 db 0x02, '",'
  2210                                  SDEnd00FD:
  2211 00001A39 E8(00000000)            	call cDrop
  2212 00001A3E 4831C9                  	xor rPOk, rPOk
  2213 00001A41 48FFC1                  	inc rPOk
  2214 00001A44 4809C9                  	or rPOk, rPOk
  2215 00001A47 7505                    	jnz SD0100
  2216 00001A49 E9E31F0000              	jmp SDEnd0075
  2217                                  SD0100:
  2218 00001A4E E8(00000000)            	call cPush
  2219 00001A53 E854E6FFFF              	call IsBit
  2220 00001A58 1800000000000000        	 dq 24
  2221 00001A60 4809C9                  	or rPOk, rPOk
  2222 00001A63 7502                    	jnz SD0101
  2223 00001A65 EB66                    	jmp SDEnd0101
  2224                                  SD0101:
  2225 00001A67 E8(00000000)            	call cPush
  2226 00001A6C 41BD03000000            	mov rFactCnt, 3
  2227 00001A72 4D09ED                  	or rFactCnt, rFactCnt
  2228 00001A75 740E                    	jz FacEnd0102
  2229                                  FacRep0102:
  2230 00001A77 E8(00000000)            	call n
  2231 00001A7C 49FFCD                  	dec rFactCnt
  2232 00001A7F E304                    	jrcxz FacEnd0102
  2233 00001A81 7402                    	jz FacEnd0102
  2234 00001A83 EBF2                    	jmp FacRep0102
  2235                                  FacEnd0102:
  2236 00001A85 E8(00000000)            	call cDrop
  2237 00001A8A 4809C9                  	or rPOk, rPOk
  2238 00001A8D 7502                    	jnz SD0103
  2239 00001A8F EB3C                    	jmp SDEnd0101
  2240                                  SD0103:
  2241 00001A91 E8(00000000)            	call pOut
  2242 00001A96 1B0A09224232342046-     	 db 0x1B, 0x0a, 0x09, '"B24 Function code" 		: "'
  2242 00001A9F 756E6374696F6E2063-
  2242 00001AA8 6F6465222009093A20-
  2242 00001AB1 22                 
  2243 00001AB2 4809C9                  	or rPOk, rPOk
  2244 00001AB5 7502                    	jnz SD0104
  2245 00001AB7 EB14                    	jmp SDEnd0101
  2246                                  SD0104:
  2247 00001AB9 E8(00000000)            	call pOutLI
  2248 00001ABE 4809C9                  	or rPOk, rPOk
  2249 00001AC1 7502                    	jnz SD0105
  2250 00001AC3 EB08                    	jmp SDEnd0101
  2251                                  SD0105:
  2252 00001AC5 E8(00000000)            	call pOut
  2253 00001ACA 022028                  	 db 0x02, ' ('
  2254                                  SDEnd0101:
  2255 00001ACD 4809C9                  	or rPOk, rPOk
  2256 00001AD0 7502                    	jnz AD0106
  2257 00001AD2 EB1F                    	jmp ADEnd0106
  2258                                  AD0106:
  2259 00001AD4 E8(00000000)            	call cAndProlog
  2260 00001AD9 E87B4C0000              	call Bit24
  2261 00001ADE 4809C9                  	or rPOk, rPOk
  2262 00001AE1 7502                    	jnz SD0107
  2263 00001AE3 EB09                    	jmp SDEnd0107
  2264                                  SD0107:
  2265 00001AE5 E8(00000000)            	call pOut
  2266 00001AEA 0329222C                	 db 0x03, ')",'
  2267                                  SDEnd0107:
  2268 00001AEE E8(00000000)            	call cAndEpilog
  2269                                  ADEnd0106:
  2270 00001AF3 E8(00000000)            	call cDrop
  2271 00001AF8 4831C9                  	xor rPOk, rPOk
  2272 00001AFB 48FFC1                  	inc rPOk
  2273 00001AFE 4809C9                  	or rPOk, rPOk
  2274 00001B01 7505                    	jnz SD0108
  2275 00001B03 E9291F0000              	jmp SDEnd0075
  2276                                  SD0108:
  2277 00001B08 E8(00000000)            	call cPush
  2278 00001B0D E89AE5FFFF              	call IsBit
  2279 00001B12 1900000000000000        	 dq 25
  2280 00001B1A 4809C9                  	or rPOk, rPOk
  2281 00001B1D 7502                    	jnz SD0109
  2282 00001B1F EB6A                    	jmp SDEnd0109
  2283                                  SD0109:
  2284 00001B21 E8(00000000)            	call cPush
  2285 00001B26 41BD04000000            	mov rFactCnt, 4
  2286 00001B2C 4D09ED                  	or rFactCnt, rFactCnt
  2287 00001B2F 740E                    	jz FacEnd010A
  2288                                  FacRep010A:
  2289 00001B31 E8(00000000)            	call n
  2290 00001B36 49FFCD                  	dec rFactCnt
  2291 00001B39 E304                    	jrcxz FacEnd010A
  2292 00001B3B 7402                    	jz FacEnd010A
  2293 00001B3D EBF2                    	jmp FacRep010A
  2294                                  FacEnd010A:
  2295 00001B3F E8(00000000)            	call cDrop
  2296 00001B44 4809C9                  	or rPOk, rPOk
  2297 00001B47 7502                    	jnz SD010B
  2298 00001B49 EB40                    	jmp SDEnd0109
  2299                                  SD010B:
  2300 00001B4B E8(00000000)            	call pOut
  2301 00001B50 1F0A0922423235204D-     	 db 0x1F, 0x0a, 0x09, '"B25 Message reason code"	: "'
  2301 00001B59 657373616765207265-
  2301 00001B62 61736F6E20636F6465-
  2301 00001B6B 22093A2022         
  2302 00001B70 4809C9                  	or rPOk, rPOk
  2303 00001B73 7502                    	jnz SD010C
  2304 00001B75 EB14                    	jmp SDEnd0109
  2305                                  SD010C:
  2306 00001B77 E8(00000000)            	call pOutLI
  2307 00001B7C 4809C9                  	or rPOk, rPOk
  2308 00001B7F 7502                    	jnz SD010D
  2309 00001B81 EB08                    	jmp SDEnd0109
  2310                                  SD010D:
  2311 00001B83 E8(00000000)            	call pOut
  2312 00001B88 022028                  	 db 0x02, ' ('
  2313                                  SDEnd0109:
  2314 00001B8B 4809C9                  	or rPOk, rPOk
  2315 00001B8E 7502                    	jnz AD010E
  2316 00001B90 EB1F                    	jmp ADEnd010E
  2317                                  AD010E:
  2318 00001B92 E8(00000000)            	call cAndProlog
  2319 00001B97 E8FD520000              	call Bit25
  2320 00001B9C 4809C9                  	or rPOk, rPOk
  2321 00001B9F 7502                    	jnz SD010F
  2322 00001BA1 EB09                    	jmp SDEnd010F
  2323                                  SD010F:
  2324 00001BA3 E8(00000000)            	call pOut
  2325 00001BA8 0329222C                	 db 0x03, ')",'
  2326                                  SDEnd010F:
  2327 00001BAC E8(00000000)            	call cAndEpilog
  2328                                  ADEnd010E:
  2329 00001BB1 E8(00000000)            	call cDrop
  2330 00001BB6 4831C9                  	xor rPOk, rPOk
  2331 00001BB9 48FFC1                  	inc rPOk
  2332 00001BBC 4809C9                  	or rPOk, rPOk
  2333 00001BBF 7505                    	jnz SD0110
  2334 00001BC1 E96B1E0000              	jmp SDEnd0075
  2335                                  SD0110:
  2336 00001BC6 E8(00000000)            	call cPush
  2337 00001BCB E8DCE4FFFF              	call IsBit
  2338 00001BD0 1A00000000000000        	 dq 26
  2339 00001BD8 4809C9                  	or rPOk, rPOk
  2340 00001BDB 7502                    	jnz SD0111
  2341 00001BDD EB70                    	jmp SDEnd0111
  2342                                  SD0111:
  2343 00001BDF E8(00000000)            	call cPush
  2344 00001BE4 41BD04000000            	mov rFactCnt, 4
  2345 00001BEA 4D09ED                  	or rFactCnt, rFactCnt
  2346 00001BED 740E                    	jz FacEnd0112
  2347                                  FacRep0112:
  2348 00001BEF E8(00000000)            	call n
  2349 00001BF4 49FFCD                  	dec rFactCnt
  2350 00001BF7 E304                    	jrcxz FacEnd0112
  2351 00001BF9 7402                    	jz FacEnd0112
  2352 00001BFB EBF2                    	jmp FacRep0112
  2353                                  FacEnd0112:
  2354 00001BFD E8(00000000)            	call cDrop
  2355 00001C02 4809C9                  	or rPOk, rPOk
  2356 00001C05 7502                    	jnz SD0113
  2357 00001C07 EB46                    	jmp SDEnd0111
  2358                                  SD0113:
  2359 00001C09 E8(00000000)            	call pOut
  2360 00001C0E 250A09224232362043-     	 db 0x25, 0x0a, 0x09, '"B26 Card acceptor busnss code" : "'
  2360 00001C17 617264206163636570-
  2360 00001C20 746F72206275736E73-
  2360 00001C29 7320636F646522203A-
  2360 00001C32 2022               
  2361 00001C34 4809C9                  	or rPOk, rPOk
  2362 00001C37 7502                    	jnz SD0114
  2363 00001C39 EB14                    	jmp SDEnd0111
  2364                                  SD0114:
  2365 00001C3B E8(00000000)            	call pOutLI
  2366 00001C40 4809C9                  	or rPOk, rPOk
  2367 00001C43 7502                    	jnz SD0115
  2368 00001C45 EB08                    	jmp SDEnd0111
  2369                                  SD0115:
  2370 00001C47 E8(00000000)            	call pOut
  2371 00001C4C 022028                  	 db 0x02, ' ('
  2372                                  SDEnd0111:
  2373 00001C4F 4809C9                  	or rPOk, rPOk
  2374 00001C52 7502                    	jnz AD0116
  2375 00001C54 EB1F                    	jmp ADEnd0116
  2376                                  AD0116:
  2377 00001C56 E8(00000000)            	call cAndProlog
  2378 00001C5B E86B5D0000              	call Bit26
  2379 00001C60 4809C9                  	or rPOk, rPOk
  2380 00001C63 7502                    	jnz SD0117
  2381 00001C65 EB09                    	jmp SDEnd0117
  2382                                  SD0117:
  2383 00001C67 E8(00000000)            	call pOut
  2384 00001C6C 0329222C                	 db 0x03, ')",'
  2385                                  SDEnd0117:
  2386 00001C70 E8(00000000)            	call cAndEpilog
  2387                                  ADEnd0116:
  2388 00001C75 E8(00000000)            	call cDrop
  2389 00001C7A 4831C9                  	xor rPOk, rPOk
  2390 00001C7D 48FFC1                  	inc rPOk
  2391 00001C80 4809C9                  	or rPOk, rPOk
  2392 00001C83 7505                    	jnz SD0118
  2393 00001C85 E9A71D0000              	jmp SDEnd0075
  2394                                  SD0118:
  2395 00001C8A E8(00000000)            	call cPush
  2396 00001C8F E818E4FFFF              	call IsBit
  2397 00001C94 1B00000000000000        	 dq 27
  2398 00001C9C 4809C9                  	or rPOk, rPOk
  2399 00001C9F 7502                    	jnz SD0119
  2400 00001CA1 EB23                    	jmp SDEnd0119
  2401                                  SD0119:
  2402 00001CA3 E8(00000000)            	call pOut
  2403 00001CA8 0E0A09224232372220-     	 db 0x0E, 0x0a, 0x09, '"B27" 			: "'
  2403 00001CB1 0909093A2022       
  2404 00001CB7 4809C9                  	or rPOk, rPOk
  2405 00001CBA 7502                    	jnz SD011A
  2406 00001CBC EB08                    	jmp SDEnd0119
  2407                                  SD011A:
  2408 00001CBE E8(00000000)            	call pOut
  2409 00001CC3 02222C                  	 db 0x02, '",'
  2410                                  SDEnd0119:
  2411 00001CC6 E8(00000000)            	call cDrop
  2412 00001CCB 4831C9                  	xor rPOk, rPOk
  2413 00001CCE 48FFC1                  	inc rPOk
  2414 00001CD1 4809C9                  	or rPOk, rPOk
  2415 00001CD4 7505                    	jnz SD011B
  2416 00001CD6 E9561D0000              	jmp SDEnd0075
  2417                                  SD011B:
  2418 00001CDB E8(00000000)            	call cPush
  2419 00001CE0 E8C7E3FFFF              	call IsBit
  2420 00001CE5 1C00000000000000        	 dq 28
  2421 00001CED 4809C9                  	or rPOk, rPOk
  2422 00001CF0 7502                    	jnz SD011C
  2423 00001CF2 EB59                    	jmp SDEnd011C
  2424                                  SD011C:
  2425 00001CF4 E8(00000000)            	call cPush
  2426 00001CF9 41BD06000000            	mov rFactCnt, 6
  2427 00001CFF 4D09ED                  	or rFactCnt, rFactCnt
  2428 00001D02 740E                    	jz FacEnd011D
  2429                                  FacRep011D:
  2430 00001D04 E8(00000000)            	call n
  2431 00001D09 49FFCD                  	dec rFactCnt
  2432 00001D0C E304                    	jrcxz FacEnd011D
  2433 00001D0E 7402                    	jz FacEnd011D
  2434 00001D10 EBF2                    	jmp FacRep011D
  2435                                  FacEnd011D:
  2436 00001D12 E8(00000000)            	call cDrop
  2437 00001D17 4809C9                  	or rPOk, rPOk
  2438 00001D1A 7502                    	jnz SD011E
  2439 00001D1C EB2F                    	jmp SDEnd011C
  2440                                  SD011E:
  2441 00001D1E E8(00000000)            	call pOut
  2442 00001D23 0E0A09224232382209-     	 db 0x0E, 0x0a, 0x09, '"B28"				: "'
  2442 00001D2C 0909093A2022       
  2443 00001D32 4809C9                  	or rPOk, rPOk
  2444 00001D35 7502                    	jnz SD011F
  2445 00001D37 EB14                    	jmp SDEnd011C
  2446                                  SD011F:
  2447 00001D39 E8(00000000)            	call pOutLI
  2448 00001D3E 4809C9                  	or rPOk, rPOk
  2449 00001D41 7502                    	jnz SD0120
  2450 00001D43 EB08                    	jmp SDEnd011C
  2451                                  SD0120:
  2452 00001D45 E8(00000000)            	call pOut
  2453 00001D4A 02222C                  	 db 0x02, '",'
  2454                                  SDEnd011C:
  2455 00001D4D E8(00000000)            	call cDrop
  2456 00001D52 4831C9                  	xor rPOk, rPOk
  2457 00001D55 48FFC1                  	inc rPOk
  2458 00001D58 4809C9                  	or rPOk, rPOk
  2459 00001D5B 7505                    	jnz SD0121
  2460 00001D5D E9CF1C0000              	jmp SDEnd0075
  2461                                  SD0121:
  2462 00001D62 E8(00000000)            	call cPush
  2463 00001D67 E840E3FFFF              	call IsBit
  2464 00001D6C 1D00000000000000        	 dq 29
  2465 00001D74 4809C9                  	or rPOk, rPOk
  2466 00001D77 7502                    	jnz SD0122
  2467 00001D79 EB23                    	jmp SDEnd0122
  2468                                  SD0122:
  2469 00001D7B E8(00000000)            	call pOut
  2470 00001D80 0E0A09224232392209-     	 db 0x0E, 0x0a, 0x09, '"B29"				: "'
  2470 00001D89 0909093A2022       
  2471 00001D8F 4809C9                  	or rPOk, rPOk
  2472 00001D92 7502                    	jnz SD0123
  2473 00001D94 EB08                    	jmp SDEnd0122
  2474                                  SD0123:
  2475 00001D96 E8(00000000)            	call pOut
  2476 00001D9B 02222C                  	 db 0x02, '",'
  2477                                  SDEnd0122:
  2478 00001D9E E8(00000000)            	call cDrop
  2479 00001DA3 4831C9                  	xor rPOk, rPOk
  2480 00001DA6 48FFC1                  	inc rPOk
  2481 00001DA9 4809C9                  	or rPOk, rPOk
  2482 00001DAC 7505                    	jnz SD0124
  2483 00001DAE E97E1C0000              	jmp SDEnd0075
  2484                                  SD0124:
  2485 00001DB3 E8(00000000)            	call cPush
  2486 00001DB8 E8EFE2FFFF              	call IsBit
  2487 00001DBD 1E00000000000000        	 dq 30
  2488 00001DC5 4809C9                  	or rPOk, rPOk
  2489 00001DC8 7502                    	jnz SD0125
  2490 00001DCA EB5A                    	jmp SDEnd0125
  2491                                  SD0125:
  2492 00001DCC E8(00000000)            	call cPush
  2493 00001DD1 41BD18000000            	mov rFactCnt, 24
  2494 00001DD7 4D09ED                  	or rFactCnt, rFactCnt
  2495 00001DDA 740E                    	jz FacEnd0126
  2496                                  FacRep0126:
  2497 00001DDC E8(00000000)            	call n
  2498 00001DE1 49FFCD                  	dec rFactCnt
  2499 00001DE4 E304                    	jrcxz FacEnd0126
  2500 00001DE6 7402                    	jz FacEnd0126
  2501 00001DE8 EBF2                    	jmp FacRep0126
  2502                                  FacEnd0126:
  2503 00001DEA E8(00000000)            	call cDrop
  2504 00001DEF 4809C9                  	or rPOk, rPOk
  2505 00001DF2 7502                    	jnz SD0127
  2506 00001DF4 EB30                    	jmp SDEnd0125
  2507                                  SD0127:
  2508 00001DF6 E8(00000000)            	call pOut
  2509 00001DFB 1C0A0922423330204F-     	 db 0x1C, 0x0a, 0x09, '"B30 Original amount"		: "'
  2509 00001E04 726967696E616C2061-
  2509 00001E0D 6D6F756E742209093A-
  2509 00001E16 2022               
  2510 00001E18 4809C9                  	or rPOk, rPOk
  2511 00001E1B 7502                    	jnz SD0128
  2512 00001E1D EB07                    	jmp SDEnd0125
  2513                                  SD0128:
  2514 00001E1F E8(00000000)            	call pOut
  2515 00001E24 0128                    	 db 0x01, "("
  2516                                  SDEnd0125:
  2517 00001E26 4809C9                  	or rPOk, rPOk
  2518 00001E29 7505                    	jnz AD0129
  2519 00001E2B E99D000000              	jmp ADEnd0129
  2520                                  AD0129:
  2521 00001E30 E8(00000000)            	call cAndProlog
  2522 00001E35 E8(00000000)            	call cPush
  2523 00001E3A 41BD16000000            	mov rFactCnt, 22
  2524 00001E40 4D09ED                  	or rFactCnt, rFactCnt
  2525 00001E43 740E                    	jz FacEnd012A
  2526                                  FacRep012A:
  2527 00001E45 E8(00000000)            	call n
  2528 00001E4A 49FFCD                  	dec rFactCnt
  2529 00001E4D E304                    	jrcxz FacEnd012A
  2530 00001E4F 7402                    	jz FacEnd012A
  2531 00001E51 EBF2                    	jmp FacRep012A
  2532                                  FacEnd012A:
  2533 00001E53 E8(00000000)            	call cDrop
  2534 00001E58 4809C9                  	or rPOk, rPOk
  2535 00001E5B 7502                    	jnz SD012B
  2536 00001E5D EB69                    	jmp SDEnd012B
  2537                                  SD012B:
  2538 00001E5F E8(00000000)            	call pOutLITrim
  2539 00001E64 4809C9                  	or rPOk, rPOk
  2540 00001E67 7502                    	jnz SD012C
  2541 00001E69 EB5D                    	jmp SDEnd012B
  2542                                  SD012C:
  2543 00001E6B E8(00000000)            	call pOut
  2544 00001E70 012E                    	 db 0x01, "."
  2545 00001E72 4809C9                  	or rPOk, rPOk
  2546 00001E75 7502                    	jnz SD012D
  2547 00001E77 EB4F                    	jmp SDEnd012B
  2548                                  SD012D:
  2549 00001E79 E8(00000000)            	call cPush
  2550 00001E7E 41BD02000000            	mov rFactCnt, 2
  2551 00001E84 4D09ED                  	or rFactCnt, rFactCnt
  2552 00001E87 740E                    	jz FacEnd012E
  2553                                  FacRep012E:
  2554 00001E89 E8(00000000)            	call n
  2555 00001E8E 49FFCD                  	dec rFactCnt
  2556 00001E91 E304                    	jrcxz FacEnd012E
  2557 00001E93 7402                    	jz FacEnd012E
  2558 00001E95 EBF2                    	jmp FacRep012E
  2559                                  FacEnd012E:
  2560 00001E97 E8(00000000)            	call cDrop
  2561 00001E9C 4809C9                  	or rPOk, rPOk
  2562 00001E9F 7502                    	jnz SD012F
  2563 00001EA1 EB25                    	jmp SDEnd012B
  2564                                  SD012F:
  2565 00001EA3 E8(00000000)            	call pOutLI
  2566 00001EA8 4809C9                  	or rPOk, rPOk
  2567 00001EAB 7502                    	jnz SD0130
  2568 00001EAD EB19                    	jmp SDEnd012B
  2569                                  SD0130:
  2570 00001EAF E8(00000000)            	call pOut
  2571 00001EB4 045B6C5D29              	 db 0x04, "[l])"
  2572 00001EB9 4809C9                  	or rPOk, rPOk
  2573 00001EBC 7502                    	jnz SD0131
  2574 00001EBE EB08                    	jmp SDEnd012B
  2575                                  SD0131:
  2576 00001EC0 E8(00000000)            	call pOut
  2577 00001EC5 02222C                  	 db 0x02, '",'
  2578                                  SDEnd012B:
  2579 00001EC8 E8(00000000)            	call cAndEpilog
  2580                                  ADEnd0129:
  2581 00001ECD E8(00000000)            	call cDrop
  2582 00001ED2 4831C9                  	xor rPOk, rPOk
  2583 00001ED5 48FFC1                  	inc rPOk
  2584 00001ED8 4809C9                  	or rPOk, rPOk
  2585 00001EDB 7505                    	jnz SD0132
  2586 00001EDD E94F1B0000              	jmp SDEnd0075
  2587                                  SD0132:
  2588 00001EE2 E8(00000000)            	call cPush
  2589 00001EE7 E8C0E1FFFF              	call IsBit
  2590 00001EEC 1F00000000000000        	 dq 31
  2591 00001EF4 4809C9                  	or rPOk, rPOk
  2592 00001EF7 7502                    	jnz SD0133
  2593 00001EF9 EB23                    	jmp SDEnd0133
  2594                                  SD0133:
  2595 00001EFB E8(00000000)            	call pOut
  2596 00001F00 0E0A09224233312209-     	 db 0x0E, 0x0a, 0x09, '"B31"				: "'
  2596 00001F09 0909093A2022       
  2597 00001F0F 4809C9                  	or rPOk, rPOk
  2598 00001F12 7502                    	jnz SD0134
  2599 00001F14 EB08                    	jmp SDEnd0133
  2600                                  SD0134:
  2601 00001F16 E8(00000000)            	call pOut
  2602 00001F1B 02222C                  	 db 0x02, '",'
  2603                                  SDEnd0133:
  2604 00001F1E E8(00000000)            	call cDrop
  2605 00001F23 4831C9                  	xor rPOk, rPOk
  2606 00001F26 48FFC1                  	inc rPOk
  2607 00001F29 4809C9                  	or rPOk, rPOk
  2608 00001F2C 7505                    	jnz SD0135
  2609 00001F2E E9FE1A0000              	jmp SDEnd0075
  2610                                  SD0135:
  2611 00001F33 E8(00000000)            	call cPush
  2612 00001F38 E86FE1FFFF              	call IsBit
  2613 00001F3D 2000000000000000        	 dq 32
  2614 00001F45 4809C9                  	or rPOk, rPOk
  2615 00001F48 7502                    	jnz SD0136
  2616 00001F4A EB78                    	jmp SDEnd0136
  2617                                  SD0136:
  2618 00001F4C E8(00000000)            	call pOut
  2619 00001F51 240A09224233322041-     	 db 0x24, 0x0a, 0x09, '"B32 Acquiring institution ID"	: "'
  2619 00001F5A 6371756972696E6720-
  2619 00001F63 696E73746974757469-
  2619 00001F6C 6F6E20494422093A20-
  2619 00001F75 22                 
  2620 00001F76 4809C9                  	or rPOk, rPOk
  2621 00001F79 7502                    	jnz SD0137
  2622 00001F7B EB47                    	jmp SDEnd0136
  2623                                  SD0137:
  2624 00001F7D E850E3FFFF              	call LLVAR
  2625 00001F82 E8(00000000)            	call Dec2Bin
  2626 00001F87 4989C5                  	mov rFactCnt, rax
  2627 00001F8A 4809C0                  	or rax, rax
  2628 00001F8D 7502                    	jnz FacRep0138
  2629 00001F8F EB24                    	jmp FacEnd0138
  2630                                  FacRep0138:
  2631 00001F91 E8(00000000)            	call cPush
  2632 00001F96 E8(00000000)            	call n
  2633 00001F9B 4809C9                  	or rPOk, rPOk
  2634 00001F9E 7502                    	jnz SD0139
  2635 00001FA0 EB05                    	jmp SDEnd0139
  2636                                  SD0139:
  2637 00001FA2 E8(00000000)            	call pOutLI
  2638                                  SDEnd0139:
  2639 00001FA7 E8(00000000)            	call cDrop
  2640 00001FAC 49FFCD                  	dec rFactCnt
  2641 00001FAF E304                    	jrcxz FacEnd0138
  2642 00001FB1 7402                    	jz FacEnd0138
  2643 00001FB3 EBDC                    	jmp FacRep0138
  2644                                  FacEnd0138:
  2645 00001FB5 4809C9                  	or rPOk, rPOk
  2646 00001FB8 7502                    	jnz SD013A
  2647 00001FBA EB08                    	jmp SDEnd0136
  2648                                  SD013A:
  2649 00001FBC E8(00000000)            	call pOut
  2650 00001FC1 02222C                  	 db 0x02, '",'
  2651                                  SDEnd0136:
  2652 00001FC4 E8(00000000)            	call cDrop
  2653 00001FC9 4831C9                  	xor rPOk, rPOk
  2654 00001FCC 48FFC1                  	inc rPOk
  2655 00001FCF 4809C9                  	or rPOk, rPOk
  2656 00001FD2 7505                    	jnz SD013B
  2657 00001FD4 E9581A0000              	jmp SDEnd0075
  2658                                  SD013B:
  2659 00001FD9 E8(00000000)            	call cPush
  2660 00001FDE E8C9E0FFFF              	call IsBit
  2661 00001FE3 2100000000000000        	 dq 33
  2662 00001FEB 4809C9                  	or rPOk, rPOk
  2663 00001FEE 7502                    	jnz SD013C
  2664 00001FF0 EB23                    	jmp SDEnd013C
  2665                                  SD013C:
  2666 00001FF2 E8(00000000)            	call pOut
  2667 00001FF7 0E0A09224233332209-     	 db 0x0E, 0x0a, 0x09, '"B33"				: "'
  2667 00002000 0909093A2022       
  2668 00002006 4809C9                  	or rPOk, rPOk
  2669 00002009 7502                    	jnz SD013D
  2670 0000200B EB08                    	jmp SDEnd013C
  2671                                  SD013D:
  2672 0000200D E8(00000000)            	call pOut
  2673 00002012 02222C                  	 db 0x02, '",'
  2674                                  SDEnd013C:
  2675 00002015 E8(00000000)            	call cDrop
  2676 0000201A 4831C9                  	xor rPOk, rPOk
  2677 0000201D 48FFC1                  	inc rPOk
  2678 00002020 4809C9                  	or rPOk, rPOk
  2679 00002023 7505                    	jnz SD013E
  2680 00002025 E9071A0000              	jmp SDEnd0075
  2681                                  SD013E:
  2682 0000202A E8(00000000)            	call cPush
  2683 0000202F E878E0FFFF              	call IsBit
  2684 00002034 2200000000000000        	 dq 34
  2685 0000203C 4809C9                  	or rPOk, rPOk
  2686 0000203F 7502                    	jnz SD013F
  2687 00002041 EB23                    	jmp SDEnd013F
  2688                                  SD013F:
  2689 00002043 E8(00000000)            	call pOut
  2690 00002048 0E0A09224233342209-     	 db 0x0E, 0x0a, 0x09, '"B34"				: "'
  2690 00002051 0909093A2022       
  2691 00002057 4809C9                  	or rPOk, rPOk
  2692 0000205A 7502                    	jnz SD0140
  2693 0000205C EB08                    	jmp SDEnd013F
  2694                                  SD0140:
  2695 0000205E E8(00000000)            	call pOut
  2696 00002063 02222C                  	 db 0x02, '",'
  2697                                  SDEnd013F:
  2698 00002066 E8(00000000)            	call cDrop
  2699 0000206B 4831C9                  	xor rPOk, rPOk
  2700 0000206E 48FFC1                  	inc rPOk
  2701 00002071 4809C9                  	or rPOk, rPOk
  2702 00002074 7505                    	jnz SD0141
  2703 00002076 E9B6190000              	jmp SDEnd0075
  2704                                  SD0141:
  2705 0000207B E8(00000000)            	call cPush
  2706 00002080 E827E0FFFF              	call IsBit
  2707 00002085 2300000000000000        	 dq 35
  2708 0000208D 4809C9                  	or rPOk, rPOk
  2709 00002090 7502                    	jnz SD0142
  2710 00002092 EB69                    	jmp SDEnd0142
  2711                                  SD0142:
  2712 00002094 E8(00000000)            	call pOut
  2713 00002099 150A09224233352054-     	 db 0x15, 0x0a, 0x09, '"B35 Track 2"			: "'
  2713 000020A2 7261636B2032220909-
  2713 000020AB 093A2022           
  2714 000020AF 4809C9                  	or rPOk, rPOk
  2715 000020B2 7502                    	jnz SD0143
  2716 000020B4 EB47                    	jmp SDEnd0142
  2717                                  SD0143:
  2718 000020B6 E817E2FFFF              	call LLVAR
  2719 000020BB E8(00000000)            	call Dec2Bin
  2720 000020C0 4989C5                  	mov rFactCnt, rax
  2721 000020C3 4809C0                  	or rax, rax
  2722 000020C6 7502                    	jnz FacRep0144
  2723 000020C8 EB24                    	jmp FacEnd0144
  2724                                  FacRep0144:
  2725 000020CA E8(00000000)            	call cPush
  2726 000020CF E873E0FFFF              	call ans
  2727 000020D4 4809C9                  	or rPOk, rPOk
  2728 000020D7 7502                    	jnz SD0145
  2729 000020D9 EB05                    	jmp SDEnd0145
  2730                                  SD0145:
  2731 000020DB E8(00000000)            	call pOutLI
  2732                                  SDEnd0145:
  2733 000020E0 E8(00000000)            	call cDrop
  2734 000020E5 49FFCD                  	dec rFactCnt
  2735 000020E8 E304                    	jrcxz FacEnd0144
  2736 000020EA 7402                    	jz FacEnd0144
  2737 000020EC EBDC                    	jmp FacRep0144
  2738                                  FacEnd0144:
  2739 000020EE 4809C9                  	or rPOk, rPOk
  2740 000020F1 7502                    	jnz SD0146
  2741 000020F3 EB08                    	jmp SDEnd0142
  2742                                  SD0146:
  2743 000020F5 E8(00000000)            	call pOut
  2744 000020FA 02222C                  	 db 0x02, '",'
  2745                                  SDEnd0142:
  2746 000020FD E8(00000000)            	call cDrop
  2747 00002102 4831C9                  	xor rPOk, rPOk
  2748 00002105 48FFC1                  	inc rPOk
  2749 00002108 4809C9                  	or rPOk, rPOk
  2750 0000210B 7505                    	jnz SD0147
  2751 0000210D E91F190000              	jmp SDEnd0075
  2752                                  SD0147:
  2753 00002112 E8(00000000)            	call cPush
  2754 00002117 E890DFFFFF              	call IsBit
  2755 0000211C 2400000000000000        	 dq 36
  2756 00002124 4809C9                  	or rPOk, rPOk
  2757 00002127 7502                    	jnz SD0148
  2758 00002129 EB23                    	jmp SDEnd0148
  2759                                  SD0148:
  2760 0000212B E8(00000000)            	call pOut
  2761 00002130 0E0A09224233362209-     	 db 0x0E, 0x0a, 0x09, '"B36"				: "'
  2761 00002139 0909093A2022       
  2762 0000213F 4809C9                  	or rPOk, rPOk
  2763 00002142 7502                    	jnz SD0149
  2764 00002144 EB08                    	jmp SDEnd0148
  2765                                  SD0149:
  2766 00002146 E8(00000000)            	call pOut
  2767 0000214B 02222C                  	 db 0x02, '",'
  2768                                  SDEnd0148:
  2769 0000214E E8(00000000)            	call cDrop
  2770 00002153 4831C9                  	xor rPOk, rPOk
  2771 00002156 48FFC1                  	inc rPOk
  2772 00002159 4809C9                  	or rPOk, rPOk
  2773 0000215C 7505                    	jnz SD014A
  2774 0000215E E9CE180000              	jmp SDEnd0075
  2775                                  SD014A:
  2776 00002163 E8(00000000)            	call cPush
  2777 00002168 E83FDFFFFF              	call IsBit
  2778 0000216D 2500000000000000        	 dq 37
  2779 00002175 4809C9                  	or rPOk, rPOk
  2780 00002178 7502                    	jnz SD014B
  2781 0000217A EB44                    	jmp SDEnd014B
  2782                                  SD014B:
  2783 0000217C E8(00000000)            	call pOut
  2784 00002181 230A09224233372052-     	 db 0x23, 0x0a, 0x09, '"B37 Retrieval reference num"	: "'
  2784 0000218A 657472696576616C20-
  2784 00002193 7265666572656E6365-
  2784 0000219C 206E756D22093A2022 
  2785 000021A5 4809C9                  	or rPOk, rPOk
  2786 000021A8 7502                    	jnz SD014C
  2787 000021AA EB14                    	jmp SDEnd014B
  2788                                  SD014C:
  2789 000021AC E8(00000000)            	call pOutLI
  2790 000021B1 4809C9                  	or rPOk, rPOk
  2791 000021B4 7502                    	jnz SD014D
  2792 000021B6 EB08                    	jmp SDEnd014B
  2793                                  SD014D:
  2794 000021B8 E8(00000000)            	call pOut
  2795 000021BD 02222C                  	 db 0x02, '",'
  2796                                  SDEnd014B:
  2797 000021C0 E8(00000000)            	call cDrop
  2798 000021C5 4831C9                  	xor rPOk, rPOk
  2799 000021C8 48FFC1                  	inc rPOk
  2800 000021CB 4809C9                  	or rPOk, rPOk
  2801 000021CE 7505                    	jnz SD014E
  2802 000021D0 E95C180000              	jmp SDEnd0075
  2803                                  SD014E:
  2804 000021D5 E8(00000000)            	call cPush
  2805 000021DA E8CDDEFFFF              	call IsBit
  2806 000021DF 2600000000000000        	 dq 38
  2807 000021E7 4809C9                  	or rPOk, rPOk
  2808 000021EA 7502                    	jnz SD014F
  2809 000021EC EB69                    	jmp SDEnd014F
  2810                                  SD014F:
  2811 000021EE E8(00000000)            	call cPush
  2812 000021F3 41BD06000000            	mov rFactCnt, 6
  2813 000021F9 4D09ED                  	or rFactCnt, rFactCnt
  2814 000021FC 740E                    	jz FacEnd0150
  2815                                  FacRep0150:
  2816 000021FE E821DFFFFF              	call anp
  2817 00002203 49FFCD                  	dec rFactCnt
  2818 00002206 E304                    	jrcxz FacEnd0150
  2819 00002208 7402                    	jz FacEnd0150
  2820 0000220A EBF2                    	jmp FacRep0150
  2821                                  FacEnd0150:
  2822 0000220C E8(00000000)            	call cDrop
  2823 00002211 4809C9                  	or rPOk, rPOk
  2824 00002214 7502                    	jnz SD0151
  2825 00002216 EB3F                    	jmp SDEnd014F
  2826                                  SD0151:
  2827 00002218 E8(00000000)            	call pOut
  2828 0000221D 1E0A09224233382041-     	 db 0x1E, 0x0a, 0x09, '"B38 Authorisation code"	: "'
  2828 00002226 7574686F7269736174-
  2828 0000222F 696F6E20636F646522-
  2828 00002238 093A2022           
  2829 0000223C 4809C9                  	or rPOk, rPOk
  2830 0000223F 7502                    	jnz SD0152
  2831 00002241 EB14                    	jmp SDEnd014F
  2832                                  SD0152:
  2833 00002243 E8(00000000)            	call pOutLI
  2834 00002248 4809C9                  	or rPOk, rPOk
  2835 0000224B 7502                    	jnz SD0153
  2836 0000224D EB08                    	jmp SDEnd014F
  2837                                  SD0153:
  2838 0000224F E8(00000000)            	call pOut
  2839 00002254 02222C                  	 db 0x02, '",'
  2840                                  SDEnd014F:
  2841 00002257 E8(00000000)            	call cDrop
  2842 0000225C 4831C9                  	xor rPOk, rPOk
  2843 0000225F 48FFC1                  	inc rPOk
  2844 00002262 4809C9                  	or rPOk, rPOk
  2845 00002265 7505                    	jnz SD0154
  2846 00002267 E9C5170000              	jmp SDEnd0075
  2847                                  SD0154:
  2848 0000226C E8(00000000)            	call cPush
  2849 00002271 E836DEFFFF              	call IsBit
  2850 00002276 2700000000000000        	 dq 39
  2851 0000227E 4809C9                  	or rPOk, rPOk
  2852 00002281 7502                    	jnz SD0155
  2853 00002283 EB63                    	jmp SDEnd0155
  2854                                  SD0155:
  2855 00002285 E8(00000000)            	call cPush
  2856 0000228A 41BD03000000            	mov rFactCnt, 3
  2857 00002290 4D09ED                  	or rFactCnt, rFactCnt
  2858 00002293 740E                    	jz FacEnd0156
  2859                                  FacRep0156:
  2860 00002295 E8(00000000)            	call n
  2861 0000229A 49FFCD                  	dec rFactCnt
  2862 0000229D E304                    	jrcxz FacEnd0156
  2863 0000229F 7402                    	jz FacEnd0156
  2864 000022A1 EBF2                    	jmp FacRep0156
  2865                                  FacEnd0156:
  2866 000022A3 E8(00000000)            	call cDrop
  2867 000022A8 4809C9                  	or rPOk, rPOk
  2868 000022AB 7502                    	jnz SD0157
  2869 000022AD EB39                    	jmp SDEnd0155
  2870                                  SD0157:
  2871 000022AF E8(00000000)            	call pOut
  2872 000022B4 180A09224233392041-     	 db 0x18, 0x0a, 0x09, '"B39 Action code"		: "'
  2872 000022BD 6374696F6E20636F64-
  2872 000022C6 652209093A2022     
  2873 000022CD 4809C9                  	or rPOk, rPOk
  2874 000022D0 7502                    	jnz SD0158
  2875 000022D2 EB14                    	jmp SDEnd0155
  2876                                  SD0158:
  2877 000022D4 E8(00000000)            	call pOutLI
  2878 000022D9 4809C9                  	or rPOk, rPOk
  2879 000022DC 7502                    	jnz SD0159
  2880 000022DE EB08                    	jmp SDEnd0155
  2881                                  SD0159:
  2882 000022E0 E8(00000000)            	call pOut
  2883 000022E5 022028                  	 db 0x02, ' ('
  2884                                  SDEnd0155:
  2885 000022E8 4809C9                  	or rPOk, rPOk
  2886 000022EB 7502                    	jnz AD015A
  2887 000022ED EB1F                    	jmp ADEnd015A
  2888                                  AD015A:
  2889 000022EF E8(00000000)            	call cAndProlog
  2890 000022F4 E88D5B0000              	call Bit39
  2891 000022F9 4809C9                  	or rPOk, rPOk
  2892 000022FC 7502                    	jnz SD015B
  2893 000022FE EB09                    	jmp SDEnd015B
  2894                                  SD015B:
  2895 00002300 E8(00000000)            	call pOut
  2896 00002305 0329222C                	 db 0x03, ')",'
  2897                                  SDEnd015B:
  2898 00002309 E8(00000000)            	call cAndEpilog
  2899                                  ADEnd015A:
  2900 0000230E E8(00000000)            	call cDrop
  2901 00002313 4831C9                  	xor rPOk, rPOk
  2902 00002316 48FFC1                  	inc rPOk
  2903 00002319 4809C9                  	or rPOk, rPOk
  2904 0000231C 7505                    	jnz SD015C
  2905 0000231E E90E170000              	jmp SDEnd0075
  2906                                  SD015C:
  2907 00002323 E8(00000000)            	call cPush
  2908 00002328 E87FDDFFFF              	call IsBit
  2909 0000232D 2800000000000000        	 dq 40
  2910 00002335 4809C9                  	or rPOk, rPOk
  2911 00002338 7502                    	jnz SD015D
  2912 0000233A EB23                    	jmp SDEnd015D
  2913                                  SD015D:
  2914 0000233C E8(00000000)            	call pOut
  2915 00002341 0E0A09224234302209-     	 db 0x0E, 0x0a, 0x09, '"B40"				: "'
  2915 0000234A 0909093A2022       
  2916 00002350 4809C9                  	or rPOk, rPOk
  2917 00002353 7502                    	jnz SD015E
  2918 00002355 EB08                    	jmp SDEnd015D
  2919                                  SD015E:
  2920 00002357 E8(00000000)            	call pOut
  2921 0000235C 02222C                  	 db 0x02, '",'
  2922                                  SDEnd015D:
  2923 0000235F E8(00000000)            	call cDrop
  2924 00002364 4831C9                  	xor rPOk, rPOk
  2925 00002367 48FFC1                  	inc rPOk
  2926 0000236A 4809C9                  	or rPOk, rPOk
  2927 0000236D 7505                    	jnz SD015F
  2928 0000236F E9BD160000              	jmp SDEnd0075
  2929                                  SD015F:
  2930 00002374 E8(00000000)            	call cPush
  2931 00002379 E82EDDFFFF              	call IsBit
  2932 0000237E 2900000000000000        	 dq 41
  2933 00002386 4809C9                  	or rPOk, rPOk
  2934 00002389 7502                    	jnz SD0160
  2935 0000238B EB63                    	jmp SDEnd0160
  2936                                  SD0160:
  2937 0000238D E8(00000000)            	call cPush
  2938 00002392 41BD08000000            	mov rFactCnt, 8
  2939 00002398 4D09ED                  	or rFactCnt, rFactCnt
  2940 0000239B 740E                    	jz FacEnd0161
  2941                                  FacRep0161:
  2942 0000239D E8A5DDFFFF              	call ans
  2943 000023A2 49FFCD                  	dec rFactCnt
  2944 000023A5 E304                    	jrcxz FacEnd0161
  2945 000023A7 7402                    	jz FacEnd0161
  2946 000023A9 EBF2                    	jmp FacRep0161
  2947                                  FacEnd0161:
  2948 000023AB E8(00000000)            	call cDrop
  2949 000023B0 4809C9                  	or rPOk, rPOk
  2950 000023B3 7502                    	jnz SD0162
  2951 000023B5 EB39                    	jmp SDEnd0160
  2952                                  SD0162:
  2953 000023B7 E8(00000000)            	call pOut
  2954 000023BC 180A09224234312054-     	 db 0x18, 0x0a, 0x09, '"B41 Terminal ID"		: "'
  2954 000023C5 65726D696E616C2049-
  2954 000023CE 442209093A2022     
  2955 000023D5 4809C9                  	or rPOk, rPOk
  2956 000023D8 7502                    	jnz SD0163
  2957 000023DA EB14                    	jmp SDEnd0160
  2958                                  SD0163:
  2959 000023DC E8(00000000)            	call pOutLI
  2960 000023E1 4809C9                  	or rPOk, rPOk
  2961 000023E4 7502                    	jnz SD0164
  2962 000023E6 EB08                    	jmp SDEnd0160
  2963                                  SD0164:
  2964 000023E8 E8(00000000)            	call pOut
  2965 000023ED 02222C                  	 db 0x02, '",'
  2966                                  SDEnd0160:
  2967 000023F0 E8(00000000)            	call cDrop
  2968 000023F5 4831C9                  	xor rPOk, rPOk
  2969 000023F8 48FFC1                  	inc rPOk
  2970 000023FB 4809C9                  	or rPOk, rPOk
  2971 000023FE 7505                    	jnz SD0165
  2972 00002400 E92C160000              	jmp SDEnd0075
  2973                                  SD0165:
  2974 00002405 E8(00000000)            	call cPush
  2975 0000240A E89DDCFFFF              	call IsBit
  2976 0000240F 2A00000000000000        	 dq 42
  2977 00002417 4809C9                  	or rPOk, rPOk
  2978 0000241A 7502                    	jnz SD0166
  2979 0000241C EB5D                    	jmp SDEnd0166
  2980                                  SD0166:
  2981 0000241E E8(00000000)            	call cPush
  2982 00002423 41BD0F000000            	mov rFactCnt, 15
  2983 00002429 4D09ED                  	or rFactCnt, rFactCnt
  2984 0000242C 740E                    	jz FacEnd0167
  2985                                  FacRep0167:
  2986 0000242E E814DDFFFF              	call ans
  2987 00002433 49FFCD                  	dec rFactCnt
  2988 00002436 E304                    	jrcxz FacEnd0167
  2989 00002438 7402                    	jz FacEnd0167
  2990 0000243A EBF2                    	jmp FacRep0167
  2991                                  FacEnd0167:
  2992 0000243C E8(00000000)            	call cDrop
  2993 00002441 4809C9                  	or rPOk, rPOk
  2994 00002444 7502                    	jnz SD0168
  2995 00002446 EB33                    	jmp SDEnd0166
  2996                                  SD0168:
  2997 00002448 E8(00000000)            	call pOut
  2998 0000244D 120A09224234322043-     	 db 0x12, 0x0a, 0x09, '"B42 CAIC"			: "'
  2998 00002456 414943220909093A20-
  2998 0000245F 22                 
  2999 00002460 4809C9                  	or rPOk, rPOk
  3000 00002463 7502                    	jnz SD0169
  3001 00002465 EB14                    	jmp SDEnd0166
  3002                                  SD0169:
  3003 00002467 E8(00000000)            	call pOutLI
  3004 0000246C 4809C9                  	or rPOk, rPOk
  3005 0000246F 7502                    	jnz SD016A
  3006 00002471 EB08                    	jmp SDEnd0166
  3007                                  SD016A:
  3008 00002473 E8(00000000)            	call pOut
  3009 00002478 02222C                  	 db 0x02, '",'
  3010                                  SDEnd0166:
  3011 0000247B E8(00000000)            	call cDrop
  3012 00002480 4831C9                  	xor rPOk, rPOk
  3013 00002483 48FFC1                  	inc rPOk
  3014 00002486 4809C9                  	or rPOk, rPOk
  3015 00002489 7505                    	jnz SD016B
  3016 0000248B E9A1150000              	jmp SDEnd0075
  3017                                  SD016B:
  3018 00002490 E8(00000000)            	call cPush
  3019 00002495 E812DCFFFF              	call IsBit
  3020 0000249A 2B00000000000000        	 dq 43
  3021 000024A2 4809C9                  	or rPOk, rPOk
  3022 000024A5 7502                    	jnz SD016C
  3023 000024A7 EB4C                    	jmp SDEnd016C
  3024                                  SD016C:
  3025 000024A9 E8(00000000)            	call cPush
  3026 000024AE E81FDEFFFF              	call LLVAR
  3027 000024B3 E8(00000000)            	call Dec2Bin
  3028 000024B8 4989C5                  	mov rFactCnt, rax
  3029 000024BB 4809C0                  	or rax, rax
  3030 000024BE 7502                    	jnz FacRep016D
  3031 000024C0 EB0E                    	jmp FacEnd016D
  3032                                  FacRep016D:
  3033 000024C2 E880DCFFFF              	call ans
  3034 000024C7 49FFCD                  	dec rFactCnt
  3035 000024CA E304                    	jrcxz FacEnd016D
  3036 000024CC 7402                    	jz FacEnd016D
  3037 000024CE EBF2                    	jmp FacRep016D
  3038                                  FacEnd016D:
  3039 000024D0 E8(00000000)            	call cDrop
  3040 000024D5 4809C9                  	or rPOk, rPOk
  3041 000024D8 7502                    	jnz SD016E
  3042 000024DA EB19                    	jmp SDEnd016C
  3043                                  SD016E:
  3044 000024DC E8(00000000)            	call pOut
  3045 000024E1 130A09224234332043-     	 db 0x13, 0x0a, 0x09, '"B43 CAN/L"			: "'
  3045 000024EA 414E2F4C220909093A-
  3045 000024F3 2022               
  3046                                  SDEnd016C:
  3047 000024F5 4809C9                  	or rPOk, rPOk
  3048 000024F8 7505                    	jnz AD016F
  3049 000024FA E995000000              	jmp ADEnd016F
  3050                                  AD016F:
  3051 000024FF E8(00000000)            	call cAndProlog
  3052 00002504 E8C9DDFFFF              	call LLVAR
  3053 00002509 E8(00000000)            	call Dec2Bin
  3054 0000250E 4989C5                  	mov rFactCnt, rax
  3055 00002511 4809C0                  	or rax, rax
  3056 00002514 7502                    	jnz FacRep0170
  3057 00002516 EB68                    	jmp FacEnd0170
  3058                                  FacRep0170:
  3059 00002518 E8(00000000)            	call cPush
  3060 0000251D E8(00000000)            	call pIn
  3061 00002522 015C                    	 db 0x0001, '\'
  3062 00002524 4809C9                  	or rPOk, rPOk
  3063 00002527 7502                    	jnz SD0171
  3064 00002529 EB08                    	jmp SDEnd0171
  3065                                  SD0171:
  3066 0000252B E8(00000000)            	call pOut
  3067 00002530 025C5C                  	 db 0x02, '\\'
  3068                                  SDEnd0171:
  3069 00002533 E302                    	jrcxz DL0172
  3070 00002535 EB3B                    	jmp DLEnd0172
  3071 00002537 48FFC1                  DL0172:	inc rcx
  3072 0000253A E8(00000000)            	call cTop
  3073 0000253F E8(00000000)            	call pIn
  3074 00002544 0122                    	 db 1, 34
  3075 00002546 4809C9                  	or rPOk, rPOk
  3076 00002549 7502                    	jnz SD0173
  3077 0000254B EB08                    	jmp SDEnd0173
  3078                                  SD0173:
  3079 0000254D E8(00000000)            	call pOut
  3080 00002552 025C22                  	 db 0x02, '\"'
  3081                                  SDEnd0173:
  3082 00002555 E302                    	jrcxz DL0174
  3083 00002557 EB19                    	jmp DLEnd0172
  3084 00002559 48FFC1                  DL0174:	inc rcx
  3085 0000255C E8(00000000)            	call cTop
  3086 00002561 E8E1DBFFFF              	call ans
  3087 00002566 4809C9                  	or rPOk, rPOk
  3088 00002569 7502                    	jnz SD0175
  3089 0000256B EB05                    	jmp SDEnd0175
  3090                                  SD0175:
  3091 0000256D E8(00000000)            	call pOutLI
  3092                                  SDEnd0175:
  3093                                  DLEnd0172:
  3094 00002572 E8(00000000)            	call cDrop
  3095 00002577 49FFCD                  	dec rFactCnt
  3096 0000257A E304                    	jrcxz FacEnd0170
  3097 0000257C 7402                    	jz FacEnd0170
  3098 0000257E EB98                    	jmp FacRep0170
  3099                                  FacEnd0170:
  3100 00002580 4809C9                  	or rPOk, rPOk
  3101 00002583 7502                    	jnz SD0176
  3102 00002585 EB08                    	jmp SDEnd0176
  3103                                  SD0176:
  3104 00002587 E8(00000000)            	call pOut
  3105 0000258C 02222C                  	 db 0x02, '",'
  3106                                  SDEnd0176:
  3107 0000258F E8(00000000)            	call cAndEpilog
  3108                                  ADEnd016F:
  3109 00002594 E8(00000000)            	call cDrop
  3110 00002599 4831C9                  	xor rPOk, rPOk
  3111 0000259C 48FFC1                  	inc rPOk
  3112 0000259F 4809C9                  	or rPOk, rPOk
  3113 000025A2 7505                    	jnz SD0177
  3114 000025A4 E988140000              	jmp SDEnd0075
  3115                                  SD0177:
  3116 000025A9 E8(00000000)            	call cPush
  3117 000025AE E8F9DAFFFF              	call IsBit
  3118 000025B3 2C00000000000000        	 dq 44
  3119 000025BB 4809C9                  	or rPOk, rPOk
  3120 000025BE 7502                    	jnz SD0178
  3121 000025C0 EB23                    	jmp SDEnd0178
  3122                                  SD0178:
  3123 000025C2 E8(00000000)            	call pOut
  3124 000025C7 0E0A09224234342220-     	 db 0x0E, 0x0a, 0x09, '"B44" 			: "'
  3124 000025D0 0909093A2022       
  3125 000025D6 4809C9                  	or rPOk, rPOk
  3126 000025D9 7502                    	jnz SD0179
  3127 000025DB EB08                    	jmp SDEnd0178
  3128                                  SD0179:
  3129 000025DD E8(00000000)            	call pOut
  3130 000025E2 02222C                  	 db 0x02, '",'
  3131                                  SDEnd0178:
  3132 000025E5 E8(00000000)            	call cDrop
  3133 000025EA 4831C9                  	xor rPOk, rPOk
  3134 000025ED 48FFC1                  	inc rPOk
  3135 000025F0 4809C9                  	or rPOk, rPOk
  3136 000025F3 7505                    	jnz SD017A
  3137 000025F5 E937140000              	jmp SDEnd0075
  3138                                  SD017A:
  3139 000025FA E8(00000000)            	call cPush
  3140 000025FF E8A8DAFFFF              	call IsBit
  3141 00002604 2D00000000000000        	 dq 45
  3142 0000260C 4809C9                  	or rPOk, rPOk
  3143 0000260F 7502                    	jnz SD017B
  3144 00002611 EB6D                    	jmp SDEnd017B
  3145                                  SD017B:
  3146 00002613 E8(00000000)            	call pOut
  3147 00002618 190A09224234352054-     	 db 0x19, 0x0a, 0x09, '"B45 Track 1 data"		: "'
  3147 00002621 7261636B2031206461-
  3147 0000262A 74612209093A2022   
  3148 00002632 4809C9                  	or rPOk, rPOk
  3149 00002635 7502                    	jnz SD017C
  3150 00002637 EB47                    	jmp SDEnd017B
  3151                                  SD017C:
  3152 00002639 E894DCFFFF              	call LLVAR
  3153 0000263E E8(00000000)            	call Dec2Bin
  3154 00002643 4989C5                  	mov rFactCnt, rax
  3155 00002646 4809C0                  	or rax, rax
  3156 00002649 7502                    	jnz FacRep017D
  3157 0000264B EB24                    	jmp FacEnd017D
  3158                                  FacRep017D:
  3159 0000264D E8(00000000)            	call cPush
  3160 00002652 E8F0DAFFFF              	call ans
  3161 00002657 4809C9                  	or rPOk, rPOk
  3162 0000265A 7502                    	jnz SD017E
  3163 0000265C EB05                    	jmp SDEnd017E
  3164                                  SD017E:
  3165 0000265E E8(00000000)            	call pOutLI
  3166                                  SDEnd017E:
  3167 00002663 E8(00000000)            	call cDrop
  3168 00002668 49FFCD                  	dec rFactCnt
  3169 0000266B E304                    	jrcxz FacEnd017D
  3170 0000266D 7402                    	jz FacEnd017D
  3171 0000266F EBDC                    	jmp FacRep017D
  3172                                  FacEnd017D:
  3173 00002671 4809C9                  	or rPOk, rPOk
  3174 00002674 7502                    	jnz SD017F
  3175 00002676 EB08                    	jmp SDEnd017B
  3176                                  SD017F:
  3177 00002678 E8(00000000)            	call pOut
  3178 0000267D 02222C                  	 db 0x02, '",'
  3179                                  SDEnd017B:
  3180 00002680 E8(00000000)            	call cDrop
  3181 00002685 4831C9                  	xor rPOk, rPOk
  3182 00002688 48FFC1                  	inc rPOk
  3183 0000268B 4809C9                  	or rPOk, rPOk
  3184 0000268E 7505                    	jnz SD0180
  3185 00002690 E99C130000              	jmp SDEnd0075
  3186                                  SD0180:
  3187 00002695 E8(00000000)            	call cPush
  3188 0000269A E80DDAFFFF              	call IsBit
  3189 0000269F 2E00000000000000        	 dq 46
  3190 000026A7 4809C9                  	or rPOk, rPOk
  3191 000026AA 7502                    	jnz SD0181
  3192 000026AC EB23                    	jmp SDEnd0181
  3193                                  SD0181:
  3194 000026AE E8(00000000)            	call pOut
  3195 000026B3 0E0A09224234362209-     	 db 0x0E, 0x0a, 0x09, '"B46"				: "'
  3195 000026BC 0909093A2022       
  3196 000026C2 4809C9                  	or rPOk, rPOk
  3197 000026C5 7502                    	jnz SD0182
  3198 000026C7 EB08                    	jmp SDEnd0181
  3199                                  SD0182:
  3200 000026C9 E8(00000000)            	call pOut
  3201 000026CE 02222C                  	 db 0x02, '",'
  3202                                  SDEnd0181:
  3203 000026D1 E8(00000000)            	call cDrop
  3204 000026D6 4831C9                  	xor rPOk, rPOk
  3205 000026D9 48FFC1                  	inc rPOk
  3206 000026DC 4809C9                  	or rPOk, rPOk
  3207 000026DF 7505                    	jnz SD0183
  3208 000026E1 E94B130000              	jmp SDEnd0075
  3209                                  SD0183:
  3210 000026E6 E8(00000000)            	call cPush
  3211 000026EB E8BCD9FFFF              	call IsBit
  3212 000026F0 2F00000000000000        	 dq 47
  3213 000026F8 4809C9                  	or rPOk, rPOk
  3214 000026FB 7502                    	jnz SD0184
  3215 000026FD EB23                    	jmp SDEnd0184
  3216                                  SD0184:
  3217 000026FF E8(00000000)            	call pOut
  3218 00002704 0E0A09224234372209-     	 db 0x0E, 0x0a, 0x09, '"B47"				: "'
  3218 0000270D 0909093A2022       
  3219 00002713 4809C9                  	or rPOk, rPOk
  3220 00002716 7502                    	jnz SD0185
  3221 00002718 EB08                    	jmp SDEnd0184
  3222                                  SD0185:
  3223 0000271A E8(00000000)            	call pOut
  3224 0000271F 02222C                  	 db 0x02, '",'
  3225                                  SDEnd0184:
  3226 00002722 E8(00000000)            	call cDrop
  3227 00002727 4831C9                  	xor rPOk, rPOk
  3228 0000272A 48FFC1                  	inc rPOk
  3229 0000272D 4809C9                  	or rPOk, rPOk
  3230 00002730 7505                    	jnz SD0186
  3231 00002732 E9FA120000              	jmp SDEnd0075
  3232                                  SD0186:
  3233 00002737 E8(00000000)            	call cPush
  3234 0000273C E86BD9FFFF              	call IsBit
  3235 00002741 3000000000000000        	 dq 48
  3236 00002749 4809C9                  	or rPOk, rPOk
  3237 0000274C 7502                    	jnz SD0187
  3238 0000274E EB5B                    	jmp SDEnd0187
  3239                                  SD0187:
  3240 00002750 E8(00000000)            	call cPush
  3241 00002755 E89CDBFFFF              	call LLLVAR
  3242 0000275A E8(00000000)            	call Dec2Bin
  3243 0000275F 4989C5                  	mov rFactCnt, rax
  3244 00002762 4809C0                  	or rax, rax
  3245 00002765 7502                    	jnz FacRep0188
  3246 00002767 EB0E                    	jmp FacEnd0188
  3247                                  FacRep0188:
  3248 00002769 E8(00000000)            	call b
  3249 0000276E 49FFCD                  	dec rFactCnt
  3250 00002771 E304                    	jrcxz FacEnd0188
  3251 00002773 7402                    	jz FacEnd0188
  3252 00002775 EBF2                    	jmp FacRep0188
  3253                                  FacEnd0188:
  3254 00002777 E8(00000000)            	call cDrop
  3255 0000277C 4809C9                  	or rPOk, rPOk
  3256 0000277F 7502                    	jnz SD0189
  3257 00002781 EB28                    	jmp SDEnd0187
  3258                                  SD0189:
  3259 00002783 E8(00000000)            	call pOut
  3260 00002788 220A0922423438204D-     	 db 0x22, 0x0a, 0x09, '"B48 Msg ctrl data elements"	: {'
  3260 00002791 7367206374726C2064-
  3260 0000279A 61746120656C656D65-
  3260 000027A3 6E747322093A207B   
  3261                                  SDEnd0187:
  3262 000027AB 4809C9                  	or rPOk, rPOk
  3263 000027AE 7502                    	jnz AD018A
  3264 000027B0 EB59                    	jmp ADEnd018A
  3265                                  AD018A:
  3266 000027B2 E8(00000000)            	call cAndProlog
  3267 000027B7 E8(00000000)            	call cPush
  3268 000027BC 41BD03000000            	mov rFactCnt, 3
  3269 000027C2 4D09ED                  	or rFactCnt, rFactCnt
  3270 000027C5 740E                    	jz FacEnd018B
  3271                                  FacRep018B:
  3272 000027C7 E8(00000000)            	call b
  3273 000027CC 49FFCD                  	dec rFactCnt
  3274 000027CF E304                    	jrcxz FacEnd018B
  3275 000027D1 7402                    	jz FacEnd018B
  3276 000027D3 EBF2                    	jmp FacRep018B
  3277                                  FacEnd018B:
  3278 000027D5 4809C9                  	or rPOk, rPOk
  3279 000027D8 7502                    	jnz SD018C
  3280 000027DA EB25                    	jmp SDEnd018C
  3281                                  SD018C:
  3282 000027DC E82AE5FFFF              	call BitMap48
  3283 000027E1 4809C9                  	or rPOk, rPOk
  3284 000027E4 7502                    	jnz SD018D
  3285 000027E6 EB19                    	jmp SDEnd018C
  3286                                  SD018D:
  3287 000027E8 E84A120000              	call Fields48
  3288 000027ED 4809C9                  	or rPOk, rPOk
  3289 000027F0 7502                    	jnz SD018E
  3290 000027F2 EB0D                    	jmp SDEnd018C
  3291                                  SD018E:
  3292 000027F4 E838D8FFFF              	call SetBitMapCur
  3293 000027F9 [0000000000000000]      	 dq aBitMap0
  3294                                  SDEnd018C:
  3295 00002801 E8(00000000)            	call cDrop
  3296 00002806 E8(00000000)            	call cAndEpilog
  3297                                  ADEnd018A:
  3298 0000280B E8(00000000)            	call cDrop
  3299 00002810 4831C9                  	xor rPOk, rPOk
  3300 00002813 48FFC1                  	inc rPOk
  3301 00002816 4809C9                  	or rPOk, rPOk
  3302 00002819 7505                    	jnz SD018F
  3303 0000281B E911120000              	jmp SDEnd0075
  3304                                  SD018F:
  3305 00002820 E8(00000000)            	call cPush
  3306 00002825 E882D8FFFF              	call IsBit
  3307 0000282A 3100000000000000        	 dq 49
  3308 00002832 4809C9                  	or rPOk, rPOk
  3309 00002835 7502                    	jnz SD0190
  3310 00002837 EB65                    	jmp SDEnd0190
  3311                                  SD0190:
  3312 00002839 E8(00000000)            	call cPush
  3313 0000283E 41BD03000000            	mov rFactCnt, 3
  3314 00002844 4D09ED                  	or rFactCnt, rFactCnt
  3315 00002847 740E                    	jz FacEnd0191
  3316                                  FacRep0191:
  3317 00002849 E8B5D8FFFF              	call an
  3318 0000284E 49FFCD                  	dec rFactCnt
  3319 00002851 E304                    	jrcxz FacEnd0191
  3320 00002853 7402                    	jz FacEnd0191
  3321 00002855 EBF2                    	jmp FacRep0191
  3322                                  FacEnd0191:
  3323 00002857 E8(00000000)            	call cDrop
  3324 0000285C 4809C9                  	or rPOk, rPOk
  3325 0000285F 7502                    	jnz SD0192
  3326 00002861 EB3B                    	jmp SDEnd0190
  3327                                  SD0192:
  3328 00002863 E8(00000000)            	call pOut
  3329 00002868 1A0A09224234392043-     	 db 0x1A, 0x0a, 0x09, '"B49 Currency code"		: "'
  3329 00002871 757272656E63792063-
  3329 0000287A 6F64652209093A2022 
  3330 00002883 4809C9                  	or rPOk, rPOk
  3331 00002886 7502                    	jnz SD0193
  3332 00002888 EB14                    	jmp SDEnd0190
  3333                                  SD0193:
  3334 0000288A E8(00000000)            	call pOutLI
  3335 0000288F 4809C9                  	or rPOk, rPOk
  3336 00002892 7502                    	jnz SD0194
  3337 00002894 EB08                    	jmp SDEnd0190
  3338                                  SD0194:
  3339 00002896 E8(00000000)            	call pOut
  3340 0000289B 022028                  	 db 0x02, ' ('
  3341                                  SDEnd0190:
  3342 0000289E 4809C9                  	or rPOk, rPOk
  3343 000028A1 7502                    	jnz AD0195
  3344 000028A3 EB1F                    	jmp ADEnd0195
  3345                                  AD0195:
  3346 000028A5 E8(00000000)            	call cAndProlog
  3347 000028AA E8ED6C0000              	call Bit49
  3348 000028AF 4809C9                  	or rPOk, rPOk
  3349 000028B2 7502                    	jnz SD0196
  3350 000028B4 EB09                    	jmp SDEnd0196
  3351                                  SD0196:
  3352 000028B6 E8(00000000)            	call pOut
  3353 000028BB 0329222C                	 db 0x03, ')",'
  3354                                  SDEnd0196:
  3355 000028BF E8(00000000)            	call cAndEpilog
  3356                                  ADEnd0195:
  3357 000028C4 E8(00000000)            	call cDrop
  3358 000028C9 4831C9                  	xor rPOk, rPOk
  3359 000028CC 48FFC1                  	inc rPOk
  3360 000028CF 4809C9                  	or rPOk, rPOk
  3361 000028D2 7505                    	jnz SD0197
  3362 000028D4 E958110000              	jmp SDEnd0075
  3363                                  SD0197:
  3364 000028D9 E8(00000000)            	call cPush
  3365 000028DE E8C9D7FFFF              	call IsBit
  3366 000028E3 3200000000000000        	 dq 50
  3367 000028EB 4809C9                  	or rPOk, rPOk
  3368 000028EE 7502                    	jnz SD0198
  3369 000028F0 EB6E                    	jmp SDEnd0198
  3370                                  SD0198:
  3371 000028F2 E8(00000000)            	call cPush
  3372 000028F7 41BD03000000            	mov rFactCnt, 3
  3373 000028FD 4D09ED                  	or rFactCnt, rFactCnt
  3374 00002900 740E                    	jz FacEnd0199
  3375                                  FacRep0199:
  3376 00002902 E8(00000000)            	call n
  3377 00002907 49FFCD                  	dec rFactCnt
  3378 0000290A E304                    	jrcxz FacEnd0199
  3379 0000290C 7402                    	jz FacEnd0199
  3380 0000290E EBF2                    	jmp FacRep0199
  3381                                  FacEnd0199:
  3382 00002910 E8(00000000)            	call cDrop
  3383 00002915 4809C9                  	or rPOk, rPOk
  3384 00002918 7502                    	jnz SD019A
  3385 0000291A EB44                    	jmp SDEnd0198
  3386                                  SD019A:
  3387 0000291C E8(00000000)            	call pOut
  3388 00002921 230A09224235302043-     	 db 0x23, 0x0a, 0x09, '"B50 Currency code reconcili"	: "'
  3388 0000292A 757272656E63792063-
  3388 00002933 6F6465207265636F6E-
  3388 0000293C 63696C6922093A2022 
  3389 00002945 4809C9                  	or rPOk, rPOk
  3390 00002948 7502                    	jnz SD019B
  3391 0000294A EB14                    	jmp SDEnd0198
  3392                                  SD019B:
  3393 0000294C E8(00000000)            	call pOutLI
  3394 00002951 4809C9                  	or rPOk, rPOk
  3395 00002954 7502                    	jnz SD019C
  3396 00002956 EB08                    	jmp SDEnd0198
  3397                                  SD019C:
  3398 00002958 E8(00000000)            	call pOut
  3399 0000295D 02222C                  	 db 0x02, '",'
  3400                                  SDEnd0198:
  3401 00002960 E8(00000000)            	call cDrop
  3402 00002965 4831C9                  	xor rPOk, rPOk
  3403 00002968 48FFC1                  	inc rPOk
  3404 0000296B 4809C9                  	or rPOk, rPOk
  3405 0000296E 7505                    	jnz SD019D
  3406 00002970 E9BC100000              	jmp SDEnd0075
  3407                                  SD019D:
  3408 00002975 E8(00000000)            	call cPush
  3409 0000297A E82DD7FFFF              	call IsBit
  3410 0000297F 3300000000000000        	 dq 51
  3411 00002987 4809C9                  	or rPOk, rPOk
  3412 0000298A 7502                    	jnz SD019E
  3413 0000298C EB23                    	jmp SDEnd019E
  3414                                  SD019E:
  3415 0000298E E8(00000000)            	call pOut
  3416 00002993 0E0A09224235312209-     	 db 0x0E, 0x0a, 0x09, '"B51"				: "'
  3416 0000299C 0909093A2022       
  3417 000029A2 4809C9                  	or rPOk, rPOk
  3418 000029A5 7502                    	jnz SD019F
  3419 000029A7 EB08                    	jmp SDEnd019E
  3420                                  SD019F:
  3421 000029A9 E8(00000000)            	call pOut
  3422 000029AE 02222C                  	 db 0x02, '",'
  3423                                  SDEnd019E:
  3424 000029B1 E8(00000000)            	call cDrop
  3425 000029B6 4831C9                  	xor rPOk, rPOk
  3426 000029B9 48FFC1                  	inc rPOk
  3427 000029BC 4809C9                  	or rPOk, rPOk
  3428 000029BF 7505                    	jnz SD01A0
  3429 000029C1 E96B100000              	jmp SDEnd0075
  3430                                  SD01A0:
  3431 000029C6 E8(00000000)            	call cPush
  3432 000029CB E8DCD6FFFF              	call IsBit
  3433 000029D0 3400000000000000        	 dq 52
  3434 000029D8 4809C9                  	or rPOk, rPOk
  3435 000029DB 7502                    	jnz SD01A1
  3436 000029DD EB60                    	jmp SDEnd01A1
  3437                                  SD01A1:
  3438 000029DF E8(00000000)            	call cPush
  3439 000029E4 41BD08000000            	mov rFactCnt, 8
  3440 000029EA 4D09ED                  	or rFactCnt, rFactCnt
  3441 000029ED 740E                    	jz FacEnd01A2
  3442                                  FacRep01A2:
  3443 000029EF E8(00000000)            	call b
  3444 000029F4 49FFCD                  	dec rFactCnt
  3445 000029F7 E304                    	jrcxz FacEnd01A2
  3446 000029F9 7402                    	jz FacEnd01A2
  3447 000029FB EBF2                    	jmp FacRep01A2
  3448                                  FacEnd01A2:
  3449 000029FD E8(00000000)            	call cDrop
  3450 00002A02 4809C9                  	or rPOk, rPOk
  3451 00002A05 7502                    	jnz SD01A3
  3452 00002A07 EB36                    	jmp SDEnd01A1
  3453                                  SD01A3:
  3454 00002A09 E8(00000000)            	call pOut
  3455 00002A0E 150A09224235322050-     	 db 0x15, 0x0a, 0x09, '"B52 PIN data"		: "'
  3455 00002A17 494E20646174612209-
  3455 00002A20 093A2022           
  3456 00002A24 4809C9                  	or rPOk, rPOk
  3457 00002A27 7502                    	jnz SD01A4
  3458 00002A29 EB14                    	jmp SDEnd01A1
  3459                                  SD01A4:
  3460 00002A2B E8(00000000)            	call pOutLIHex
  3461 00002A30 4809C9                  	or rPOk, rPOk
  3462 00002A33 7502                    	jnz SD01A5
  3463 00002A35 EB08                    	jmp SDEnd01A1
  3464                                  SD01A5:
  3465 00002A37 E8(00000000)            	call pOut
  3466 00002A3C 02222C                  	 db 0x02, '",'
  3467                                  SDEnd01A1:
  3468 00002A3F E8(00000000)            	call cDrop
  3469 00002A44 4831C9                  	xor rPOk, rPOk
  3470 00002A47 48FFC1                  	inc rPOk
  3471 00002A4A 4809C9                  	or rPOk, rPOk
  3472 00002A4D 7505                    	jnz SD01A6
  3473 00002A4F E9DD0F0000              	jmp SDEnd0075
  3474                                  SD01A6:
  3475 00002A54 E8(00000000)            	call cPush
  3476 00002A59 E84ED6FFFF              	call IsBit
  3477 00002A5E 3500000000000000        	 dq 53
  3478 00002A66 4809C9                  	or rPOk, rPOk
  3479 00002A69 7502                    	jnz SD01A7
  3480 00002A6B EB5A                    	jmp SDEnd01A7
  3481                                  SD01A7:
  3482 00002A6D E8(00000000)            	call cPush
  3483 00002A72 E85BD8FFFF              	call LLVAR
  3484 00002A77 E8(00000000)            	call Dec2Bin
  3485 00002A7C 4989C5                  	mov rFactCnt, rax
  3486 00002A7F 4809C0                  	or rax, rax
  3487 00002A82 7502                    	jnz FacRep01A8
  3488 00002A84 EB0E                    	jmp FacEnd01A8
  3489                                  FacRep01A8:
  3490 00002A86 E8(00000000)            	call b
  3491 00002A8B 49FFCD                  	dec rFactCnt
  3492 00002A8E E304                    	jrcxz FacEnd01A8
  3493 00002A90 7402                    	jz FacEnd01A8
  3494 00002A92 EBF2                    	jmp FacRep01A8
  3495                                  FacEnd01A8:
  3496 00002A94 E8(00000000)            	call cDrop
  3497 00002A99 4809C9                  	or rPOk, rPOk
  3498 00002A9C 7502                    	jnz SD01A9
  3499 00002A9E EB27                    	jmp SDEnd01A7
  3500                                  SD01A9:
  3501 00002AA0 E8(00000000)            	call pOut
  3502 00002AA5 210A09224235332053-     	 db 0x21, 0x0a, 0x09, '"B53 Security related info"	: {'
  3502 00002AAE 656375726974792072-
  3502 00002AB7 656C6174656420696E-
  3502 00002AC0 666F22093A207B     
  3503                                  SDEnd01A7:
  3504 00002AC7 4809C9                  	or rPOk, rPOk
  3505 00002ACA 7502                    	jnz AD01AA
  3506 00002ACC EB0F                    	jmp ADEnd01AA
  3507                                  AD01AA:
  3508 00002ACE E8(00000000)            	call cAndProlog
  3509 00002AD3 E8AE6D0000              	call Bit53H2H
  3510 00002AD8 E8(00000000)            	call cAndEpilog
  3511                                  ADEnd01AA:
  3512 00002ADD E8(00000000)            	call cDrop
  3513 00002AE2 4831C9                  	xor rPOk, rPOk
  3514 00002AE5 48FFC1                  	inc rPOk
  3515 00002AE8 4809C9                  	or rPOk, rPOk
  3516 00002AEB 7505                    	jnz SD01AB
  3517 00002AED E93F0F0000              	jmp SDEnd0075
  3518                                  SD01AB:
  3519 00002AF2 E8(00000000)            	call cPush
  3520 00002AF7 E8B0D5FFFF              	call IsBit
  3521 00002AFC 3600000000000000        	 dq 54
  3522 00002B04 4809C9                  	or rPOk, rPOk
  3523 00002B07 7502                    	jnz SD01AC
  3524 00002B09 EB72                    	jmp SDEnd01AC
  3525                                  SD01AC:
  3526 00002B0B E8(00000000)            	call cPush
  3527 00002B10 E8E1D7FFFF              	call LLLVAR
  3528 00002B15 E8(00000000)            	call Dec2Bin
  3529 00002B1A 4989C5                  	mov rFactCnt, rax
  3530 00002B1D 4809C0                  	or rax, rax
  3531 00002B20 7502                    	jnz FacRep01AD
  3532 00002B22 EB0E                    	jmp FacEnd01AD
  3533                                  FacRep01AD:
  3534 00002B24 E81ED6FFFF              	call ans
  3535 00002B29 49FFCD                  	dec rFactCnt
  3536 00002B2C E304                    	jrcxz FacEnd01AD
  3537 00002B2E 7402                    	jz FacEnd01AD
  3538 00002B30 EBF2                    	jmp FacRep01AD
  3539                                  FacEnd01AD:
  3540 00002B32 E8(00000000)            	call cDrop
  3541 00002B37 4809C9                  	or rPOk, rPOk
  3542 00002B3A 7502                    	jnz SD01AE
  3543 00002B3C EB3F                    	jmp SDEnd01AC
  3544                                  SD01AE:
  3545 00002B3E E8(00000000)            	call pOut
  3546 00002B43 1E0A09224235342041-     	 db 0x1E, 0x0a, 0x09, '"B54 Amounts additional"	: "'
  3546 00002B4C 6D6F756E7473206164-
  3546 00002B55 646974696F6E616C22-
  3546 00002B5E 093A2022           
  3547 00002B62 4809C9                  	or rPOk, rPOk
  3548 00002B65 7502                    	jnz SD01AF
  3549 00002B67 EB14                    	jmp SDEnd01AC
  3550                                  SD01AF:
  3551 00002B69 E8(00000000)            	call pOutLI
  3552 00002B6E 4809C9                  	or rPOk, rPOk
  3553 00002B71 7502                    	jnz SD01B0
  3554 00002B73 EB08                    	jmp SDEnd01AC
  3555                                  SD01B0:
  3556 00002B75 E8(00000000)            	call pOut
  3557 00002B7A 02222C                  	 db 0x02, '",'
  3558                                  SDEnd01AC:
  3559 00002B7D E8(00000000)            	call cDrop
  3560 00002B82 4831C9                  	xor rPOk, rPOk
  3561 00002B85 48FFC1                  	inc rPOk
  3562 00002B88 4809C9                  	or rPOk, rPOk
  3563 00002B8B 7505                    	jnz SD01B1
  3564 00002B8D E99F0E0000              	jmp SDEnd0075
  3565                                  SD01B1:
  3566 00002B92 E8(00000000)            	call cPush
  3567 00002B97 E810D5FFFF              	call IsBit
  3568 00002B9C 3700000000000000        	 dq 55
  3569 00002BA4 4809C9                  	or rPOk, rPOk
  3570 00002BA7 7502                    	jnz SD01B2
  3571 00002BA9 EB23                    	jmp SDEnd01B2
  3572                                  SD01B2:
  3573 00002BAB E8(00000000)            	call pOut
  3574 00002BB0 0E0A09224235352209-     	 db 0x0E, 0x0a, 0x09, '"B55"				: "'
  3574 00002BB9 0909093A2022       
  3575 00002BBF 4809C9                  	or rPOk, rPOk
  3576 00002BC2 7502                    	jnz SD01B3
  3577 00002BC4 EB08                    	jmp SDEnd01B2
  3578                                  SD01B3:
  3579 00002BC6 E8(00000000)            	call pOut
  3580 00002BCB 02222C                  	 db 0x02, '",'
  3581                                  SDEnd01B2:
  3582 00002BCE E8(00000000)            	call cDrop
  3583 00002BD3 4831C9                  	xor rPOk, rPOk
  3584 00002BD6 48FFC1                  	inc rPOk
  3585 00002BD9 4809C9                  	or rPOk, rPOk
  3586 00002BDC 7505                    	jnz SD01B4
  3587 00002BDE E94E0E0000              	jmp SDEnd0075
  3588                                  SD01B4:
  3589 00002BE3 E8(00000000)            	call cPush
  3590 00002BE8 E8BFD4FFFF              	call IsBit
  3591 00002BED 3800000000000000        	 dq 56
  3592 00002BF5 4809C9                  	or rPOk, rPOk
  3593 00002BF8 7502                    	jnz SD01B5
  3594 00002BFA EB76                    	jmp SDEnd01B5
  3595                                  SD01B5:
  3596 00002BFC E8(00000000)            	call pOut
  3597 00002C01 220A0922423536204F-     	 db 0x22, 0x0a, 0x09, '"B56 Original data elements"	: "'
  3597 00002C0A 726967696E616C2064-
  3597 00002C13 61746120656C656D65-
  3597 00002C1C 6E747322093A2022   
  3598 00002C24 4809C9                  	or rPOk, rPOk
  3599 00002C27 7502                    	jnz SD01B6
  3600 00002C29 EB47                    	jmp SDEnd01B5
  3601                                  SD01B6:
  3602 00002C2B E8A2D6FFFF              	call LLVAR
  3603 00002C30 E8(00000000)            	call Dec2Bin
  3604 00002C35 4989C5                  	mov rFactCnt, rax
  3605 00002C38 4809C0                  	or rax, rax
  3606 00002C3B 7502                    	jnz FacRep01B7
  3607 00002C3D EB24                    	jmp FacEnd01B7
  3608                                  FacRep01B7:
  3609 00002C3F E8(00000000)            	call cPush
  3610 00002C44 E8(00000000)            	call n
  3611 00002C49 4809C9                  	or rPOk, rPOk
  3612 00002C4C 7502                    	jnz SD01B8
  3613 00002C4E EB05                    	jmp SDEnd01B8
  3614                                  SD01B8:
  3615 00002C50 E8(00000000)            	call pOutLI
  3616                                  SDEnd01B8:
  3617 00002C55 E8(00000000)            	call cDrop
  3618 00002C5A 49FFCD                  	dec rFactCnt
  3619 00002C5D E304                    	jrcxz FacEnd01B7
  3620 00002C5F 7402                    	jz FacEnd01B7
  3621 00002C61 EBDC                    	jmp FacRep01B7
  3622                                  FacEnd01B7:
  3623 00002C63 4809C9                  	or rPOk, rPOk
  3624 00002C66 7502                    	jnz SD01B9
  3625 00002C68 EB08                    	jmp SDEnd01B5
  3626                                  SD01B9:
  3627 00002C6A E8(00000000)            	call pOut
  3628 00002C6F 02222C                  	 db 0x02, '",'
  3629                                  SDEnd01B5:
  3630 00002C72 E8(00000000)            	call cDrop
  3631 00002C77 4831C9                  	xor rPOk, rPOk
  3632 00002C7A 48FFC1                  	inc rPOk
  3633 00002C7D 4809C9                  	or rPOk, rPOk
  3634 00002C80 7505                    	jnz SD01BA
  3635 00002C82 E9AA0D0000              	jmp SDEnd0075
  3636                                  SD01BA:
  3637 00002C87 E8(00000000)            	call cPush
  3638 00002C8C E81BD4FFFF              	call IsBit
  3639 00002C91 3900000000000000        	 dq 57
  3640 00002C99 4809C9                  	or rPOk, rPOk
  3641 00002C9C 7502                    	jnz SD01BB
  3642 00002C9E EB23                    	jmp SDEnd01BB
  3643                                  SD01BB:
  3644 00002CA0 E8(00000000)            	call pOut
  3645 00002CA5 0E0A09224235372209-     	 db 0x0E, 0x0a, 0x09, '"B57"				: "'
  3645 00002CAE 0909093A2022       
  3646 00002CB4 4809C9                  	or rPOk, rPOk
  3647 00002CB7 7502                    	jnz SD01BC
  3648 00002CB9 EB08                    	jmp SDEnd01BB
  3649                                  SD01BC:
  3650 00002CBB E8(00000000)            	call pOut
  3651 00002CC0 02222C                  	 db 0x02, '",'
  3652                                  SDEnd01BB:
  3653 00002CC3 E8(00000000)            	call cDrop
  3654 00002CC8 4831C9                  	xor rPOk, rPOk
  3655 00002CCB 48FFC1                  	inc rPOk
  3656 00002CCE 4809C9                  	or rPOk, rPOk
  3657 00002CD1 7505                    	jnz SD01BD
  3658 00002CD3 E9590D0000              	jmp SDEnd0075
  3659                                  SD01BD:
  3660 00002CD8 E8(00000000)            	call cPush
  3661 00002CDD E8CAD3FFFF              	call IsBit
  3662 00002CE2 3A00000000000000        	 dq 58
  3663 00002CEA 4809C9                  	or rPOk, rPOk
  3664 00002CED 7502                    	jnz SD01BE
  3665 00002CEF EB23                    	jmp SDEnd01BE
  3666                                  SD01BE:
  3667 00002CF1 E8(00000000)            	call pOut
  3668 00002CF6 0E0A09224235382209-     	 db 0x0E, 0x0a, 0x09, '"B58"				: "'
  3668 00002CFF 0909093A2022       
  3669 00002D05 4809C9                  	or rPOk, rPOk
  3670 00002D08 7502                    	jnz SD01BF
  3671 00002D0A EB08                    	jmp SDEnd01BE
  3672                                  SD01BF:
  3673 00002D0C E8(00000000)            	call pOut
  3674 00002D11 02222C                  	 db 0x02, '",'
  3675                                  SDEnd01BE:
  3676 00002D14 E8(00000000)            	call cDrop
  3677 00002D19 4831C9                  	xor rPOk, rPOk
  3678 00002D1C 48FFC1                  	inc rPOk
  3679 00002D1F 4809C9                  	or rPOk, rPOk
  3680 00002D22 7505                    	jnz SD01C0
  3681 00002D24 E9080D0000              	jmp SDEnd0075
  3682                                  SD01C0:
  3683 00002D29 E8(00000000)            	call cPush
  3684 00002D2E E879D3FFFF              	call IsBit
  3685 00002D33 3B00000000000000        	 dq 59
  3686 00002D3B 4809C9                  	or rPOk, rPOk
  3687 00002D3E 7502                    	jnz SD01C1
  3688 00002D40 EB6F                    	jmp SDEnd01C1
  3689                                  SD01C1:
  3690 00002D42 E8(00000000)            	call pOut
  3691 00002D47 1B0A09224235392054-     	 db 0x1B, 0x0a, 0x09, '"B59 Transport data"		: "'
  3691 00002D50 72616E73706F727420-
  3691 00002D59 646174612209093A20-
  3691 00002D62 22                 
  3692 00002D63 4809C9                  	or rPOk, rPOk
  3693 00002D66 7502                    	jnz SD01C2
  3694 00002D68 EB47                    	jmp SDEnd01C1
  3695                                  SD01C2:
  3696 00002D6A E887D5FFFF              	call LLLVAR
  3697 00002D6F E8(00000000)            	call Dec2Bin
  3698 00002D74 4989C5                  	mov rFactCnt, rax
  3699 00002D77 4809C0                  	or rax, rax
  3700 00002D7A 7502                    	jnz FacRep01C3
  3701 00002D7C EB24                    	jmp FacEnd01C3
  3702                                  FacRep01C3:
  3703 00002D7E E8(00000000)            	call cPush
  3704 00002D83 E8BFD3FFFF              	call ans
  3705 00002D88 4809C9                  	or rPOk, rPOk
  3706 00002D8B 7502                    	jnz SD01C4
  3707 00002D8D EB05                    	jmp SDEnd01C4
  3708                                  SD01C4:
  3709 00002D8F E8(00000000)            	call pOutLI
  3710                                  SDEnd01C4:
  3711 00002D94 E8(00000000)            	call cDrop
  3712 00002D99 49FFCD                  	dec rFactCnt
  3713 00002D9C E304                    	jrcxz FacEnd01C3
  3714 00002D9E 7402                    	jz FacEnd01C3
  3715 00002DA0 EBDC                    	jmp FacRep01C3
  3716                                  FacEnd01C3:
  3717 00002DA2 4809C9                  	or rPOk, rPOk
  3718 00002DA5 7502                    	jnz SD01C5
  3719 00002DA7 EB08                    	jmp SDEnd01C1
  3720                                  SD01C5:
  3721 00002DA9 E8(00000000)            	call pOut
  3722 00002DAE 02222C                  	 db 0x02, '",'
  3723                                  SDEnd01C1:
  3724 00002DB1 E8(00000000)            	call cDrop
  3725 00002DB6 4831C9                  	xor rPOk, rPOk
  3726 00002DB9 48FFC1                  	inc rPOk
  3727 00002DBC 4809C9                  	or rPOk, rPOk
  3728 00002DBF 7505                    	jnz SD01C6
  3729 00002DC1 E96B0C0000              	jmp SDEnd0075
  3730                                  SD01C6:
  3731 00002DC6 E8(00000000)            	call cPush
  3732 00002DCB E8DCD2FFFF              	call IsBit
  3733 00002DD0 3C00000000000000        	 dq 60
  3734 00002DD8 4809C9                  	or rPOk, rPOk
  3735 00002DDB 7502                    	jnz SD01C7
  3736 00002DDD EB68                    	jmp SDEnd01C7
  3737                                  SD01C7:
  3738 00002DDF E812D5FFFF              	call LLLVAR
  3739 00002DE4 E8(00000000)            	call Dec2Bin
  3740 00002DE9 4989C5                  	mov rFactCnt, rax
  3741 00002DEC 4809C0                  	or rax, rax
  3742 00002DEF 7502                    	jnz FacRep01C8
  3743 00002DF1 EB0E                    	jmp FacEnd01C8
  3744                                  FacRep01C8:
  3745 00002DF3 E84FD3FFFF              	call ans
  3746 00002DF8 49FFCD                  	dec rFactCnt
  3747 00002DFB E304                    	jrcxz FacEnd01C8
  3748 00002DFD 7402                    	jz FacEnd01C8
  3749 00002DFF EBF2                    	jmp FacRep01C8
  3750                                  FacEnd01C8:
  3751 00002E01 4809C9                  	or rPOk, rPOk
  3752 00002E04 7502                    	jnz SD01C9
  3753 00002E06 EB3F                    	jmp SDEnd01C7
  3754                                  SD01C9:
  3755 00002E08 E8(00000000)            	call pOut
  3756 00002E0D 1E0A09224236302045-     	 db 0x1E, 0x0a, 0x09, '"B60 Entered PIN Digits"	: "'
  3756 00002E16 6E7465726564205049-
  3756 00002E1F 4E2044696769747322-
  3756 00002E28 093A2022           
  3757 00002E2C 4809C9                  	or rPOk, rPOk
  3758 00002E2F 7502                    	jnz SD01CA
  3759 00002E31 EB14                    	jmp SDEnd01C7
  3760                                  SD01CA:
  3761 00002E33 E8(00000000)            	call pOutLI
  3762 00002E38 4809C9                  	or rPOk, rPOk
  3763 00002E3B 7502                    	jnz SD01CB
  3764 00002E3D EB08                    	jmp SDEnd01C7
  3765                                  SD01CB:
  3766 00002E3F E8(00000000)            	call pOut
  3767 00002E44 02222C                  	 db 0x02, '",'
  3768                                  SDEnd01C7:
  3769 00002E47 E8(00000000)            	call cDrop
  3770 00002E4C 4831C9                  	xor rPOk, rPOk
  3771 00002E4F 48FFC1                  	inc rPOk
  3772 00002E52 4809C9                  	or rPOk, rPOk
  3773 00002E55 7505                    	jnz SD01CC
  3774 00002E57 E9D50B0000              	jmp SDEnd0075
  3775                                  SD01CC:
  3776 00002E5C E8(00000000)            	call cPush
  3777 00002E61 E846D2FFFF              	call IsBit
  3778 00002E66 3D00000000000000        	 dq 61
  3779 00002E6E 4809C9                  	or rPOk, rPOk
  3780 00002E71 7502                    	jnz SD01CD
  3781 00002E73 EB69                    	jmp SDEnd01CD
  3782                                  SD01CD:
  3783 00002E75 E87CD4FFFF              	call LLLVAR
  3784 00002E7A E8(00000000)            	call Dec2Bin
  3785 00002E7F 4989C5                  	mov rFactCnt, rax
  3786 00002E82 4809C0                  	or rax, rax
  3787 00002E85 7502                    	jnz FacRep01CE
  3788 00002E87 EB0E                    	jmp FacEnd01CE
  3789                                  FacRep01CE:
  3790 00002E89 E8B9D2FFFF              	call ans
  3791 00002E8E 49FFCD                  	dec rFactCnt
  3792 00002E91 E304                    	jrcxz FacEnd01CE
  3793 00002E93 7402                    	jz FacEnd01CE
  3794 00002E95 EBF2                    	jmp FacRep01CE
  3795                                  FacEnd01CE:
  3796 00002E97 4809C9                  	or rPOk, rPOk
  3797 00002E9A 7502                    	jnz SD01CF
  3798 00002E9C EB40                    	jmp SDEnd01CD
  3799                                  SD01CF:
  3800 00002E9E E8(00000000)            	call pOut
  3801 00002EA3 1F0A09224236312046-     	 db 0x1F, 0x0a, 0x09, '"B61 Failed PIN attempts"	: "'
  3801 00002EAC 61696C65642050494E-
  3801 00002EB5 20617474656D707473-
  3801 00002EBE 22093A2022         
  3802 00002EC3 4809C9                  	or rPOk, rPOk
  3803 00002EC6 7502                    	jnz SD01D0
  3804 00002EC8 EB14                    	jmp SDEnd01CD
  3805                                  SD01D0:
  3806 00002ECA E8(00000000)            	call pOutLI
  3807 00002ECF 4809C9                  	or rPOk, rPOk
  3808 00002ED2 7502                    	jnz SD01D1
  3809 00002ED4 EB08                    	jmp SDEnd01CD
  3810                                  SD01D1:
  3811 00002ED6 E8(00000000)            	call pOut
  3812 00002EDB 02222C                  	 db 0x02, '",'
  3813                                  SDEnd01CD:
  3814 00002EDE E8(00000000)            	call cDrop
  3815 00002EE3 4831C9                  	xor rPOk, rPOk
  3816 00002EE6 48FFC1                  	inc rPOk
  3817 00002EE9 4809C9                  	or rPOk, rPOk
  3818 00002EEC 7505                    	jnz SD01D2
  3819 00002EEE E93E0B0000              	jmp SDEnd0075
  3820                                  SD01D2:
  3821 00002EF3 E8(00000000)            	call cPush
  3822 00002EF8 E8AFD1FFFF              	call IsBit
  3823 00002EFD 3E00000000000000        	 dq 62
  3824 00002F05 4809C9                  	or rPOk, rPOk
  3825 00002F08 7502                    	jnz SD01D3
  3826 00002F0A EB52                    	jmp SDEnd01D3
  3827                                  SD01D3:
  3828 00002F0C E8(00000000)            	call cPush
  3829 00002F11 E8E0D3FFFF              	call LLLVAR
  3830 00002F16 E8(00000000)            	call Dec2Bin
  3831 00002F1B 4989C5                  	mov rFactCnt, rax
  3832 00002F1E 4809C0                  	or rax, rax
  3833 00002F21 7502                    	jnz FacRep01D4
  3834 00002F23 EB0E                    	jmp FacEnd01D4
  3835                                  FacRep01D4:
  3836 00002F25 E81DD2FFFF              	call ans
  3837 00002F2A 49FFCD                  	dec rFactCnt
  3838 00002F2D E304                    	jrcxz FacEnd01D4
  3839 00002F2F 7402                    	jz FacEnd01D4
  3840 00002F31 EBF2                    	jmp FacRep01D4
  3841                                  FacEnd01D4:
  3842 00002F33 E8(00000000)            	call cDrop
  3843 00002F38 4809C9                  	or rPOk, rPOk
  3844 00002F3B 7502                    	jnz SD01D5
  3845 00002F3D EB1F                    	jmp SDEnd01D3
  3846                                  SD01D5:
  3847 00002F3F E8(00000000)            	call pOut
  3848 00002F44 190A09224236322050-     	 db 0x19, 0x0a, 0x09, '"B62 Product sets"		: {'
  3848 00002F4D 726F64756374207365-
  3848 00002F56 74732209093A207B   
  3849                                  SDEnd01D3:
  3850 00002F5E 4809C9                  	or rPOk, rPOk
  3851 00002F61 7502                    	jnz AD01D6
  3852 00002F63 EB0F                    	jmp ADEnd01D6
  3853                                  AD01D6:
  3854 00002F65 E8(00000000)            	call cAndProlog
  3855 00002F6A E8ED730000              	call Bit62
  3856 00002F6F E8(00000000)            	call cAndEpilog
  3857                                  ADEnd01D6:
  3858 00002F74 E8(00000000)            	call cDrop
  3859 00002F79 4831C9                  	xor rPOk, rPOk
  3860 00002F7C 48FFC1                  	inc rPOk
  3861 00002F7F 4809C9                  	or rPOk, rPOk
  3862 00002F82 7505                    	jnz SD01D7
  3863 00002F84 E9A80A0000              	jmp SDEnd0075
  3864                                  SD01D7:
  3865 00002F89 E8(00000000)            	call cPush
  3866 00002F8E E819D1FFFF              	call IsBit
  3867 00002F93 3F00000000000000        	 dq 63
  3868 00002F9B 4809C9                  	or rPOk, rPOk
  3869 00002F9E 7502                    	jnz SD01D8
  3870 00002FA0 EB52                    	jmp SDEnd01D8
  3871                                  SD01D8:
  3872 00002FA2 E8(00000000)            	call cPush
  3873 00002FA7 E84AD3FFFF              	call LLLVAR
  3874 00002FAC E8(00000000)            	call Dec2Bin
  3875 00002FB1 4989C5                  	mov rFactCnt, rax
  3876 00002FB4 4809C0                  	or rax, rax
  3877 00002FB7 7502                    	jnz FacRep01D9
  3878 00002FB9 EB0E                    	jmp FacEnd01D9
  3879                                  FacRep01D9:
  3880 00002FBB E887D1FFFF              	call ans
  3881 00002FC0 49FFCD                  	dec rFactCnt
  3882 00002FC3 E304                    	jrcxz FacEnd01D9
  3883 00002FC5 7402                    	jz FacEnd01D9
  3884 00002FC7 EBF2                    	jmp FacRep01D9
  3885                                  FacEnd01D9:
  3886 00002FC9 E8(00000000)            	call cDrop
  3887 00002FCE 4809C9                  	or rPOk, rPOk
  3888 00002FD1 7502                    	jnz SD01DA
  3889 00002FD3 EB1F                    	jmp SDEnd01D8
  3890                                  SD01DA:
  3891 00002FD5 E8(00000000)            	call pOut
  3892 00002FDA 190A09224236332050-     	 db 0x19, 0x0a, 0x09, '"B63 Product data"		: {'
  3892 00002FE3 726F64756374206461-
  3892 00002FEC 74612209093A207B   
  3893                                  SDEnd01D8:
  3894 00002FF4 4809C9                  	or rPOk, rPOk
  3895 00002FF7 7502                    	jnz AD01DB
  3896 00002FF9 EB6A                    	jmp ADEnd01DB
  3897                                  AD01DB:
  3898 00002FFB E8(00000000)            	call cAndProlog
  3899 00003000 E8(00000000)            	call cPush
  3900 00003005 E881750000              	call Bit63
  3901 0000300A E302                    	jrcxz DL01DC
  3902 0000300C EB4D                    	jmp DLEnd01DC
  3903 0000300E 48FFC1                  DL01DC:	inc rcx
  3904 00003011 E8(00000000)            	call cTop
  3905 00003016 E8DBD2FFFF              	call LLLVAR
  3906 0000301B E8(00000000)            	call Dec2Bin
  3907 00003020 4989C5                  	mov rFactCnt, rax
  3908 00003023 4809C0                  	or rax, rax
  3909 00003026 7502                    	jnz FacRep01DD
  3910 00003028 EB0E                    	jmp FacEnd01DD
  3911                                  FacRep01DD:
  3912 0000302A E818D1FFFF              	call ans
  3913 0000302F 49FFCD                  	dec rFactCnt
  3914 00003032 E304                    	jrcxz FacEnd01DD
  3915 00003034 7402                    	jz FacEnd01DD
  3916 00003036 EBF2                    	jmp FacRep01DD
  3917                                  FacEnd01DD:
  3918 00003038 4809C9                  	or rPOk, rPOk
  3919 0000303B 7502                    	jnz SD01DE
  3920 0000303D EB1C                    	jmp SDEnd01DE
  3921                                  SD01DE:
  3922 0000303F E8(00000000)            	call pOut
  3923 00003044 16225761726E696E67-     	 db 0x16, '"Warning format error"'
  3923 0000304D 20666F726D61742065-
  3923 00003056 72726F7222         
  3924                                  SDEnd01DE:
  3925                                  DLEnd01DC:
  3926 0000305B E8(00000000)            	call cDrop
  3927 00003060 E8(00000000)            	call cAndEpilog
  3928                                  ADEnd01DB:
  3929 00003065 E8(00000000)            	call cDrop
  3930 0000306A 4831C9                  	xor rPOk, rPOk
  3931 0000306D 48FFC1                  	inc rPOk
  3932 00003070 4809C9                  	or rPOk, rPOk
  3933 00003073 7505                    	jnz SD01DF
  3934 00003075 E9B7090000              	jmp SDEnd0075
  3935                                  SD01DF:
  3936 0000307A E8(00000000)            	call cPush
  3937 0000307F E828D0FFFF              	call IsBit
  3938 00003084 4000000000000000        	 dq 64
  3939 0000308C 4809C9                  	or rPOk, rPOk
  3940 0000308F 7502                    	jnz SD01E0
  3941 00003091 EB5C                    	jmp SDEnd01E0
  3942                                  SD01E0:
  3943 00003093 E8(00000000)            	call cPush
  3944 00003098 41BD08000000            	mov rFactCnt, 8
  3945 0000309E 4D09ED                  	or rFactCnt, rFactCnt
  3946 000030A1 740E                    	jz FacEnd01E1
  3947                                  FacRep01E1:
  3948 000030A3 E8(00000000)            	call b
  3949 000030A8 49FFCD                  	dec rFactCnt
  3950 000030AB E304                    	jrcxz FacEnd01E1
  3951 000030AD 7402                    	jz FacEnd01E1
  3952 000030AF EBF2                    	jmp FacRep01E1
  3953                                  FacEnd01E1:
  3954 000030B1 E8(00000000)            	call cDrop
  3955 000030B6 4809C9                  	or rPOk, rPOk
  3956 000030B9 7502                    	jnz SD01E2
  3957 000030BB EB32                    	jmp SDEnd01E0
  3958                                  SD01E2:
  3959 000030BD E8(00000000)            	call pOut
  3960 000030C2 110A0922423634204D-     	 db 0x11, 0x0a, 0x09, '"B64 MAC"			: "'
  3960 000030CB 4143220909093A2022 
  3961 000030D4 4809C9                  	or rPOk, rPOk
  3962 000030D7 7502                    	jnz SD01E3
  3963 000030D9 EB14                    	jmp SDEnd01E0
  3964                                  SD01E3:
  3965 000030DB E8(00000000)            	call pOutLIHex
  3966 000030E0 4809C9                  	or rPOk, rPOk
  3967 000030E3 7502                    	jnz SD01E4
  3968 000030E5 EB08                    	jmp SDEnd01E0
  3969                                  SD01E4:
  3970 000030E7 E8(00000000)            	call pOut
  3971 000030EC 02222C                  	 db 0x02, '",'
  3972                                  SDEnd01E0:
  3973 000030EF E8(00000000)            	call cDrop
  3974 000030F4 4831C9                  	xor rPOk, rPOk
  3975 000030F7 48FFC1                  	inc rPOk
  3976 000030FA 4809C9                  	or rPOk, rPOk
  3977 000030FD 7505                    	jnz SD01E5
  3978 000030FF E92D090000              	jmp SDEnd0075
  3979                                  SD01E5:
  3980 00003104 E8(00000000)            	call cPush
  3981 00003109 E8C9CFFFFF              	call IsBit1
  3982 0000310E 4A00000000000000        	 dq 74
  3983 00003116 4809C9                  	or rPOk, rPOk
  3984 00003119 7502                    	jnz SD01E6
  3985 0000311B EB66                    	jmp SDEnd01E6
  3986                                  SD01E6:
  3987 0000311D E8(00000000)            	call cPush
  3988 00003122 41BD0A000000            	mov rFactCnt, 10
  3989 00003128 4D09ED                  	or rFactCnt, rFactCnt
  3990 0000312B 740E                    	jz FacEnd01E7
  3991                                  FacRep01E7:
  3992 0000312D E8(00000000)            	call n
  3993 00003132 49FFCD                  	dec rFactCnt
  3994 00003135 E304                    	jrcxz FacEnd01E7
  3995 00003137 7402                    	jz FacEnd01E7
  3996 00003139 EBF2                    	jmp FacRep01E7
  3997                                  FacEnd01E7:
  3998 0000313B E8(00000000)            	call cDrop
  3999 00003140 4809C9                  	or rPOk, rPOk
  4000 00003143 7502                    	jnz SD01E8
  4001 00003145 EB3C                    	jmp SDEnd01E6
  4002                                  SD01E8:
  4003 00003147 E8(00000000)            	call pOut
  4004 0000314C 1B0A09224237342043-     	 db 0x1B, 0x0a, 0x09, '"B74 Credits number"		: "'
  4004 00003155 726564697473206E75-
  4004 0000315E 6D6265722209093A20-
  4004 00003167 22                 
  4005 00003168 4809C9                  	or rPOk, rPOk
  4006 0000316B 7502                    	jnz SD01E9
  4007 0000316D EB14                    	jmp SDEnd01E6
  4008                                  SD01E9:
  4009 0000316F E8(00000000)            	call pOutLI
  4010 00003174 4809C9                  	or rPOk, rPOk
  4011 00003177 7502                    	jnz SD01EA
  4012 00003179 EB08                    	jmp SDEnd01E6
  4013                                  SD01EA:
  4014 0000317B E8(00000000)            	call pOut
  4015 00003180 02222C                  	 db 0x02, '",'
  4016                                  SDEnd01E6:
  4017 00003183 E8(00000000)            	call cDrop
  4018 00003188 4831C9                  	xor rPOk, rPOk
  4019 0000318B 48FFC1                  	inc rPOk
  4020 0000318E 4809C9                  	or rPOk, rPOk
  4021 00003191 7505                    	jnz SD01EB
  4022 00003193 E999080000              	jmp SDEnd0075
  4023                                  SD01EB:
  4024 00003198 E8(00000000)            	call cPush
  4025 0000319D E835CFFFFF              	call IsBit1
  4026 000031A2 4B00000000000000        	 dq 75
  4027 000031AA 4809C9                  	or rPOk, rPOk
  4028 000031AD 7502                    	jnz SD01EC
  4029 000031AF EB6E                    	jmp SDEnd01EC
  4030                                  SD01EC:
  4031 000031B1 E8(00000000)            	call cPush
  4032 000031B6 41BD0A000000            	mov rFactCnt, 10
  4033 000031BC 4D09ED                  	or rFactCnt, rFactCnt
  4034 000031BF 740E                    	jz FacEnd01ED
  4035                                  FacRep01ED:
  4036 000031C1 E8(00000000)            	call n
  4037 000031C6 49FFCD                  	dec rFactCnt
  4038 000031C9 E304                    	jrcxz FacEnd01ED
  4039 000031CB 7402                    	jz FacEnd01ED
  4040 000031CD EBF2                    	jmp FacRep01ED
  4041                                  FacEnd01ED:
  4042 000031CF E8(00000000)            	call cDrop
  4043 000031D4 4809C9                  	or rPOk, rPOk
  4044 000031D7 7502                    	jnz SD01EE
  4045 000031D9 EB44                    	jmp SDEnd01EC
  4046                                  SD01EE:
  4047 000031DB E8(00000000)            	call pOut
  4048 000031E0 230A09224237352043-     	 db 0x23, 0x0a, 0x09, '"B75 Credits reversal number"	: "'
  4048 000031E9 726564697473207265-
  4048 000031F2 76657273616C206E75-
  4048 000031FB 6D62657222093A2022 
  4049 00003204 4809C9                  	or rPOk, rPOk
  4050 00003207 7502                    	jnz SD01EF
  4051 00003209 EB14                    	jmp SDEnd01EC
  4052                                  SD01EF:
  4053 0000320B E8(00000000)            	call pOutLI
  4054 00003210 4809C9                  	or rPOk, rPOk
  4055 00003213 7502                    	jnz SD01F0
  4056 00003215 EB08                    	jmp SDEnd01EC
  4057                                  SD01F0:
  4058 00003217 E8(00000000)            	call pOut
  4059 0000321C 02222C                  	 db 0x02, '",'
  4060                                  SDEnd01EC:
  4061 0000321F E8(00000000)            	call cDrop
  4062 00003224 4831C9                  	xor rPOk, rPOk
  4063 00003227 48FFC1                  	inc rPOk
  4064 0000322A 4809C9                  	or rPOk, rPOk
  4065 0000322D 7505                    	jnz SD01F1
  4066 0000322F E9FD070000              	jmp SDEnd0075
  4067                                  SD01F1:
  4068 00003234 E8(00000000)            	call cPush
  4069 00003239 E899CEFFFF              	call IsBit1
  4070 0000323E 4C00000000000000        	 dq 76
  4071 00003246 4809C9                  	or rPOk, rPOk
  4072 00003249 7502                    	jnz SD01F2
  4073 0000324B EB65                    	jmp SDEnd01F2
  4074                                  SD01F2:
  4075 0000324D E8(00000000)            	call cPush
  4076 00003252 41BD0A000000            	mov rFactCnt, 10
  4077 00003258 4D09ED                  	or rFactCnt, rFactCnt
  4078 0000325B 740E                    	jz FacEnd01F3
  4079                                  FacRep01F3:
  4080 0000325D E8(00000000)            	call n
  4081 00003262 49FFCD                  	dec rFactCnt
  4082 00003265 E304                    	jrcxz FacEnd01F3
  4083 00003267 7402                    	jz FacEnd01F3
  4084 00003269 EBF2                    	jmp FacRep01F3
  4085                                  FacEnd01F3:
  4086 0000326B E8(00000000)            	call cDrop
  4087 00003270 4809C9                  	or rPOk, rPOk
  4088 00003273 7502                    	jnz SD01F4
  4089 00003275 EB3B                    	jmp SDEnd01F2
  4090                                  SD01F4:
  4091 00003277 E8(00000000)            	call pOut
  4092 0000327C 1A0A09224237362044-     	 db 0x1A, 0x0a, 0x09, '"B76 Debits number"		: "'
  4092 00003285 6562697473206E756D-
  4092 0000328E 6265722209093A2022 
  4093 00003297 4809C9                  	or rPOk, rPOk
  4094 0000329A 7502                    	jnz SD01F5
  4095 0000329C EB14                    	jmp SDEnd01F2
  4096                                  SD01F5:
  4097 0000329E E8(00000000)            	call pOutLI
  4098 000032A3 4809C9                  	or rPOk, rPOk
  4099 000032A6 7502                    	jnz SD01F6
  4100 000032A8 EB08                    	jmp SDEnd01F2
  4101                                  SD01F6:
  4102 000032AA E8(00000000)            	call pOut
  4103 000032AF 02222C                  	 db 0x02, '",'
  4104                                  SDEnd01F2:
  4105 000032B2 E8(00000000)            	call cDrop
  4106 000032B7 4831C9                  	xor rPOk, rPOk
  4107 000032BA 48FFC1                  	inc rPOk
  4108 000032BD 4809C9                  	or rPOk, rPOk
  4109 000032C0 7505                    	jnz SD01F7
  4110 000032C2 E96A070000              	jmp SDEnd0075
  4111                                  SD01F7:
  4112 000032C7 E8(00000000)            	call cPush
  4113 000032CC E806CEFFFF              	call IsBit1
  4114 000032D1 4D00000000000000        	 dq 77
  4115 000032D9 4809C9                  	or rPOk, rPOk
  4116 000032DC 7502                    	jnz SD01F8
  4117 000032DE EB6D                    	jmp SDEnd01F8
  4118                                  SD01F8:
  4119 000032E0 E8(00000000)            	call cPush
  4120 000032E5 41BD0A000000            	mov rFactCnt, 10
  4121 000032EB 4D09ED                  	or rFactCnt, rFactCnt
  4122 000032EE 740E                    	jz FacEnd01F9
  4123                                  FacRep01F9:
  4124 000032F0 E8(00000000)            	call n
  4125 000032F5 49FFCD                  	dec rFactCnt
  4126 000032F8 E304                    	jrcxz FacEnd01F9
  4127 000032FA 7402                    	jz FacEnd01F9
  4128 000032FC EBF2                    	jmp FacRep01F9
  4129                                  FacEnd01F9:
  4130 000032FE E8(00000000)            	call cDrop
  4131 00003303 4809C9                  	or rPOk, rPOk
  4132 00003306 7502                    	jnz SD01FA
  4133 00003308 EB43                    	jmp SDEnd01F8
  4134                                  SD01FA:
  4135 0000330A E8(00000000)            	call pOut
  4136 0000330F 220A09224237372044-     	 db 0x22, 0x0a, 0x09, '"B77 Debits reversal number"	: "'
  4136 00003318 656269747320726576-
  4136 00003321 657273616C206E756D-
  4136 0000332A 62657222093A2022   
  4137 00003332 4809C9                  	or rPOk, rPOk
  4138 00003335 7502                    	jnz SD01FB
  4139 00003337 EB14                    	jmp SDEnd01F8
  4140                                  SD01FB:
  4141 00003339 E8(00000000)            	call pOutLI
  4142 0000333E 4809C9                  	or rPOk, rPOk
  4143 00003341 7502                    	jnz SD01FC
  4144 00003343 EB08                    	jmp SDEnd01F8
  4145                                  SD01FC:
  4146 00003345 E8(00000000)            	call pOut
  4147 0000334A 02222C                  	 db 0x02, '",'
  4148                                  SDEnd01F8:
  4149 0000334D E8(00000000)            	call cDrop
  4150 00003352 4831C9                  	xor rPOk, rPOk
  4151 00003355 48FFC1                  	inc rPOk
  4152 00003358 4809C9                  	or rPOk, rPOk
  4153 0000335B 7505                    	jnz SD01FD
  4154 0000335D E9CF060000              	jmp SDEnd0075
  4155                                  SD01FD:
  4156 00003362 E8(00000000)            	call cPush
  4157 00003367 E86BCDFFFF              	call IsBit1
  4158 0000336C 5600000000000000        	 dq 86
  4159 00003374 4809C9                  	or rPOk, rPOk
  4160 00003377 7502                    	jnz SD01FE
  4161 00003379 EB59                    	jmp SDEnd01FE
  4162                                  SD01FE:
  4163 0000337B E8(00000000)            	call cPush
  4164 00003380 41BD10000000            	mov rFactCnt, 16
  4165 00003386 4D09ED                  	or rFactCnt, rFactCnt
  4166 00003389 740E                    	jz FacEnd01FF
  4167                                  FacRep01FF:
  4168 0000338B E8(00000000)            	call n
  4169 00003390 49FFCD                  	dec rFactCnt
  4170 00003393 E304                    	jrcxz FacEnd01FF
  4171 00003395 7402                    	jz FacEnd01FF
  4172 00003397 EBF2                    	jmp FacRep01FF
  4173                                  FacEnd01FF:
  4174 00003399 E8(00000000)            	call cDrop
  4175 0000339E 4809C9                  	or rPOk, rPOk
  4176 000033A1 7502                    	jnz SD0200
  4177 000033A3 EB2F                    	jmp SDEnd01FE
  4178                                  SD0200:
  4179 000033A5 E8(00000000)            	call pOut
  4180 000033AA 1B0A09224238362043-     	 db 0x1B, 0x0a, 0x09, '"B86 Credits amount"		: "'
  4180 000033B3 72656469747320616D-
  4180 000033BC 6F756E742209093A20-
  4180 000033C5 22                 
  4181 000033C6 4809C9                  	or rPOk, rPOk
  4182 000033C9 7502                    	jnz SD0201
  4183 000033CB EB07                    	jmp SDEnd01FE
  4184                                  SD0201:
  4185 000033CD E8(00000000)            	call pOut
  4186 000033D2 0128                    	 db 0x01, "("
  4187                                  SDEnd01FE:
  4188 000033D4 4809C9                  	or rPOk, rPOk
  4189 000033D7 7505                    	jnz AD0202
  4190 000033D9 E99D000000              	jmp ADEnd0202
  4191                                  AD0202:
  4192 000033DE E8(00000000)            	call cAndProlog
  4193 000033E3 E8(00000000)            	call cPush
  4194 000033E8 41BD0E000000            	mov rFactCnt, 14
  4195 000033EE 4D09ED                  	or rFactCnt, rFactCnt
  4196 000033F1 740E                    	jz FacEnd0203
  4197                                  FacRep0203:
  4198 000033F3 E8(00000000)            	call n
  4199 000033F8 49FFCD                  	dec rFactCnt
  4200 000033FB E304                    	jrcxz FacEnd0203
  4201 000033FD 7402                    	jz FacEnd0203
  4202 000033FF EBF2                    	jmp FacRep0203
  4203                                  FacEnd0203:
  4204 00003401 E8(00000000)            	call cDrop
  4205 00003406 4809C9                  	or rPOk, rPOk
  4206 00003409 7502                    	jnz SD0204
  4207 0000340B EB69                    	jmp SDEnd0204
  4208                                  SD0204:
  4209 0000340D E8(00000000)            	call pOutLITrim
  4210 00003412 4809C9                  	or rPOk, rPOk
  4211 00003415 7502                    	jnz SD0205
  4212 00003417 EB5D                    	jmp SDEnd0204
  4213                                  SD0205:
  4214 00003419 E8(00000000)            	call pOut
  4215 0000341E 012E                    	 db 0x01, "."
  4216 00003420 4809C9                  	or rPOk, rPOk
  4217 00003423 7502                    	jnz SD0206
  4218 00003425 EB4F                    	jmp SDEnd0204
  4219                                  SD0206:
  4220 00003427 E8(00000000)            	call cPush
  4221 0000342C 41BD02000000            	mov rFactCnt, 2
  4222 00003432 4D09ED                  	or rFactCnt, rFactCnt
  4223 00003435 740E                    	jz FacEnd0207
  4224                                  FacRep0207:
  4225 00003437 E8(00000000)            	call n
  4226 0000343C 49FFCD                  	dec rFactCnt
  4227 0000343F E304                    	jrcxz FacEnd0207
  4228 00003441 7402                    	jz FacEnd0207
  4229 00003443 EBF2                    	jmp FacRep0207
  4230                                  FacEnd0207:
  4231 00003445 E8(00000000)            	call cDrop
  4232 0000344A 4809C9                  	or rPOk, rPOk
  4233 0000344D 7502                    	jnz SD0208
  4234 0000344F EB25                    	jmp SDEnd0204
  4235                                  SD0208:
  4236 00003451 E8(00000000)            	call pOutLI
  4237 00003456 4809C9                  	or rPOk, rPOk
  4238 00003459 7502                    	jnz SD0209
  4239 0000345B EB19                    	jmp SDEnd0204
  4240                                  SD0209:
  4241 0000345D E8(00000000)            	call pOut
  4242 00003462 045B6C5D29              	 db 0x04, "[l])"
  4243 00003467 4809C9                  	or rPOk, rPOk
  4244 0000346A 7502                    	jnz SD020A
  4245 0000346C EB08                    	jmp SDEnd0204
  4246                                  SD020A:
  4247 0000346E E8(00000000)            	call pOut
  4248 00003473 02222C                  	 db 0x02, '",'
  4249                                  SDEnd0204:
  4250 00003476 E8(00000000)            	call cAndEpilog
  4251                                  ADEnd0202:
  4252 0000347B E8(00000000)            	call cDrop
  4253 00003480 4831C9                  	xor rPOk, rPOk
  4254 00003483 48FFC1                  	inc rPOk
  4255 00003486 4809C9                  	or rPOk, rPOk
  4256 00003489 7505                    	jnz SD020B
  4257 0000348B E9A1050000              	jmp SDEnd0075
  4258                                  SD020B:
  4259 00003490 E8(00000000)            	call cPush
  4260 00003495 E83DCCFFFF              	call IsBit1
  4261 0000349A 5700000000000000        	 dq 87
  4262 000034A2 4809C9                  	or rPOk, rPOk
  4263 000034A5 7502                    	jnz SD020C
  4264 000034A7 EB61                    	jmp SDEnd020C
  4265                                  SD020C:
  4266 000034A9 E8(00000000)            	call cPush
  4267 000034AE 41BD10000000            	mov rFactCnt, 16
  4268 000034B4 4D09ED                  	or rFactCnt, rFactCnt
  4269 000034B7 740E                    	jz FacEnd020D
  4270                                  FacRep020D:
  4271 000034B9 E8(00000000)            	call n
  4272 000034BE 49FFCD                  	dec rFactCnt
  4273 000034C1 E304                    	jrcxz FacEnd020D
  4274 000034C3 7402                    	jz FacEnd020D
  4275 000034C5 EBF2                    	jmp FacRep020D
  4276                                  FacEnd020D:
  4277 000034C7 E8(00000000)            	call cDrop
  4278 000034CC 4809C9                  	or rPOk, rPOk
  4279 000034CF 7502                    	jnz SD020E
  4280 000034D1 EB37                    	jmp SDEnd020C
  4281                                  SD020E:
  4282 000034D3 E8(00000000)            	call pOut
  4283 000034D8 230A09224238372043-     	 db 0x23, 0x0a, 0x09, '"B87 Credits reversal amount"	: "'
  4283 000034E1 726564697473207265-
  4283 000034EA 76657273616C20616D-
  4283 000034F3 6F756E7422093A2022 
  4284 000034FC 4809C9                  	or rPOk, rPOk
  4285 000034FF 7502                    	jnz SD020F
  4286 00003501 EB07                    	jmp SDEnd020C
  4287                                  SD020F:
  4288 00003503 E8(00000000)            	call pOut
  4289 00003508 0128                    	 db 0x01, "("
  4290                                  SDEnd020C:
  4291 0000350A 4809C9                  	or rPOk, rPOk
  4292 0000350D 7505                    	jnz AD0210
  4293 0000350F E99D000000              	jmp ADEnd0210
  4294                                  AD0210:
  4295 00003514 E8(00000000)            	call cAndProlog
  4296 00003519 E8(00000000)            	call cPush
  4297 0000351E 41BD0E000000            	mov rFactCnt, 14
  4298 00003524 4D09ED                  	or rFactCnt, rFactCnt
  4299 00003527 740E                    	jz FacEnd0211
  4300                                  FacRep0211:
  4301 00003529 E8(00000000)            	call n
  4302 0000352E 49FFCD                  	dec rFactCnt
  4303 00003531 E304                    	jrcxz FacEnd0211
  4304 00003533 7402                    	jz FacEnd0211
  4305 00003535 EBF2                    	jmp FacRep0211
  4306                                  FacEnd0211:
  4307 00003537 E8(00000000)            	call cDrop
  4308 0000353C 4809C9                  	or rPOk, rPOk
  4309 0000353F 7502                    	jnz SD0212
  4310 00003541 EB69                    	jmp SDEnd0212
  4311                                  SD0212:
  4312 00003543 E8(00000000)            	call pOutLITrim
  4313 00003548 4809C9                  	or rPOk, rPOk
  4314 0000354B 7502                    	jnz SD0213
  4315 0000354D EB5D                    	jmp SDEnd0212
  4316                                  SD0213:
  4317 0000354F E8(00000000)            	call pOut
  4318 00003554 012E                    	 db 0x01, "."
  4319 00003556 4809C9                  	or rPOk, rPOk
  4320 00003559 7502                    	jnz SD0214
  4321 0000355B EB4F                    	jmp SDEnd0212
  4322                                  SD0214:
  4323 0000355D E8(00000000)            	call cPush
  4324 00003562 41BD02000000            	mov rFactCnt, 2
  4325 00003568 4D09ED                  	or rFactCnt, rFactCnt
  4326 0000356B 740E                    	jz FacEnd0215
  4327                                  FacRep0215:
  4328 0000356D E8(00000000)            	call n
  4329 00003572 49FFCD                  	dec rFactCnt
  4330 00003575 E304                    	jrcxz FacEnd0215
  4331 00003577 7402                    	jz FacEnd0215
  4332 00003579 EBF2                    	jmp FacRep0215
  4333                                  FacEnd0215:
  4334 0000357B E8(00000000)            	call cDrop
  4335 00003580 4809C9                  	or rPOk, rPOk
  4336 00003583 7502                    	jnz SD0216
  4337 00003585 EB25                    	jmp SDEnd0212
  4338                                  SD0216:
  4339 00003587 E8(00000000)            	call pOutLI
  4340 0000358C 4809C9                  	or rPOk, rPOk
  4341 0000358F 7502                    	jnz SD0217
  4342 00003591 EB19                    	jmp SDEnd0212
  4343                                  SD0217:
  4344 00003593 E8(00000000)            	call pOut
  4345 00003598 045B6C5D29              	 db 0x04, "[l])"
  4346 0000359D 4809C9                  	or rPOk, rPOk
  4347 000035A0 7502                    	jnz SD0218
  4348 000035A2 EB08                    	jmp SDEnd0212
  4349                                  SD0218:
  4350 000035A4 E8(00000000)            	call pOut
  4351 000035A9 02222C                  	 db 0x02, '",'
  4352                                  SDEnd0212:
  4353 000035AC E8(00000000)            	call cAndEpilog
  4354                                  ADEnd0210:
  4355 000035B1 E8(00000000)            	call cDrop
  4356 000035B6 4831C9                  	xor rPOk, rPOk
  4357 000035B9 48FFC1                  	inc rPOk
  4358 000035BC 4809C9                  	or rPOk, rPOk
  4359 000035BF 7505                    	jnz SD0219
  4360 000035C1 E96B040000              	jmp SDEnd0075
  4361                                  SD0219:
  4362 000035C6 E8(00000000)            	call cPush
  4363 000035CB E807CBFFFF              	call IsBit1
  4364 000035D0 5800000000000000        	 dq 88
  4365 000035D8 4809C9                  	or rPOk, rPOk
  4366 000035DB 7502                    	jnz SD021A
  4367 000035DD EB58                    	jmp SDEnd021A
  4368                                  SD021A:
  4369 000035DF E8(00000000)            	call cPush
  4370 000035E4 41BD10000000            	mov rFactCnt, 16
  4371 000035EA 4D09ED                  	or rFactCnt, rFactCnt
  4372 000035ED 740E                    	jz FacEnd021B
  4373                                  FacRep021B:
  4374 000035EF E8(00000000)            	call n
  4375 000035F4 49FFCD                  	dec rFactCnt
  4376 000035F7 E304                    	jrcxz FacEnd021B
  4377 000035F9 7402                    	jz FacEnd021B
  4378 000035FB EBF2                    	jmp FacRep021B
  4379                                  FacEnd021B:
  4380 000035FD E8(00000000)            	call cDrop
  4381 00003602 4809C9                  	or rPOk, rPOk
  4382 00003605 7502                    	jnz SD021C
  4383 00003607 EB2E                    	jmp SDEnd021A
  4384                                  SD021C:
  4385 00003609 E8(00000000)            	call pOut
  4386 0000360E 1A0A09224238382044-     	 db 0x1A, 0x0a, 0x09, '"B88 Debits amount"		: "'
  4386 00003617 656269747320616D6F-
  4386 00003620 756E742209093A2022 
  4387 00003629 4809C9                  	or rPOk, rPOk
  4388 0000362C 7502                    	jnz SD021D
  4389 0000362E EB07                    	jmp SDEnd021A
  4390                                  SD021D:
  4391 00003630 E8(00000000)            	call pOut
  4392 00003635 0128                    	 db 0x01, "("
  4393                                  SDEnd021A:
  4394 00003637 4809C9                  	or rPOk, rPOk
  4395 0000363A 7505                    	jnz AD021E
  4396 0000363C E99D000000              	jmp ADEnd021E
  4397                                  AD021E:
  4398 00003641 E8(00000000)            	call cAndProlog
  4399 00003646 E8(00000000)            	call cPush
  4400 0000364B 41BD0E000000            	mov rFactCnt, 14
  4401 00003651 4D09ED                  	or rFactCnt, rFactCnt
  4402 00003654 740E                    	jz FacEnd021F
  4403                                  FacRep021F:
  4404 00003656 E8(00000000)            	call n
  4405 0000365B 49FFCD                  	dec rFactCnt
  4406 0000365E E304                    	jrcxz FacEnd021F
  4407 00003660 7402                    	jz FacEnd021F
  4408 00003662 EBF2                    	jmp FacRep021F
  4409                                  FacEnd021F:
  4410 00003664 E8(00000000)            	call cDrop
  4411 00003669 4809C9                  	or rPOk, rPOk
  4412 0000366C 7502                    	jnz SD0220
  4413 0000366E EB69                    	jmp SDEnd0220
  4414                                  SD0220:
  4415 00003670 E8(00000000)            	call pOutLITrim
  4416 00003675 4809C9                  	or rPOk, rPOk
  4417 00003678 7502                    	jnz SD0221
  4418 0000367A EB5D                    	jmp SDEnd0220
  4419                                  SD0221:
  4420 0000367C E8(00000000)            	call pOut
  4421 00003681 012E                    	 db 0x01, "."
  4422 00003683 4809C9                  	or rPOk, rPOk
  4423 00003686 7502                    	jnz SD0222
  4424 00003688 EB4F                    	jmp SDEnd0220
  4425                                  SD0222:
  4426 0000368A E8(00000000)            	call cPush
  4427 0000368F 41BD02000000            	mov rFactCnt, 2
  4428 00003695 4D09ED                  	or rFactCnt, rFactCnt
  4429 00003698 740E                    	jz FacEnd0223
  4430                                  FacRep0223:
  4431 0000369A E8(00000000)            	call n
  4432 0000369F 49FFCD                  	dec rFactCnt
  4433 000036A2 E304                    	jrcxz FacEnd0223
  4434 000036A4 7402                    	jz FacEnd0223
  4435 000036A6 EBF2                    	jmp FacRep0223
  4436                                  FacEnd0223:
  4437 000036A8 E8(00000000)            	call cDrop
  4438 000036AD 4809C9                  	or rPOk, rPOk
  4439 000036B0 7502                    	jnz SD0224
  4440 000036B2 EB25                    	jmp SDEnd0220
  4441                                  SD0224:
  4442 000036B4 E8(00000000)            	call pOutLI
  4443 000036B9 4809C9                  	or rPOk, rPOk
  4444 000036BC 7502                    	jnz SD0225
  4445 000036BE EB19                    	jmp SDEnd0220
  4446                                  SD0225:
  4447 000036C0 E8(00000000)            	call pOut
  4448 000036C5 045B6C5D29              	 db 0x04, "[l])"
  4449 000036CA 4809C9                  	or rPOk, rPOk
  4450 000036CD 7502                    	jnz SD0226
  4451 000036CF EB08                    	jmp SDEnd0220
  4452                                  SD0226:
  4453 000036D1 E8(00000000)            	call pOut
  4454 000036D6 02222C                  	 db 0x02, '",'
  4455                                  SDEnd0220:
  4456 000036D9 E8(00000000)            	call cAndEpilog
  4457                                  ADEnd021E:
  4458 000036DE E8(00000000)            	call cDrop
  4459 000036E3 4831C9                  	xor rPOk, rPOk
  4460 000036E6 48FFC1                  	inc rPOk
  4461 000036E9 4809C9                  	or rPOk, rPOk
  4462 000036EC 7505                    	jnz SD0227
  4463 000036EE E93E030000              	jmp SDEnd0075
  4464                                  SD0227:
  4465 000036F3 E8(00000000)            	call cPush
  4466 000036F8 E8DAC9FFFF              	call IsBit1
  4467 000036FD 5900000000000000        	 dq 89
  4468 00003705 4809C9                  	or rPOk, rPOk
  4469 00003708 7502                    	jnz SD0228
  4470 0000370A EB60                    	jmp SDEnd0228
  4471                                  SD0228:
  4472 0000370C E8(00000000)            	call cPush
  4473 00003711 41BD10000000            	mov rFactCnt, 16
  4474 00003717 4D09ED                  	or rFactCnt, rFactCnt
  4475 0000371A 740E                    	jz FacEnd0229
  4476                                  FacRep0229:
  4477 0000371C E8(00000000)            	call n
  4478 00003721 49FFCD                  	dec rFactCnt
  4479 00003724 E304                    	jrcxz FacEnd0229
  4480 00003726 7402                    	jz FacEnd0229
  4481 00003728 EBF2                    	jmp FacRep0229
  4482                                  FacEnd0229:
  4483 0000372A E8(00000000)            	call cDrop
  4484 0000372F 4809C9                  	or rPOk, rPOk
  4485 00003732 7502                    	jnz SD022A
  4486 00003734 EB36                    	jmp SDEnd0228
  4487                                  SD022A:
  4488 00003736 E8(00000000)            	call pOut
  4489 0000373B 220A09224238392044-     	 db 0x22, 0x0a, 0x09, '"B89 Debits reversal amount"	: "'
  4489 00003744 656269747320726576-
  4489 0000374D 657273616C20616D6F-
  4489 00003756 756E7422093A2022   
  4490 0000375E 4809C9                  	or rPOk, rPOk
  4491 00003761 7502                    	jnz SD022B
  4492 00003763 EB07                    	jmp SDEnd0228
  4493                                  SD022B:
  4494 00003765 E8(00000000)            	call pOut
  4495 0000376A 0128                    	 db 0x01, "("
  4496                                  SDEnd0228:
  4497 0000376C 4809C9                  	or rPOk, rPOk
  4498 0000376F 7505                    	jnz AD022C
  4499 00003771 E99D000000              	jmp ADEnd022C
  4500                                  AD022C:
  4501 00003776 E8(00000000)            	call cAndProlog
  4502 0000377B E8(00000000)            	call cPush
  4503 00003780 41BD0E000000            	mov rFactCnt, 14
  4504 00003786 4D09ED                  	or rFactCnt, rFactCnt
  4505 00003789 740E                    	jz FacEnd022D
  4506                                  FacRep022D:
  4507 0000378B E8(00000000)            	call n
  4508 00003790 49FFCD                  	dec rFactCnt
  4509 00003793 E304                    	jrcxz FacEnd022D
  4510 00003795 7402                    	jz FacEnd022D
  4511 00003797 EBF2                    	jmp FacRep022D
  4512                                  FacEnd022D:
  4513 00003799 E8(00000000)            	call cDrop
  4514 0000379E 4809C9                  	or rPOk, rPOk
  4515 000037A1 7502                    	jnz SD022E
  4516 000037A3 EB69                    	jmp SDEnd022E
  4517                                  SD022E:
  4518 000037A5 E8(00000000)            	call pOutLITrim
  4519 000037AA 4809C9                  	or rPOk, rPOk
  4520 000037AD 7502                    	jnz SD022F
  4521 000037AF EB5D                    	jmp SDEnd022E
  4522                                  SD022F:
  4523 000037B1 E8(00000000)            	call pOut
  4524 000037B6 012E                    	 db 0x01, "."
  4525 000037B8 4809C9                  	or rPOk, rPOk
  4526 000037BB 7502                    	jnz SD0230
  4527 000037BD EB4F                    	jmp SDEnd022E
  4528                                  SD0230:
  4529 000037BF E8(00000000)            	call cPush
  4530 000037C4 41BD02000000            	mov rFactCnt, 2
  4531 000037CA 4D09ED                  	or rFactCnt, rFactCnt
  4532 000037CD 740E                    	jz FacEnd0231
  4533                                  FacRep0231:
  4534 000037CF E8(00000000)            	call n
  4535 000037D4 49FFCD                  	dec rFactCnt
  4536 000037D7 E304                    	jrcxz FacEnd0231
  4537 000037D9 7402                    	jz FacEnd0231
  4538 000037DB EBF2                    	jmp FacRep0231
  4539                                  FacEnd0231:
  4540 000037DD E8(00000000)            	call cDrop
  4541 000037E2 4809C9                  	or rPOk, rPOk
  4542 000037E5 7502                    	jnz SD0232
  4543 000037E7 EB25                    	jmp SDEnd022E
  4544                                  SD0232:
  4545 000037E9 E8(00000000)            	call pOutLI
  4546 000037EE 4809C9                  	or rPOk, rPOk
  4547 000037F1 7502                    	jnz SD0233
  4548 000037F3 EB19                    	jmp SDEnd022E
  4549                                  SD0233:
  4550 000037F5 E8(00000000)            	call pOut
  4551 000037FA 045B6C5D29              	 db 0x04, "[l])"
  4552 000037FF 4809C9                  	or rPOk, rPOk
  4553 00003802 7502                    	jnz SD0234
  4554 00003804 EB08                    	jmp SDEnd022E
  4555                                  SD0234:
  4556 00003806 E8(00000000)            	call pOut
  4557 0000380B 02222C                  	 db 0x02, '",'
  4558                                  SDEnd022E:
  4559 0000380E E8(00000000)            	call cAndEpilog
  4560                                  ADEnd022C:
  4561 00003813 E8(00000000)            	call cDrop
  4562 00003818 4831C9                  	xor rPOk, rPOk
  4563 0000381B 48FFC1                  	inc rPOk
  4564 0000381E 4809C9                  	or rPOk, rPOk
  4565 00003821 7505                    	jnz SD0235
  4566 00003823 E909020000              	jmp SDEnd0075
  4567                                  SD0235:
  4568 00003828 E8(00000000)            	call cPush
  4569 0000382D E8A5C8FFFF              	call IsBit1
  4570 00003832 6100000000000000        	 dq 97
  4571 0000383A 4809C9                  	or rPOk, rPOk
  4572 0000383D 7505                    	jnz SD0236
  4573 0000383F E994000000              	jmp SDEnd0236
  4574                                  SD0236:
  4575 00003844 E8(00000000)            	call cPush
  4576 00003849 E8(00000000)            	call cPush
  4577 0000384E E8(00000000)            	call pIn
  4578 00003853 0143                    	 db 0x0001, "C"
  4579 00003855 E302                    	jrcxz DL0237
  4580 00003857 EB0F                    	jmp DLEnd0237
  4581 00003859 48FFC1                  DL0237:	inc rcx
  4582 0000385C E8(00000000)            	call cTop
  4583 00003861 E8(00000000)            	call pIn
  4584 00003866 0144                    	 db 0x0001, "D"
  4585                                  DLEnd0237:
  4586 00003868 E8(00000000)            	call cDrop
  4587 0000386D 4809C9                  	or rPOk, rPOk
  4588 00003870 7502                    	jnz SD0238
  4589 00003872 EB19                    	jmp SDEnd0238
  4590                                  SD0238:
  4591 00003874 41BD10000000            	mov rFactCnt, 16
  4592 0000387A 4D09ED                  	or rFactCnt, rFactCnt
  4593 0000387D 740E                    	jz FacEnd0239
  4594                                  FacRep0239:
  4595 0000387F E8(00000000)            	call n
  4596 00003884 49FFCD                  	dec rFactCnt
  4597 00003887 E304                    	jrcxz FacEnd0239
  4598 00003889 7402                    	jz FacEnd0239
  4599 0000388B EBF2                    	jmp FacRep0239
  4600                                  FacEnd0239:
  4601                                  SDEnd0238:
  4602 0000388D E8(00000000)            	call cDrop
  4603 00003892 4809C9                  	or rPOk, rPOk
  4604 00003895 7502                    	jnz SD023A
  4605 00003897 EB3F                    	jmp SDEnd0236
  4606                                  SD023A:
  4607 00003899 E8(00000000)            	call pOut
  4608 0000389E 1E0A0922423937204E-     	 db 0x1E, 0x0a, 0x09, '"B97 Net reconciliation"	: "'
  4608 000038A7 6574207265636F6E63-
  4608 000038B0 696C696174696F6E22-
  4608 000038B9 093A2022           
  4609 000038BD 4809C9                  	or rPOk, rPOk
  4610 000038C0 7502                    	jnz SD023B
  4611 000038C2 EB14                    	jmp SDEnd0236
  4612                                  SD023B:
  4613 000038C4 E8(00000000)            	call pOutLI
  4614 000038C9 4809C9                  	or rPOk, rPOk
  4615 000038CC 7502                    	jnz SD023C
  4616 000038CE EB08                    	jmp SDEnd0236
  4617                                  SD023C:
  4618 000038D0 E8(00000000)            	call pOut
  4619 000038D5 02222C                  	 db 0x02, '",'
  4620                                  SDEnd0236:
  4621 000038D8 E8(00000000)            	call cDrop
  4622 000038DD 4831C9                  	xor rPOk, rPOk
  4623 000038E0 48FFC1                  	inc rPOk
  4624 000038E3 4809C9                  	or rPOk, rPOk
  4625 000038E6 7505                    	jnz SD023D
  4626 000038E8 E944010000              	jmp SDEnd0075
  4627                                  SD023D:
  4628 000038ED E8(00000000)            	call cPush
  4629 000038F2 E8E0C7FFFF              	call IsBit1
  4630 000038F7 7B00000000000000        	 dq 123
  4631 000038FF 4809C9                  	or rPOk, rPOk
  4632 00003902 7502                    	jnz SD023E
  4633 00003904 EB73                    	jmp SDEnd023E
  4634                                  SD023E:
  4635 00003906 E8(00000000)            	call cPush
  4636 0000390B E8E6C9FFFF              	call LLLVAR
  4637 00003910 E8(00000000)            	call Dec2Bin
  4638 00003915 4989C5                  	mov rFactCnt, rax
  4639 00003918 4809C0                  	or rax, rax
  4640 0000391B 7502                    	jnz FacRep023F
  4641 0000391D EB0E                    	jmp FacEnd023F
  4642                                  FacRep023F:
  4643 0000391F E823C8FFFF              	call ans
  4644 00003924 49FFCD                  	dec rFactCnt
  4645 00003927 E304                    	jrcxz FacEnd023F
  4646 00003929 7402                    	jz FacEnd023F
  4647 0000392B EBF2                    	jmp FacRep023F
  4648                                  FacEnd023F:
  4649 0000392D E8(00000000)            	call cDrop
  4650 00003932 4809C9                  	or rPOk, rPOk
  4651 00003935 7502                    	jnz SD0240
  4652 00003937 EB40                    	jmp SDEnd023E
  4653                                  SD0240:
  4654 00003939 E8(00000000)            	call pOut
  4655 0000393E 1F0A09224231323320-     	 db 0x1F, 0x0a, 0x09, '"B123 Proprietary totals"	: "'
  4655 00003947 50726F707269657461-
  4655 00003950 727920746F74616C73-
  4655 00003959 22093A2022         
  4656 0000395E 4809C9                  	or rPOk, rPOk
  4657 00003961 7502                    	jnz SD0241
  4658 00003963 EB14                    	jmp SDEnd023E
  4659                                  SD0241:
  4660 00003965 E8(00000000)            	call pOutLI
  4661 0000396A 4809C9                  	or rPOk, rPOk
  4662 0000396D 7502                    	jnz SD0242
  4663 0000396F EB08                    	jmp SDEnd023E
  4664                                  SD0242:
  4665 00003971 E8(00000000)            	call pOut
  4666 00003976 02222C                  	 db 0x02, '",'
  4667                                  SDEnd023E:
  4668 00003979 E8(00000000)            	call cDrop
  4669 0000397E 4831C9                  	xor rPOk, rPOk
  4670 00003981 48FFC1                  	inc rPOk
  4671 00003984 4809C9                  	or rPOk, rPOk
  4672 00003987 7505                    	jnz SD0243
  4673 00003989 E9A3000000              	jmp SDEnd0075
  4674                                  SD0243:
  4675 0000398E E8(00000000)            	call cPush
  4676 00003993 E83FC7FFFF              	call IsBit1
  4677 00003998 8000000000000000        	 dq 128
  4678 000039A0 4809C9                  	or rPOk, rPOk
  4679 000039A3 7502                    	jnz SD0244
  4680 000039A5 EB73                    	jmp SDEnd0244
  4681                                  SD0244:
  4682 000039A7 E8(00000000)            	call cPush
  4683 000039AC 41BD08000000            	mov rFactCnt, 8
  4684 000039B2 4D09ED                  	or rFactCnt, rFactCnt
  4685 000039B5 740E                    	jz FacEnd0245
  4686                                  FacRep0245:
  4687 000039B7 E8(00000000)            	call b
  4688 000039BC 49FFCD                  	dec rFactCnt
  4689 000039BF E304                    	jrcxz FacEnd0245
  4690 000039C1 7402                    	jz FacEnd0245
  4691 000039C3 EBF2                    	jmp FacRep0245
  4692                                  FacEnd0245:
  4693 000039C5 E8(00000000)            	call cDrop
  4694 000039CA 4809C9                  	or rPOk, rPOk
  4695 000039CD 7502                    	jnz SD0246
  4696 000039CF EB49                    	jmp SDEnd0244
  4697                                  SD0246:
  4698 000039D1 E8(00000000)            	call pOut
  4699 000039D6 280A09224231323820-     	 db 0x28, 0x0a, 0x09, '"B128 Message authentication code"	: "'
  4699 000039DF 4D6573736167652061-
  4699 000039E8 757468656E74696361-
  4699 000039F1 74696F6E20636F6465-
  4699 000039FA 22093A2022         
  4700 000039FF 4809C9                  	or rPOk, rPOk
  4701 00003A02 7502                    	jnz SD0247
  4702 00003A04 EB14                    	jmp SDEnd0244
  4703                                  SD0247:
  4704 00003A06 E8(00000000)            	call pOutLI
  4705 00003A0B 4809C9                  	or rPOk, rPOk
  4706 00003A0E 7502                    	jnz SD0248
  4707 00003A10 EB08                    	jmp SDEnd0244
  4708                                  SD0248:
  4709 00003A12 E8(00000000)            	call pOut
  4710 00003A17 02222C                  	 db 0x02, '",'
  4711                                  SDEnd0244:
  4712 00003A1A E8(00000000)            	call cDrop
  4713 00003A1F 4831C9                  	xor rPOk, rPOk
  4714 00003A22 48FFC1                  	inc rPOk
  4715 00003A25 4809C9                  	or rPOk, rPOk
  4716 00003A28 7502                    	jnz SD0249
  4717 00003A2A EB05                    	jmp SDEnd0075
  4718                                  SD0249:
  4719 00003A2C E8(00000000)            	call DropLastChar
  4720                                  SDEnd0075:
  4721 00003A31 E8(00000000)            	call cDrop
  4722 00003A36 C3                      	ret
  4723                                  
  4724                                  ;Fields0=
  4725                                  ;	[IsBit(1), 			BitMap1],	
  4726                                  ;	[IsBit(2), (LLVAR *ans),	pOut(0x0a, 0x09, '"B02 PAN (manual)"		: "'), pOutLI,	pOut('",')],
  4727                                  ;	[IsBit(3), (6*n),		pOut(0x0a, 0x09, '"B03 Processing code"		: {') + Bit3 ],
  4728                                  ;	[IsBit(4), (12*n),		pOut(0x0a, 0x09, '"B04 Amount transaction"	: "'), pOutLI, pOut("(")
  4729                                  ;					+ (10*n), pOutLITrim, pOut("."), (2*n), pOutLI, pOut(")"),	pOut('",')],
  4730                                  ;	[IsBit(5), 			pOut(0x0a, 0x09, '"B05"				: "'), 		pOut('",')],
  4731                                  ;	[IsBit(6),			pOut(0x0a, 0x09, '"B06"				: "'), 		pOut('",')],
  4732                                  ;	[IsBit(7), (10*n), 		pOut(0x0a, 0x09, '"B07 Date time transmission"	: "')
  4733                                  ;											+ MM, pOutLI,	pOut('-'),
  4734                                  ;											  DD, pOutLI,	pOut('T'), 
  4735                                  ;											  hh, pOutLI,	pOut(':'), 
  4736                                  ;											  mm, pOutLI,	pOut(':'),
  4737                                  ;									 		 nss, pOutLI,	pOut('.000",')],
  4738                                  ;	[IsBit(8), 			pOut(0x0a, 0x09, '"B08"				: "'), 		pOut('",')],
  4739                                  ;	[IsBit(9), 			pOut(0x0a, 0x09, '"B09"				: "'),		pOut('",')],
  4740                                  ;	[IsBit(10), 			pOut(0x0a, 0x09, '"B10"				: "'),		pOut('",')],
  4741                                  ;	[IsBit(11), (6*n), 		pOut(0x0a, 0x09, '"B11 STAN"			: "'), pOutLI,	pOut('",')],	/*IFSF2003 12*n*/
  4742                                  ;	[IsBit(12), (12*n),		pOut(0x0a, 0x09, '"B12 Date time transaction"	: "20')
  4743                                  ;											+ YY, pOutLI, pOut('-'),	/*ISO8601*/
  4744                                  ;											  MM, pOutLI, pOut('-'),
  4745                                  ;											  DD, pOutLI, pOut('T'), 
  4746                                  ;											  hh, pOutLI, pOut(':'), 
  4747                                  ;											  mm, pOutLI, pOut(':'),
  4748                                  ;											  nss,pOutLI, pOut('.000",')],
  4749                                  ;	[IsBit(13), (4*n),		pOut(0x0a, 0x09, '"B13"				: "'), pOutLI,	pOut('",')],
  4750                                  ;	[IsBit(14), (4*n),		pOut(0x0a, 0x09, '"B14"				: "'), pOutLI,	pOut('",')],
  4751                                  ;	[IsBit(15), (6*n),		pOut(0x0a, 0x09, '"B15 Settlement date"		: "'), pOutLI,	pOut('",')],
  4752                                  ;	[IsBit(16),			pOut(0x0a, 0x09, '"B16"				: "'),		pOut('",')],
  4753                                  ;	[IsBit(17),			pOut(0x0a, 0x09, '"B17"				: "'),		pOut('",')],
  4754                                  ;	[IsBit(18), (4*n),		pOut(0x0a, 0x09, '"B18 reference number"	: "'), pOutLI,	pOut('",')],
  4755                                  ;	[IsBit(19),			pOut(0x0a, 0x09, '"B19"				: "'),		pOut('",')],
  4756                                  ;	[IsBit(20), (3*n),		pOut(0x0a, 0x09, '"B20 Language code"		: "'), pOutLI,	pOut('",')],
  4757                                  ;	[IsBit(21),			pOut(0x0a, 0x09, '"B21"				: "'),		pOut('",')],
  4758                                  ;	
  4759                                  ;	[IsBit(22), (12*an),		pOut(0x0a, 0x09, '"B22 POS data code" 		: {') + Bit22 ],
  4760                                  ;											
  4761                                  ;	[IsBit(23), 			pOut(0x0a, 0x09, '"B23"				: "'), pOutLI,	pOut('",')],
  4762                                  ;	[IsBit(24), (3*n),		pOut(0x0a, 0x09, '"B24 Function code" 		: "'), pOutLI,	pOut(' (')
  4763                                  ;											+ Bit24,	pOut(')",')],
  4764                                  ;											
  4765                                  ;	[IsBit(25), (4*n),		pOut(0x0a, 0x09, '"B25 Message reason code"	: "'), pOutLI,	pOut(' (')
  4766                                  ;											+ Bit25,	pOut(')",')],
  4767                                  ;	
  4768                                  ;	[IsBit(26), (4*n),		pOut(0x0a, 0x09, '"B26 Card acceptor busnss code" : "'), pOutLI, pOut(' (')
  4769                                  ;											+ Bit26,	pOut(')",')],
  4770                                  ;	
  4771                                  ;	[IsBit(27),			pOut(0x0a, 0x09, '"B27" 			: "'),		pOut('",')], 
  4772                                  ;	[IsBit(28), (6*n),		pOut(0x0a, 0x09, '"B28"				: "'), pOutLI,	pOut('",')],
  4773                                  ;	[IsBit(29),			pOut(0x0a, 0x09, '"B29"				: "'),		pOut('",')],
  4774                                  ;	[IsBit(30), (24*n),		pOut(0x0a, 0x09, '"B30 Original amount"		: "'), 		pOut("(")
  4775                                  ;					+ (22*n), pOutLITrim, pOut("."), (2*n), pOutLI, pOut("[l])"),	pOut('",')],
  4776                                  ;	[IsBit(31),			pOut(0x0a, 0x09, '"B31"				: "'), 		pOut('",')],
  4777                                  ;
  4778                                  ;	[IsBit(32), 			pOut(0x0a, 0x09, '"B32 Acquiring institution ID"	: "'),
  4779                                  ;		    LLVAR * (n,	pOutLI),								pOut('",')],
  4780                                  ;	[IsBit(33),			pOut(0x0a, 0x09, '"B33"				: "'), 		pOut('",')],
  4781                                  ;	[IsBit(34),			pOut(0x0a, 0x09, '"B34"				: "'), 		pOut('",')],
  4782                                  ;	[IsBit(35), 			pOut(0x0a, 0x09, '"B35 Track 2"			: "'), 
  4783                                  ;		    LLVAR * (ans, pOutLI),								pOut('",')],
  4784                                  ;	[IsBit(36),			pOut(0x0a, 0x09, '"B36"				: "'),		pOut('",')],
  4785                                  ;	[IsBit(37),			pOut(0x0a, 0x09, '"B37 Retrieval reference num"	: "'), pOutLI,	pOut('",')],
  4786                                  ;	[IsBit(38), (6*anp),		pOut(0x0a, 0x09, '"B38 Authorisation code"	: "'), pOutLI,	pOut('",')],
  4787                                  ;	
  4788                                  ;	[IsBit(39), (3*n),		pOut(0x0a, 0x09, '"B39 Action code"		: "'), pOutLI,	pOut(' (')
  4789                                  ;											+ Bit39,	pOut(')",')],
  4790                                  ;											
  4791                                  ;	[IsBit(40), 			pOut(0x0a, 0x09, '"B40"				: "'), 		pOut('",')],
  4792                                  ;	[IsBit(41), (8*ans),		pOut(0x0a, 0x09, '"B41 Terminal ID"		: "'), pOutLI,	pOut('",')],
  4793                                  ;	[IsBit(42), (15*ans),		pOut(0x0a, 0x09, '"B42 CAIC"			: "'), pOutLI,	pOut('",')],
  4794                                  ;	[IsBit(43), (LLVAR * ans),	pOut(0x0a, 0x09, '"B43 CAN/L"			: "') + LLVAR * ( '\', pOut('\\')
  4795                                  ;													  | '"', pOut('\"')
  4796                                  ;													  | ans, pOutLI)   
  4797                                  ;											     ,  	pOut('",')],
  4798                                  ;	[IsBit(44), 			pOut(0x0a, 0x09, '"B44" 			: "'), 		pOut('",')],
  4799                                  ;	[IsBit(45),			pOut(0x0a, 0x09, '"B45 Track 1 data"		: "'),
  4800                                  ;		    LLVAR * (ans, pOutLI),							pOut('",')],
  4801                                  ;	[IsBit(46), 			pOut(0x0a, 0x09, '"B46"				: "'), 		pOut('",')],
  4802                                  ;	[IsBit(47), 			pOut(0x0a, 0x09, '"B47"				: "'), 		pOut('",')],
  4803                                  ;	[IsBit(48), (LLLVAR * b),	pOut(0x0a, 0x09, '"B48 Msg ctrl data elements"	: {') + (3*b, BitMap48, Fields48, SetBitMapCur(*aBitMap0) )],
  4804                                  ;	[IsBit(49), (3*an),		pOut(0x0a, 0x09, '"B49 Currency code"		: "'), pOutLI,	pOut(' (')
  4805                                  ;											+ Bit49,	pOut(')",')],
  4806                                  ;
  4807                                  ;	[IsBit(50), (3*n),		pOut(0x0a, 0x09, '"B50 Currency code reconcili"	: "'), pOutLI,	pOut('",')],
  4808                                  ;	[IsBit(51),			pOut(0x0a, 0x09, '"B51"				: "'), 		pOut('",')],
  4809                                  ;	[IsBit(52), (8*b),		pOut(0x0a, 0x09, '"B52 PIN data"		: "'),pOutLIHex,pOut('",')],
  4810                                  ;	[IsBit(53), (LLVAR * b), 	pOut(0x0a, 0x09, '"B53 Security related info"	: {') + Bit53H2H ],
  4811                                  ;	[IsBit(54), (LLLVAR*ans),	pOut(0x0a, 0x09, '"B54 Amounts additional"	: "'), pOutLI,	pOut('",')],
  4812                                  ;	[IsBit(55),			pOut(0x0a, 0x09, '"B55"				: "'), 		pOut('",')],
  4813                                  ;	[IsBit(56), 			pOut(0x0a, 0x09, '"B56 Original data elements"	: "'),
  4814                                  ;		    LLVAR * (n, pOutLI),								pOut('",')],
  4815                                  ;	[IsBit(57),			pOut(0x0a, 0x09, '"B57"				: "'), 		pOut('",')],
  4816                                  ;	[IsBit(58),			pOut(0x0a, 0x09, '"B58"				: "'), 		pOut('",')],
  4817                                  ;	[IsBit(59),			pOut(0x0a, 0x09, '"B59 Transport data"		: "'),
  4818                                  ;		    LLLVAR * (ans, pOutLI),								pOut('",')],
  4819                                  ;	[IsBit(60), LLLVAR * ans,	pOut(0x0a, 0x09, '"B60 Entered PIN Digits"	: "'), pOutLI,	pOut('",')],
  4820                                  ;	[IsBit(61), LLLVAR * ans, 	pOut(0x0a, 0x09, '"B61 Failed PIN attempts"	: "'), pOutLI,	pOut('",')],
  4821                                  ;	[IsBit(62), (LLLVAR*ans),	pOut(0x0a, 0x09, '"B62 Product sets"		: {') + Bit62 ],
  4822                                  ;	[IsBit(63), (LLLVAR*ans),	pOut(0x0a, 0x09, '"B63 Product data"		: {') + (Bit63| LLLVAR*ans, pOut('"Warning format error"'))],
  4823                                  ;	[IsBit(64), (8*b),		pOut(0x0a, 0x09, '"B64 MAC"			: "'), pOutLIHex, pOut('",')],		/* no spec in CGI spec. */
  4824                                  ;	[IsBit1(74), (10*n),		pOut(0x0a, 0x09, '"B74 Credits number"		: "'), pOutLI,	pOut('",')],
  4825                                  ;	[IsBit1(75), (10*n),		pOut(0x0a, 0x09, '"B75 Credits reversal number"	: "'), pOutLI,	pOut('",')],
  4826                                  ;	[IsBit1(76), (10*n),		pOut(0x0a, 0x09, '"B76 Debits number"		: "'), pOutLI,	pOut('",')],
  4827                                  ;	[IsBit1(77), (10*n),		pOut(0x0a, 0x09, '"B77 Debits reversal number"	: "'), pOutLI,	pOut('",')],
  4828                                  ;	[IsBit1(86), (16*n),		pOut(0x0a, 0x09, '"B86 Credits amount"		: "'), 		pOut("(")
  4829                                  ;					+ (14*n), pOutLITrim, pOut("."), (2*n), pOutLI, pOut("[l])"),	pOut('",')],
  4830                                  ;	[IsBit1(87), (16*n),		pOut(0x0a, 0x09, '"B87 Credits reversal amount"	: "'), 	 	pOut("(")
  4831                                  ;					+ (14*n), pOutLITrim, pOut("."), (2*n), pOutLI, pOut("[l])"),	pOut('",')],
  4832                                  ;	[IsBit1(88), (16*n),		pOut(0x0a, 0x09, '"B88 Debits amount"		: "'), 	 	pOut("(")
  4833                                  ;					+ (14*n), pOutLITrim, pOut("."), (2*n), pOutLI, pOut("[l])"),	pOut('",')],
  4834                                  ;	[IsBit1(89), (16*n),		pOut(0x0a, 0x09, '"B89 Debits reversal amount"	: "'), 		pOut("(")
  4835                                  ;					+ (14*n), pOutLITrim, pOut("."), (2*n), pOutLI, pOut("[l])"),	pOut('",')],
  4836                                  ;	[IsBit1(97), (("C"|"D"),16*n),	pOut(0x0a, 0x09, '"B97 Net reconciliation"	: "'), pOutLI,	pOut('",')],
  4837                                  ;	[IsBit1(123), (LLLVAR*ans),	pOut(0x0a, 0x09, '"B123 Proprietary totals"	: "'), pOutLI,	pOut('",')],
  4838                                  ;	[IsBit1(128), (8*b),		pOut(0x0a, 0x09, '"B128 Message authentication code"	: "'), pOutLI,	pOut('",')],
  4839                                  ;	DropLastChar ;
  4840                                  ;
  4841                                  
  4842                                  ;xxxxxxxxxxxxxxxxxxxxxxxxxxxxxxxxxxxxxxxxxxxxxxxxxxxxxxxxxxxxxxxxxxxxxxxxxxxxxx
  4843                                  Fields48:
  4844 00003A37 E8(00000000)            	call cPush
  4845 00003A3C E8(00000000)            	call cPush
  4846 00003A41 E866C6FFFF              	call IsBit
  4847 00003A46 0200000000000000        	 dq 2
  4848 00003A4E 4809C9                  	or rPOk, rPOk
  4849 00003A51 7502                    	jnz SD024A
  4850 00003A53 EB6E                    	jmp SDEnd024A
  4851                                  SD024A:
  4852 00003A55 E8(00000000)            	call cPush
  4853 00003A5A 41BD14000000            	mov rFactCnt, 20
  4854 00003A60 4D09ED                  	or rFactCnt, rFactCnt
  4855 00003A63 740E                    	jz FacEnd024B
  4856                                  FacRep024B:
  4857 00003A65 E899C6FFFF              	call an
  4858 00003A6A 49FFCD                  	dec rFactCnt
  4859 00003A6D E304                    	jrcxz FacEnd024B
  4860 00003A6F 7402                    	jz FacEnd024B
  4861 00003A71 EBF2                    	jmp FacRep024B
  4862                                  FacEnd024B:
  4863 00003A73 E8(00000000)            	call cDrop
  4864 00003A78 4809C9                  	or rPOk, rPOk
  4865 00003A7B 7502                    	jnz SD024C
  4866 00003A7D EB44                    	jmp SDEnd024A
  4867                                  SD024C:
  4868 00003A7F E8(00000000)            	call pOut
  4869 00003A84 230A09092242303220-     	 db 0x23, 0x0a, 0x09, 0x09, '"B02 Hard-/Software config."	: "'
  4869 00003A8D 486172642D2F536F66-
  4869 00003A96 747761726520636F6E-
  4869 00003A9F 6669672E22093A2022 
  4870 00003AA8 4809C9                  	or rPOk, rPOk
  4871 00003AAB 7502                    	jnz SD024D
  4872 00003AAD EB14                    	jmp SDEnd024A
  4873                                  SD024D:
  4874 00003AAF E8(00000000)            	call pOutLI
  4875 00003AB4 4809C9                  	or rPOk, rPOk
  4876 00003AB7 7502                    	jnz SD024E
  4877 00003AB9 EB08                    	jmp SDEnd024A
  4878                                  SD024E:
  4879 00003ABB E8(00000000)            	call pOut
  4880 00003AC0 02222C                  	 db 0x02, '",'
  4881                                  SDEnd024A:
  4882 00003AC3 E8(00000000)            	call cDrop
  4883 00003AC8 4831C9                  	xor rPOk, rPOk
  4884 00003ACB 48FFC1                  	inc rPOk
  4885 00003ACE 4809C9                  	or rPOk, rPOk
  4886 00003AD1 7505                    	jnz SD024F
  4887 00003AD3 E96B0F0000              	jmp SDEnd024F
  4888                                  SD024F:
  4889 00003AD8 E8(00000000)            	call cPush
  4890 00003ADD E8CAC5FFFF              	call IsBit
  4891 00003AE2 0300000000000000        	 dq 3
  4892 00003AEA 4809C9                  	or rPOk, rPOk
  4893 00003AED 7502                    	jnz SD0250
  4894 00003AEF EB66                    	jmp SDEnd0250
  4895                                  SD0250:
  4896 00003AF1 E8(00000000)            	call cPush
  4897 00003AF6 41BD02000000            	mov rFactCnt, 2
  4898 00003AFC 4D09ED                  	or rFactCnt, rFactCnt
  4899 00003AFF 740E                    	jz FacEnd0251
  4900                                  FacRep0251:
  4901 00003B01 E8(00000000)            	call a
  4902 00003B06 49FFCD                  	dec rFactCnt
  4903 00003B09 E304                    	jrcxz FacEnd0251
  4904 00003B0B 7402                    	jz FacEnd0251
  4905 00003B0D EBF2                    	jmp FacRep0251
  4906                                  FacEnd0251:
  4907 00003B0F E8(00000000)            	call cDrop
  4908 00003B14 4809C9                  	or rPOk, rPOk
  4909 00003B17 7502                    	jnz SD0252
  4910 00003B19 EB3C                    	jmp SDEnd0250
  4911                                  SD0252:
  4912 00003B1B E8(00000000)            	call pOut
  4913 00003B20 1B0A09092242303320-     	 db 0x1B, 0x0a, 0x09, 0x09, '"B03 Language code"		: "'
  4913 00003B29 4C616E677561676520-
  4913 00003B32 636F64652209093A20-
  4913 00003B3B 22                 
  4914 00003B3C 4809C9                  	or rPOk, rPOk
  4915 00003B3F 7502                    	jnz SD0253
  4916 00003B41 EB14                    	jmp SDEnd0250
  4917                                  SD0253:
  4918 00003B43 E8(00000000)            	call pOutLI
  4919 00003B48 4809C9                  	or rPOk, rPOk
  4920 00003B4B 7502                    	jnz SD0254
  4921 00003B4D EB08                    	jmp SDEnd0250
  4922                                  SD0254:
  4923 00003B4F E8(00000000)            	call pOut
  4924 00003B54 02222C                  	 db 0x02, '",'
  4925                                  SDEnd0250:
  4926 00003B57 E8(00000000)            	call cDrop
  4927 00003B5C 4831C9                  	xor rPOk, rPOk
  4928 00003B5F 48FFC1                  	inc rPOk
  4929 00003B62 4809C9                  	or rPOk, rPOk
  4930 00003B65 7505                    	jnz SD0255
  4931 00003B67 E9D70E0000              	jmp SDEnd024F
  4932                                  SD0255:
  4933 00003B6C E8(00000000)            	call cPush
  4934 00003B71 E836C5FFFF              	call IsBit
  4935 00003B76 0400000000000000        	 dq 4
  4936 00003B7E 4809C9                  	or rPOk, rPOk
  4937 00003B81 7502                    	jnz SD0256
  4938 00003B83 EB6D                    	jmp SDEnd0256
  4939                                  SD0256:
  4940 00003B85 E8(00000000)            	call cPush
  4941 00003B8A 41BD0A000000            	mov rFactCnt, 10
  4942 00003B90 4D09ED                  	or rFactCnt, rFactCnt
  4943 00003B93 740E                    	jz FacEnd0257
  4944                                  FacRep0257:
  4945 00003B95 E8(00000000)            	call n
  4946 00003B9A 49FFCD                  	dec rFactCnt
  4947 00003B9D E304                    	jrcxz FacEnd0257
  4948 00003B9F 7402                    	jz FacEnd0257
  4949 00003BA1 EBF2                    	jmp FacRep0257
  4950                                  FacEnd0257:
  4951 00003BA3 E8(00000000)            	call cDrop
  4952 00003BA8 4809C9                  	or rPOk, rPOk
  4953 00003BAB 7502                    	jnz SD0258
  4954 00003BAD EB43                    	jmp SDEnd0256
  4955                                  SD0258:
  4956 00003BAF E8(00000000)            	call pOut
  4957 00003BB4 220A09092242303420-     	 db 0x22, 0x0a, 0x09, 0x09, '"B04 Batch/sequence number"	: "'
  4957 00003BBD 42617463682F736571-
  4957 00003BC6 75656E6365206E756D-
  4957 00003BCF 62657222093A2022   
  4958 00003BD7 4809C9                  	or rPOk, rPOk
  4959 00003BDA 7502                    	jnz SD0259
  4960 00003BDC EB14                    	jmp SDEnd0256
  4961                                  SD0259:
  4962 00003BDE E8(00000000)            	call pOutLI
  4963 00003BE3 4809C9                  	or rPOk, rPOk
  4964 00003BE6 7502                    	jnz SD025A
  4965 00003BE8 EB08                    	jmp SDEnd0256
  4966                                  SD025A:
  4967 00003BEA E8(00000000)            	call pOut
  4968 00003BEF 02222C                  	 db 0x02, '",'
  4969                                  SDEnd0256:
  4970 00003BF2 E8(00000000)            	call cDrop
  4971 00003BF7 4831C9                  	xor rPOk, rPOk
  4972 00003BFA 48FFC1                  	inc rPOk
  4973 00003BFD 4809C9                  	or rPOk, rPOk
  4974 00003C00 7505                    	jnz SD025B
  4975 00003C02 E93C0E0000              	jmp SDEnd024F
  4976                                  SD025B:
  4977 00003C07 E8(00000000)            	call cPush
  4978 00003C0C E89BC4FFFF              	call IsBit
  4979 00003C11 0500000000000000        	 dq 5
  4980 00003C19 4809C9                  	or rPOk, rPOk
  4981 00003C1C 7502                    	jnz SD025C
  4982 00003C1E EB65                    	jmp SDEnd025C
  4983                                  SD025C:
  4984 00003C20 E8(00000000)            	call cPush
  4985 00003C25 41BD03000000            	mov rFactCnt, 3
  4986 00003C2B 4D09ED                  	or rFactCnt, rFactCnt
  4987 00003C2E 740E                    	jz FacEnd025D
  4988                                  FacRep025D:
  4989 00003C30 E8(00000000)            	call n
  4990 00003C35 49FFCD                  	dec rFactCnt
  4991 00003C38 E304                    	jrcxz FacEnd025D
  4992 00003C3A 7402                    	jz FacEnd025D
  4993 00003C3C EBF2                    	jmp FacRep025D
  4994                                  FacEnd025D:
  4995 00003C3E E8(00000000)            	call cDrop
  4996 00003C43 4809C9                  	or rPOk, rPOk
  4997 00003C46 7502                    	jnz SD025E
  4998 00003C48 EB3B                    	jmp SDEnd025C
  4999                                  SD025E:
  5000 00003C4A E8(00000000)            	call pOut
  5001 00003C4F 1A0A09092242303520-     	 db 0x1A, 0x0a, 0x09, 0x09, '"B05 Shift number"		: "'
  5001 00003C58 5368696674206E756D-
  5001 00003C61 6265722209093A2022 
  5002 00003C6A 4809C9                  	or rPOk, rPOk
  5003 00003C6D 7502                    	jnz SD025F
  5004 00003C6F EB14                    	jmp SDEnd025C
  5005                                  SD025F:
  5006 00003C71 E8(00000000)            	call pOutLI
  5007 00003C76 4809C9                  	or rPOk, rPOk
  5008 00003C79 7502                    	jnz SD0260
  5009 00003C7B EB08                    	jmp SDEnd025C
  5010                                  SD0260:
  5011 00003C7D E8(00000000)            	call pOut
  5012 00003C82 02222C                  	 db 0x02, '",'
  5013                                  SDEnd025C:
  5014 00003C85 E8(00000000)            	call cDrop
  5015 00003C8A 4831C9                  	xor rPOk, rPOk
  5016 00003C8D 48FFC1                  	inc rPOk
  5017 00003C90 4809C9                  	or rPOk, rPOk
  5018 00003C93 7505                    	jnz SD0261
  5019 00003C95 E9A90D0000              	jmp SDEnd024F
  5020                                  SD0261:
  5021 00003C9A E8(00000000)            	call cPush
  5022 00003C9F E808C4FFFF              	call IsBit
  5023 00003CA4 0600000000000000        	 dq 6
  5024 00003CAC 4809C9                  	or rPOk, rPOk
  5025 00003CAF 7502                    	jnz SD0262
  5026 00003CB1 EB6B                    	jmp SDEnd0262
  5027                                  SD0262:
  5028 00003CB3 E8(00000000)            	call cPush
  5029 00003CB8 E815C6FFFF              	call LLVAR
  5030 00003CBD E8(00000000)            	call Dec2Bin
  5031 00003CC2 4989C5                  	mov rFactCnt, rax
  5032 00003CC5 4809C0                  	or rax, rax
  5033 00003CC8 7502                    	jnz FacRep0263
  5034 00003CCA EB0E                    	jmp FacEnd0263
  5035                                  FacRep0263:
  5036 00003CCC E8(00000000)            	call n
  5037 00003CD1 49FFCD                  	dec rFactCnt
  5038 00003CD4 E304                    	jrcxz FacEnd0263
  5039 00003CD6 7402                    	jz FacEnd0263
  5040 00003CD8 EBF2                    	jmp FacRep0263
  5041                                  FacEnd0263:
  5042 00003CDA E8(00000000)            	call cDrop
  5043 00003CDF 4809C9                  	or rPOk, rPOk
  5044 00003CE2 7502                    	jnz SD0264
  5045 00003CE4 EB38                    	jmp SDEnd0262
  5046                                  SD0264:
  5047 00003CE6 E8(00000000)            	call pOut
  5048 00003CEB 170A09092242303620-     	 db 0x17, 0x0a, 0x09, 0x09, '"B06 Clerk ID"			: "'
  5048 00003CF4 436C65726B20494422-
  5048 00003CFD 0909093A2022       
  5049 00003D03 4809C9                  	or rPOk, rPOk
  5050 00003D06 7502                    	jnz SD0265
  5051 00003D08 EB14                    	jmp SDEnd0262
  5052                                  SD0265:
  5053 00003D0A E8(00000000)            	call pOutLI
  5054 00003D0F 4809C9                  	or rPOk, rPOk
  5055 00003D12 7502                    	jnz SD0266
  5056 00003D14 EB08                    	jmp SDEnd0262
  5057                                  SD0266:
  5058 00003D16 E8(00000000)            	call pOut
  5059 00003D1B 02222C                  	 db 0x02, '",'
  5060                                  SDEnd0262:
  5061 00003D1E E8(00000000)            	call cDrop
  5062 00003D23 4831C9                  	xor rPOk, rPOk
  5063 00003D26 48FFC1                  	inc rPOk
  5064 00003D29 4809C9                  	or rPOk, rPOk
  5065 00003D2C 7505                    	jnz SD0267
  5066 00003D2E E9100D0000              	jmp SDEnd024F
  5067                                  SD0267:
  5068 00003D33 E8(00000000)            	call cPush
  5069 00003D38 E86FC3FFFF              	call IsBit
  5070 00003D3D 0800000000000000        	 dq 8
  5071 00003D45 4809C9                  	or rPOk, rPOk
  5072 00003D48 7502                    	jnz SD0268
  5073 00003D4A EB54                    	jmp SDEnd0268
  5074                                  SD0268:
  5075 00003D4C E8(00000000)            	call cPush
  5076 00003D51 E8A0C5FFFF              	call LLLVAR
  5077 00003D56 E8(00000000)            	call Dec2Bin
  5078 00003D5B 4989C5                  	mov rFactCnt, rax
  5079 00003D5E 4809C0                  	or rax, rax
  5080 00003D61 7502                    	jnz FacRep0269
  5081 00003D63 EB0E                    	jmp FacEnd0269
  5082                                  FacRep0269:
  5083 00003D65 E8DDC3FFFF              	call ans
  5084 00003D6A 49FFCD                  	dec rFactCnt
  5085 00003D6D E304                    	jrcxz FacEnd0269
  5086 00003D6F 7402                    	jz FacEnd0269
  5087 00003D71 EBF2                    	jmp FacRep0269
  5088                                  FacEnd0269:
  5089 00003D73 4809C9                  	or rPOk, rPOk
  5090 00003D76 7502                    	jnz SD026A
  5091 00003D78 EB21                    	jmp SDEnd026A
  5092                                  SD026A:
  5093 00003D7A E8(00000000)            	call pOut
  5094 00003D7F 1B0A09092242303820-     	 db 0x1B, 0x0a, 0x09, 0x09, '"B08 Customer data"		: "'
  5094 00003D88 437573746F6D657220-
  5094 00003D91 646174612209093A20-
  5094 00003D9A 22                 
  5095                                  SDEnd026A:
  5096 00003D9B E8(00000000)            	call cDrop
  5097                                  SDEnd0268:
  5098 00003DA0 4809C9                  	or rPOk, rPOk
  5099 00003DA3 7505                    	jnz AD026B
  5100 00003DA5 E995000000              	jmp ADEnd026B
  5101                                  AD026B:
  5102 00003DAA E8(00000000)            	call cAndProlog
  5103 00003DAF E842C5FFFF              	call LLLVAR
  5104 00003DB4 E8(00000000)            	call Dec2Bin
  5105 00003DB9 4989C5                  	mov rFactCnt, rax
  5106 00003DBC 4809C0                  	or rax, rax
  5107 00003DBF 7502                    	jnz FacRep026C
  5108 00003DC1 EB68                    	jmp FacEnd026C
  5109                                  FacRep026C:
  5110 00003DC3 E8(00000000)            	call cPush
  5111 00003DC8 E8(00000000)            	call pIn
  5112 00003DCD 015C                    	 db 0x0001, '\'
  5113 00003DCF 4809C9                  	or rPOk, rPOk
  5114 00003DD2 7502                    	jnz SD026D
  5115 00003DD4 EB08                    	jmp SDEnd026D
  5116                                  SD026D:
  5117 00003DD6 E8(00000000)            	call pOut
  5118 00003DDB 025C5C                  	 db 0x02, '\\'
  5119                                  SDEnd026D:
  5120 00003DDE E302                    	jrcxz DL026E
  5121 00003DE0 EB3B                    	jmp DLEnd026E
  5122 00003DE2 48FFC1                  DL026E:	inc rcx
  5123 00003DE5 E8(00000000)            	call cTop
  5124 00003DEA E8(00000000)            	call pIn
  5125 00003DEF 0122                    	 db 1, 34
  5126 00003DF1 4809C9                  	or rPOk, rPOk
  5127 00003DF4 7502                    	jnz SD026F
  5128 00003DF6 EB08                    	jmp SDEnd026F
  5129                                  SD026F:
  5130 00003DF8 E8(00000000)            	call pOut
  5131 00003DFD 025C22                  	 db 0x02, '\"'
  5132                                  SDEnd026F:
  5133 00003E00 E302                    	jrcxz DL0270
  5134 00003E02 EB19                    	jmp DLEnd026E
  5135 00003E04 48FFC1                  DL0270:	inc rcx
  5136 00003E07 E8(00000000)            	call cTop
  5137 00003E0C E836C3FFFF              	call ans
  5138 00003E11 4809C9                  	or rPOk, rPOk
  5139 00003E14 7502                    	jnz SD0271
  5140 00003E16 EB05                    	jmp SDEnd0271
  5141                                  SD0271:
  5142 00003E18 E8(00000000)            	call pOutLI
  5143                                  SDEnd0271:
  5144                                  DLEnd026E:
  5145 00003E1D E8(00000000)            	call cDrop
  5146 00003E22 49FFCD                  	dec rFactCnt
  5147 00003E25 E304                    	jrcxz FacEnd026C
  5148 00003E27 7402                    	jz FacEnd026C
  5149 00003E29 EB98                    	jmp FacRep026C
  5150                                  FacEnd026C:
  5151 00003E2B 4809C9                  	or rPOk, rPOk
  5152 00003E2E 7502                    	jnz SD0272
  5153 00003E30 EB08                    	jmp SDEnd0272
  5154                                  SD0272:
  5155 00003E32 E8(00000000)            	call pOut
  5156 00003E37 02222C                  	 db 0x02, '",'
  5157                                  SDEnd0272:
  5158 00003E3A E8(00000000)            	call cAndEpilog
  5159                                  ADEnd026B:
  5160 00003E3F E8(00000000)            	call cDrop
  5161 00003E44 4831C9                  	xor rPOk, rPOk
  5162 00003E47 48FFC1                  	inc rPOk
  5163 00003E4A 4809C9                  	or rPOk, rPOk
  5164 00003E4D 7505                    	jnz SD0273
  5165 00003E4F E9EF0B0000              	jmp SDEnd024F
  5166                                  SD0273:
  5167 00003E54 E8(00000000)            	call cPush
  5168 00003E59 E84EC2FFFF              	call IsBit
  5169 00003E5E 0900000000000000        	 dq 9
  5170 00003E66 4809C9                  	or rPOk, rPOk
  5171 00003E69 7502                    	jnz SD0274
  5172 00003E6B EB71                    	jmp SDEnd0274
  5173                                  SD0274:
  5174 00003E6D E8(00000000)            	call cPush
  5175 00003E72 E85BC4FFFF              	call LLVAR
  5176 00003E77 E8(00000000)            	call Dec2Bin
  5177 00003E7C 4989C5                  	mov rFactCnt, rax
  5178 00003E7F 4809C0                  	or rax, rax
  5179 00003E82 7502                    	jnz FacRep0275
  5180 00003E84 EB0E                    	jmp FacEnd0275
  5181                                  FacRep0275:
  5182 00003E86 E8F0C4FFFF              	call ns
  5183 00003E8B 49FFCD                  	dec rFactCnt
  5184 00003E8E E304                    	jrcxz FacEnd0275
  5185 00003E90 7402                    	jz FacEnd0275
  5186 00003E92 EBF2                    	jmp FacRep0275
  5187                                  FacEnd0275:
  5188 00003E94 E8(00000000)            	call cDrop
  5189 00003E99 4809C9                  	or rPOk, rPOk
  5190 00003E9C 7502                    	jnz SD0276
  5191 00003E9E EB3E                    	jmp SDEnd0274
  5192                                  SD0276:
  5193 00003EA0 E8(00000000)            	call pOut
  5194 00003EA5 1D0A09092242303920-     	 db 0x1D, 0x0a, 0x09, 0x09, '"B09 Track2 2nd card"		: "'
  5194 00003EAE 547261636B3220326E-
  5194 00003EB7 642063617264220909-
  5194 00003EC0 3A2022             
  5195 00003EC3 4809C9                  	or rPOk, rPOk
  5196 00003EC6 7502                    	jnz SD0277
  5197 00003EC8 EB14                    	jmp SDEnd0274
  5198                                  SD0277:
  5199 00003ECA E8(00000000)            	call pOutLI
  5200 00003ECF 4809C9                  	or rPOk, rPOk
  5201 00003ED2 7502                    	jnz SD0278
  5202 00003ED4 EB08                    	jmp SDEnd0274
  5203                                  SD0278:
  5204 00003ED6 E8(00000000)            	call pOut
  5205 00003EDB 02222C                  	 db 0x02, '",'
  5206                                  SDEnd0274:
  5207 00003EDE E8(00000000)            	call cDrop
  5208 00003EE3 4831C9                  	xor rPOk, rPOk
  5209 00003EE6 48FFC1                  	inc rPOk
  5210 00003EE9 4809C9                  	or rPOk, rPOk
  5211 00003EEC 7505                    	jnz SD0279
  5212 00003EEE E9500B0000              	jmp SDEnd024F
  5213                                  SD0279:
  5214 00003EF3 E8(00000000)            	call cPush
  5215 00003EF8 E8AFC1FFFF              	call IsBit
  5216 00003EFD 0A00000000000000        	 dq 10
  5217 00003F05 4809C9                  	or rPOk, rPOk
  5218 00003F08 7502                    	jnz SD027A
  5219 00003F0A EB71                    	jmp SDEnd027A
  5220                                  SD027A:
  5221 00003F0C E8(00000000)            	call cPush
  5222 00003F11 E8BCC3FFFF              	call LLVAR
  5223 00003F16 E8(00000000)            	call Dec2Bin
  5224 00003F1B 4989C5                  	mov rFactCnt, rax
  5225 00003F1E 4809C0                  	or rax, rax
  5226 00003F21 7502                    	jnz FacRep027B
  5227 00003F23 EB0E                    	jmp FacEnd027B
  5228                                  FacRep027B:
  5229 00003F25 E851C4FFFF              	call ns
  5230 00003F2A 49FFCD                  	dec rFactCnt
  5231 00003F2D E304                    	jrcxz FacEnd027B
  5232 00003F2F 7402                    	jz FacEnd027B
  5233 00003F31 EBF2                    	jmp FacRep027B
  5234                                  FacEnd027B:
  5235 00003F33 E8(00000000)            	call cDrop
  5236 00003F38 4809C9                  	or rPOk, rPOk
  5237 00003F3B 7502                    	jnz SD027C
  5238 00003F3D EB3E                    	jmp SDEnd027A
  5239                                  SD027C:
  5240 00003F3F E8(00000000)            	call pOut
  5241 00003F44 1D0A09092242313020-     	 db 0x1D, 0x0a, 0x09, 0x09, '"B10 Track1 2nd card"		: "'
  5241 00003F4D 547261636B3120326E-
  5241 00003F56 642063617264220909-
  5241 00003F5F 3A2022             
  5242 00003F62 4809C9                  	or rPOk, rPOk
  5243 00003F65 7502                    	jnz SD027D
  5244 00003F67 EB14                    	jmp SDEnd027A
  5245                                  SD027D:
  5246 00003F69 E8(00000000)            	call pOutLI
  5247 00003F6E 4809C9                  	or rPOk, rPOk
  5248 00003F71 7502                    	jnz SD027E
  5249 00003F73 EB08                    	jmp SDEnd027A
  5250                                  SD027E:
  5251 00003F75 E8(00000000)            	call pOut
  5252 00003F7A 02222C                  	 db 0x02, '",'
  5253                                  SDEnd027A:
  5254 00003F7D E8(00000000)            	call cDrop
  5255 00003F82 4831C9                  	xor rPOk, rPOk
  5256 00003F85 48FFC1                  	inc rPOk
  5257 00003F88 4809C9                  	or rPOk, rPOk
  5258 00003F8B 7505                    	jnz SD027F
  5259 00003F8D E9B10A0000              	jmp SDEnd024F
  5260                                  SD027F:
  5261 00003F92 E8(00000000)            	call cPush
  5262 00003F97 E810C1FFFF              	call IsBit
  5263 00003F9C 0D00000000000000        	 dq 13
  5264 00003FA4 4809C9                  	or rPOk, rPOk
  5265 00003FA7 7502                    	jnz SD0280
  5266 00003FA9 EB6C                    	jmp SDEnd0280
  5267                                  SD0280:
  5268 00003FAB E8(00000000)            	call cPush
  5269 00003FB0 E81DC3FFFF              	call LLVAR
  5270 00003FB5 E8(00000000)            	call Dec2Bin
  5271 00003FBA 4989C5                  	mov rFactCnt, rax
  5272 00003FBD 4809C0                  	or rax, rax
  5273 00003FC0 7502                    	jnz FacRep0281
  5274 00003FC2 EB0E                    	jmp FacEnd0281
  5275                                  FacRep0281:
  5276 00003FC4 E87EC1FFFF              	call ans
  5277 00003FC9 49FFCD                  	dec rFactCnt
  5278 00003FCC E304                    	jrcxz FacEnd0281
  5279 00003FCE 7402                    	jz FacEnd0281
  5280 00003FD0 EBF2                    	jmp FacRep0281
  5281                                  FacEnd0281:
  5282 00003FD2 E8(00000000)            	call cDrop
  5283 00003FD7 4809C9                  	or rPOk, rPOk
  5284 00003FDA 7502                    	jnz SD0282
  5285 00003FDC EB39                    	jmp SDEnd0280
  5286                                  SD0282:
  5287 00003FDE E8(00000000)            	call pOut
  5288 00003FE3 180A09092242313320-     	 db 0x18, 0x0a, 0x09, 0x09, '"B13 RFID data"			: "'
  5288 00003FEC 524649442064617461-
  5288 00003FF5 220909093A2022     
  5289 00003FFC 4809C9                  	or rPOk, rPOk
  5290 00003FFF 7502                    	jnz SD0283
  5291 00004001 EB14                    	jmp SDEnd0280
  5292                                  SD0283:
  5293 00004003 E8(00000000)            	call pOutLI
  5294 00004008 4809C9                  	or rPOk, rPOk
  5295 0000400B 7502                    	jnz SD0284
  5296 0000400D EB08                    	jmp SDEnd0280
  5297                                  SD0284:
  5298 0000400F E8(00000000)            	call pOut
  5299 00004014 02222C                  	 db 0x02, '",'
  5300                                  SDEnd0280:
  5301 00004017 E8(00000000)            	call cDrop
  5302 0000401C 4831C9                  	xor rPOk, rPOk
  5303 0000401F 48FFC1                  	inc rPOk
  5304 00004022 4809C9                  	or rPOk, rPOk
  5305 00004025 7505                    	jnz SD0285
  5306 00004027 E9170A0000              	jmp SDEnd024F
  5307                                  SD0285:
  5308 0000402C E8(00000000)            	call cPush
  5309 00004031 E876C0FFFF              	call IsBit
  5310 00004036 0E00000000000000        	 dq 14
  5311 0000403E 4809C9                  	or rPOk, rPOk
  5312 00004041 7502                    	jnz SD0286
  5313 00004043 EB6D                    	jmp SDEnd0286
  5314                                  SD0286:
  5315 00004045 E8(00000000)            	call cPush
  5316 0000404A 41BD02000000            	mov rFactCnt, 2
  5317 00004050 4D09ED                  	or rFactCnt, rFactCnt
  5318 00004053 740E                    	jz FacEnd0287
  5319                                  FacRep0287:
  5320 00004055 E8EDC0FFFF              	call ans
  5321 0000405A 49FFCD                  	dec rFactCnt
  5322 0000405D E304                    	jrcxz FacEnd0287
  5323 0000405F 7402                    	jz FacEnd0287
  5324 00004061 EBF2                    	jmp FacRep0287
  5325                                  FacEnd0287:
  5326 00004063 E8(00000000)            	call cDrop
  5327 00004068 4809C9                  	or rPOk, rPOk
  5328 0000406B 7502                    	jnz SD0288
  5329 0000406D EB43                    	jmp SDEnd0286
  5330                                  SD0288:
  5331 0000406F E8(00000000)            	call pOut
  5332 00004074 220A09092242313420-     	 db 0x22, 0x0a, 0x09, 0x09, '"B14 PIN encryption method"	: "'
  5332 0000407D 50494E20656E637279-
  5332 00004086 7074696F6E206D6574-
  5332 0000408F 686F6422093A2022   
  5333 00004097 4809C9                  	or rPOk, rPOk
  5334 0000409A 7502                    	jnz SD0289
  5335 0000409C EB14                    	jmp SDEnd0286
  5336                                  SD0289:
  5337 0000409E E8(00000000)            	call pOutLI
  5338 000040A3 4809C9                  	or rPOk, rPOk
  5339 000040A6 7502                    	jnz SD028A
  5340 000040A8 EB08                    	jmp SDEnd0286
  5341                                  SD028A:
  5342 000040AA E8(00000000)            	call pOut
  5343 000040AF 02222C                  	 db 0x02, '",'
  5344                                  SDEnd0286:
  5345 000040B2 E8(00000000)            	call cDrop
  5346 000040B7 4831C9                  	xor rPOk, rPOk
  5347 000040BA 48FFC1                  	inc rPOk
  5348 000040BD 4809C9                  	or rPOk, rPOk
  5349 000040C0 7505                    	jnz SD028B
  5350 000040C2 E97C090000              	jmp SDEnd024F
  5351                                  SD028B:
  5352 000040C7 E8(00000000)            	call cPush
  5353 000040CC E8DBBFFFFF              	call IsBit
  5354 000040D1 0F00000000000000        	 dq 15
  5355 000040D9 4809C9                  	or rPOk, rPOk
  5356 000040DC 7502                    	jnz SD028C
  5357 000040DE EB6A                    	jmp SDEnd028C
  5358                                  SD028C:
  5359 000040E0 E8(00000000)            	call cPush
  5360 000040E5 41BD08000000            	mov rFactCnt, 8
  5361 000040EB 4D09ED                  	or rFactCnt, rFactCnt
  5362 000040EE 740E                    	jz FacEnd028D
  5363                                  FacRep028D:
  5364 000040F0 E8(00000000)            	call n
  5365 000040F5 49FFCD                  	dec rFactCnt
  5366 000040F8 E304                    	jrcxz FacEnd028D
  5367 000040FA 7402                    	jz FacEnd028D
  5368 000040FC EBF2                    	jmp FacRep028D
  5369                                  FacEnd028D:
  5370 000040FE E8(00000000)            	call cDrop
  5371 00004103 4809C9                  	or rPOk, rPOk
  5372 00004106 7502                    	jnz SD028E
  5373 00004108 EB40                    	jmp SDEnd028C
  5374                                  SD028E:
  5375 0000410A E8(00000000)            	call pOut
  5376 0000410F 1F0A09092242313520-     	 db 0x1F, 0x0a, 0x09, 0x09, '"B15 Settlement period"		: "'
  5376 00004118 536574746C656D656E-
  5376 00004121 7420706572696F6422-
  5376 0000412A 09093A2022         
  5377 0000412F 4809C9                  	or rPOk, rPOk
  5378 00004132 7502                    	jnz SD028F
  5379 00004134 EB14                    	jmp SDEnd028C
  5380                                  SD028F:
  5381 00004136 E8(00000000)            	call pOutLI
  5382 0000413B 4809C9                  	or rPOk, rPOk
  5383 0000413E 7502                    	jnz SD0290
  5384 00004140 EB08                    	jmp SDEnd028C
  5385                                  SD0290:
  5386 00004142 E8(00000000)            	call pOut
  5387 00004147 02222C                  	 db 0x02, '",'
  5388                                  SDEnd028C:
  5389 0000414A E8(00000000)            	call cDrop
  5390 0000414F 4831C9                  	xor rPOk, rPOk
  5391 00004152 48FFC1                  	inc rPOk
  5392 00004155 4809C9                  	or rPOk, rPOk
  5393 00004158 7505                    	jnz SD0291
  5394 0000415A E9E4080000              	jmp SDEnd024F
  5395                                  SD0291:
  5396 0000415F E8(00000000)            	call cPush
  5397 00004164 E843BFFFFF              	call IsBit
  5398 00004169 1000000000000000        	 dq 16
  5399 00004171 4809C9                  	or rPOk, rPOk
  5400 00004174 7502                    	jnz SD0292
  5401 00004176 EB64                    	jmp SDEnd0292
  5402                                  SD0292:
  5403 00004178 E8(00000000)            	call cPush
  5404 0000417D 41BD0E000000            	mov rFactCnt, 14
  5405 00004183 4D09ED                  	or rFactCnt, rFactCnt
  5406 00004186 740E                    	jz FacEnd0293
  5407                                  FacRep0293:
  5408 00004188 E8(00000000)            	call n
  5409 0000418D 49FFCD                  	dec rFactCnt
  5410 00004190 E304                    	jrcxz FacEnd0293
  5411 00004192 7402                    	jz FacEnd0293
  5412 00004194 EBF2                    	jmp FacRep0293
  5413                                  FacEnd0293:
  5414 00004196 E8(00000000)            	call cDrop
  5415 0000419B 4809C9                  	or rPOk, rPOk
  5416 0000419E 7502                    	jnz SD0294
  5417 000041A0 EB3A                    	jmp SDEnd0292
  5418                                  SD0294:
  5419 000041A2 E8(00000000)            	call pOut
  5420 000041A7 190A09092242313620-     	 db 0x19, 0x0a, 0x09, 0x09, '"B16 Online time"		: "'
  5420 000041B0 4F6E6C696E65207469-
  5420 000041B9 6D652209093A2022   
  5421 000041C1 4809C9                  	or rPOk, rPOk
  5422 000041C4 7502                    	jnz SD0295
  5423 000041C6 EB14                    	jmp SDEnd0292
  5424                                  SD0295:
  5425 000041C8 E8(00000000)            	call pOutLI
  5426 000041CD 4809C9                  	or rPOk, rPOk
  5427 000041D0 7502                    	jnz SD0296
  5428 000041D2 EB08                    	jmp SDEnd0292
  5429                                  SD0296:
  5430 000041D4 E8(00000000)            	call pOut
  5431 000041D9 02222C                  	 db 0x02, '",'
  5432                                  SDEnd0292:
  5433 000041DC E8(00000000)            	call cDrop
  5434 000041E1 4831C9                  	xor rPOk, rPOk
  5435 000041E4 48FFC1                  	inc rPOk
  5436 000041E7 4809C9                  	or rPOk, rPOk
  5437 000041EA 7505                    	jnz SD0297
  5438 000041EC E952080000              	jmp SDEnd024F
  5439                                  SD0297:
  5440 000041F1 E8(00000000)            	call cPush
  5441 000041F6 E8B1BEFFFF              	call IsBit
  5442 000041FB 2500000000000000        	 dq 37
  5443 00004203 4809C9                  	or rPOk, rPOk
  5444 00004206 7502                    	jnz SD0298
  5445 00004208 EB4F                    	jmp SDEnd0298
  5446                                  SD0298:
  5447 0000420A E838BFFFFF              	call ans
  5448 0000420F 4809C9                  	or rPOk, rPOk
  5449 00004212 7502                    	jnz SD0299
  5450 00004214 EB43                    	jmp SDEnd0298
  5451                                  SD0299:
  5452 00004216 E8(00000000)            	call pOut
  5453 0000421B 220A09092242333720-     	 db 0x22, 0x0a, 0x09, 0x09, '"B37 Vehicle ID entry mode"	: "'
  5453 00004224 56656869636C652049-
  5453 0000422D 4420656E747279206D-
  5453 00004236 6F646522093A2022   
  5454 0000423E 4809C9                  	or rPOk, rPOk
  5455 00004241 7502                    	jnz SD029A
  5456 00004243 EB14                    	jmp SDEnd0298
  5457                                  SD029A:
  5458 00004245 E8(00000000)            	call pOutLI
  5459 0000424A 4809C9                  	or rPOk, rPOk
  5460 0000424D 7502                    	jnz SD029B
  5461 0000424F EB08                    	jmp SDEnd0298
  5462                                  SD029B:
  5463 00004251 E8(00000000)            	call pOut
  5464 00004256 02222C                  	 db 0x02, '",'
  5465                                  SDEnd0298:
  5466 00004259 E8(00000000)            	call cDrop
  5467 0000425E 4831C9                  	xor rPOk, rPOk
  5468 00004261 48FFC1                  	inc rPOk
  5469 00004264 4809C9                  	or rPOk, rPOk
  5470 00004267 7505                    	jnz SD029C
  5471 00004269 E9D5070000              	jmp SDEnd024F
  5472                                  SD029C:
  5473 0000426E E8(00000000)            	call cPush
  5474 00004273 E834BEFFFF              	call IsBit
  5475 00004278 2600000000000000        	 dq 38
  5476 00004280 4809C9                  	or rPOk, rPOk
  5477 00004283 7502                    	jnz SD029D
  5478 00004285 EB4F                    	jmp SDEnd029D
  5479                                  SD029D:
  5480 00004287 E8BBBEFFFF              	call ans
  5481 0000428C 4809C9                  	or rPOk, rPOk
  5482 0000428F 7502                    	jnz SD029E
  5483 00004291 EB43                    	jmp SDEnd029D
  5484                                  SD029E:
  5485 00004293 E8(00000000)            	call pOut
  5486 00004298 220A09092242333820-     	 db 0x22, 0x0a, 0x09, 0x09, '"B38 Pump linked indicator"	: "'
  5486 000042A1 50756D70206C696E6B-
  5486 000042AA 656420696E64696361-
  5486 000042B3 746F7222093A2022   
  5487 000042BB 4809C9                  	or rPOk, rPOk
  5488 000042BE 7502                    	jnz SD029F
  5489 000042C0 EB14                    	jmp SDEnd029D
  5490                                  SD029F:
  5491 000042C2 E8(00000000)            	call pOutLI
  5492 000042C7 4809C9                  	or rPOk, rPOk
  5493 000042CA 7502                    	jnz SD02A0
  5494 000042CC EB08                    	jmp SDEnd029D
  5495                                  SD02A0:
  5496 000042CE E8(00000000)            	call pOut
  5497 000042D3 02222C                  	 db 0x02, '",'
  5498                                  SDEnd029D:
  5499 000042D6 E8(00000000)            	call cDrop
  5500 000042DB 4831C9                  	xor rPOk, rPOk
  5501 000042DE 48FFC1                  	inc rPOk
  5502 000042E1 4809C9                  	or rPOk, rPOk
  5503 000042E4 7505                    	jnz SD02A1
  5504 000042E6 E958070000              	jmp SDEnd024F
  5505                                  SD02A1:
  5506 000042EB E8(00000000)            	call cPush
  5507 000042F0 E8B7BDFFFF              	call IsBit
  5508 000042F5 2700000000000000        	 dq 39
  5509 000042FD 4809C9                  	or rPOk, rPOk
  5510 00004300 7502                    	jnz SD02A2
  5511 00004302 EB6C                    	jmp SDEnd02A2
  5512                                  SD02A2:
  5513 00004304 E8(00000000)            	call cPush
  5514 00004309 41BD0A000000            	mov rFactCnt, 10
  5515 0000430F 4D09ED                  	or rFactCnt, rFactCnt
  5516 00004312 740E                    	jz FacEnd02A3
  5517                                  FacRep02A3:
  5518 00004314 E8(00000000)            	call n
  5519 00004319 49FFCD                  	dec rFactCnt
  5520 0000431C E304                    	jrcxz FacEnd02A3
  5521 0000431E 7402                    	jz FacEnd02A3
  5522 00004320 EBF2                    	jmp FacRep02A3
  5523                                  FacEnd02A3:
  5524 00004322 E8(00000000)            	call cDrop
  5525 00004327 4809C9                  	or rPOk, rPOk
  5526 0000432A 7502                    	jnz SD02A4
  5527 0000432C EB42                    	jmp SDEnd02A2
  5528                                  SD02A4:
  5529 0000432E E8(00000000)            	call pOut
  5530 00004333 210A09092242333920-     	 db 0x21, 0x0a, 0x09, 0x09, '"B39 Delivery note number"	: "'
  5530 0000433C 44656C697665727920-
  5530 00004345 6E6F7465206E756D62-
  5530 0000434E 657222093A2022     
  5531 00004355 4809C9                  	or rPOk, rPOk
  5532 00004358 7502                    	jnz SD02A5
  5533 0000435A EB14                    	jmp SDEnd02A2
  5534                                  SD02A5:
  5535 0000435C E8(00000000)            	call pOutLI
  5536 00004361 4809C9                  	or rPOk, rPOk
  5537 00004364 7502                    	jnz SD02A6
  5538 00004366 EB08                    	jmp SDEnd02A2
  5539                                  SD02A6:
  5540 00004368 E8(00000000)            	call pOut
  5541 0000436D 02222C                  	 db 0x02, '",'
  5542                                  SDEnd02A2:
  5543 00004370 E8(00000000)            	call cDrop
  5544 00004375 4831C9                  	xor rPOk, rPOk
  5545 00004378 48FFC1                  	inc rPOk
  5546 0000437B 4809C9                  	or rPOk, rPOk
  5547 0000437E 7505                    	jnz SD02A7
  5548 00004380 E9BE060000              	jmp SDEnd024F
  5549                                  SD02A7:
  5550 00004385 E8(00000000)            	call cPush
  5551 0000438A E81DBDFFFF              	call IsBit
  5552 0000438F 2900000000000000        	 dq 41
  5553 00004397 4809C9                  	or rPOk, rPOk
  5554 0000439A 7502                    	jnz SD02A8
  5555 0000439C EB6F                    	jmp SDEnd02A8
  5556                                  SD02A8:
  5557 0000439E E8(00000000)            	call cPush
  5558 000043A3 E82ABFFFFF              	call LLVAR
  5559 000043A8 E8(00000000)            	call Dec2Bin
  5560 000043AD 4989C5                  	mov rFactCnt, rax
  5561 000043B0 4809C0                  	or rax, rax
  5562 000043B3 7502                    	jnz FacRep02A9
  5563 000043B5 EB0E                    	jmp FacEnd02A9
  5564                                  FacRep02A9:
  5565 000043B7 E88BBDFFFF              	call ans
  5566 000043BC 49FFCD                  	dec rFactCnt
  5567 000043BF E304                    	jrcxz FacEnd02A9
  5568 000043C1 7402                    	jz FacEnd02A9
  5569 000043C3 EBF2                    	jmp FacRep02A9
  5570                                  FacEnd02A9:
  5571 000043C5 E8(00000000)            	call cDrop
  5572 000043CA 4809C9                  	or rPOk, rPOk
  5573 000043CD 7502                    	jnz SD02AA
  5574 000043CF EB3C                    	jmp SDEnd02A8
  5575                                  SD02AA:
  5576 000043D1 E8(00000000)            	call pOut
  5577 000043D6 1B0A09092242343120-     	 db 0x1B, 0x0a, 0x09, 0x09, '"B41 Propriety use"		: "'
  5577 000043DF 50726F707269657479-
  5577 000043E8 207573652209093A20-
  5577 000043F1 22                 
  5578 000043F2 4809C9                  	or rPOk, rPOk
  5579 000043F5 7502                    	jnz SD02AB
  5580 000043F7 EB14                    	jmp SDEnd02A8
  5581                                  SD02AB:
  5582 000043F9 E8(00000000)            	call pOutLI
  5583 000043FE 4809C9                  	or rPOk, rPOk
  5584 00004401 7502                    	jnz SD02AC
  5585 00004403 EB08                    	jmp SDEnd02A8
  5586                                  SD02AC:
  5587 00004405 E8(00000000)            	call pOut
  5588 0000440A 02222C                  	 db 0x02, '",'
  5589                                  SDEnd02A8:
  5590 0000440D E8(00000000)            	call cDrop
  5591 00004412 4831C9                  	xor rPOk, rPOk
  5592 00004415 48FFC1                  	inc rPOk
  5593 00004418 4809C9                  	or rPOk, rPOk
  5594 0000441B 7505                    	jnz SD02AD
  5595 0000441D E921060000              	jmp SDEnd024F
  5596                                  SD02AD:
  5597 00004422 E8(00000000)            	call cPush
  5598 00004427 E880BCFFFF              	call IsBit
  5599 0000442C 2B00000000000000        	 dq 43
  5600 00004434 4809C9                  	or rPOk, rPOk
  5601 00004437 7502                    	jnz SD02AE
  5602 00004439 EB4D                    	jmp SDEnd02AE
  5603                                  SD02AE:
  5604 0000443B E8(00000000)            	call n
  5605 00004440 4809C9                  	or rPOk, rPOk
  5606 00004443 7502                    	jnz SD02AF
  5607 00004445 EB41                    	jmp SDEnd02AE
  5608                                  SD02AF:
  5609 00004447 E8(00000000)            	call pOut
  5610 0000444C 200A09092242343320-     	 db 0x20, 0x0a, 0x09, 0x09, '"B43 Solution identifier"	: "'
  5610 00004455 536F6C7574696F6E20-
  5610 0000445E 6964656E7469666965-
  5610 00004467 7222093A2022       
  5611 0000446D 4809C9                  	or rPOk, rPOk
  5612 00004470 7502                    	jnz SD02B0
  5613 00004472 EB14                    	jmp SDEnd02AE
  5614                                  SD02B0:
  5615 00004474 E8(00000000)            	call pOutLI
  5616 00004479 4809C9                  	or rPOk, rPOk
  5617 0000447C 7502                    	jnz SD02B1
  5618 0000447E EB08                    	jmp SDEnd02AE
  5619                                  SD02B1:
  5620 00004480 E8(00000000)            	call pOut
  5621 00004485 02222C                  	 db 0x02, '",'
  5622                                  SDEnd02AE:
  5623 00004488 E8(00000000)            	call cDrop
  5624 0000448D 4831C9                  	xor rPOk, rPOk
  5625 00004490 48FFC1                  	inc rPOk
  5626 00004493 4809C9                  	or rPOk, rPOk
  5627 00004496 7505                    	jnz SD02B2
  5628 00004498 E9A6050000              	jmp SDEnd024F
  5629                                  SD02B2:
  5630 0000449D E8(00000000)            	call cPush
  5631 000044A2 E805BCFFFF              	call IsBit
  5632 000044A7 2C00000000000000        	 dq 44
  5633 000044AF 4809C9                  	or rPOk, rPOk
  5634 000044B2 7502                    	jnz SD02B3
  5635 000044B4 EB5E                    	jmp SDEnd02B3
  5636                                  SD02B3:
  5637 000044B6 41BD06000000            	mov rFactCnt, 6
  5638 000044BC 4D09ED                  	or rFactCnt, rFactCnt
  5639 000044BF 740E                    	jz FacEnd02B4
  5640                                  FacRep02B4:
  5641 000044C1 E8(00000000)            	call n
  5642 000044C6 49FFCD                  	dec rFactCnt
  5643 000044C9 E304                    	jrcxz FacEnd02B4
  5644 000044CB 7402                    	jz FacEnd02B4
  5645 000044CD EBF2                    	jmp FacRep02B4
  5646                                  FacEnd02B4:
  5647 000044CF 4809C9                  	or rPOk, rPOk
  5648 000044D2 7502                    	jnz SD02B5
  5649 000044D4 EB3E                    	jmp SDEnd02B3
  5650                                  SD02B5:
  5651 000044D6 E8(00000000)            	call pOut
  5652 000044DB 1D0A09092242343420-     	 db 0x1D, 0x0a, 0x09, 0x09, '"B44 Truck/Driver ID"		: "'
  5652 000044E4 547275636B2F447269-
  5652 000044ED 766572204944220909-
  5652 000044F6 3A2022             
  5653 000044F9 4809C9                  	or rPOk, rPOk
  5654 000044FC 7502                    	jnz SD02B6
  5655 000044FE EB14                    	jmp SDEnd02B3
  5656                                  SD02B6:
  5657 00004500 E8(00000000)            	call pOutLI
  5658 00004505 4809C9                  	or rPOk, rPOk
  5659 00004508 7502                    	jnz SD02B7
  5660 0000450A EB08                    	jmp SDEnd02B3
  5661                                  SD02B7:
  5662 0000450C E8(00000000)            	call pOut
  5663 00004511 02222C                  	 db 0x02, '",'
  5664                                  SDEnd02B3:
  5665 00004514 E8(00000000)            	call cDrop
  5666 00004519 4831C9                  	xor rPOk, rPOk
  5667 0000451C 48FFC1                  	inc rPOk
  5668 0000451F 4809C9                  	or rPOk, rPOk
  5669 00004522 7505                    	jnz SD02B8
  5670 00004524 E91A050000              	jmp SDEnd024F
  5671                                  SD02B8:
  5672 00004529 E8(00000000)            	call cPush
  5673 0000452E E879BBFFFF              	call IsBit
  5674 00004533 2D00000000000000        	 dq 45
  5675 0000453B 4809C9                  	or rPOk, rPOk
  5676 0000453E 7502                    	jnz SD02B9
  5677 00004540 EB69                    	jmp SDEnd02B9
  5678                                  SD02B9:
  5679 00004542 E88BBDFFFF              	call LLVAR
  5680 00004547 E8(00000000)            	call Dec2Bin
  5681 0000454C 4989C5                  	mov rFactCnt, rax
  5682 0000454F 4809C0                  	or rax, rax
  5683 00004552 7502                    	jnz FacRep02BA
  5684 00004554 EB0E                    	jmp FacEnd02BA
  5685                                  FacRep02BA:
  5686 00004556 E8(00000000)            	call n
  5687 0000455B 49FFCD                  	dec rFactCnt
  5688 0000455E E304                    	jrcxz FacEnd02BA
  5689 00004560 7402                    	jz FacEnd02BA
  5690 00004562 EBF2                    	jmp FacRep02BA
  5691                                  FacEnd02BA:
  5692 00004564 4809C9                  	or rPOk, rPOk
  5693 00004567 7502                    	jnz SD02BB
  5694 00004569 EB40                    	jmp SDEnd02B9
  5695                                  SD02BB:
  5696 0000456B E8(00000000)            	call pOut
  5697 00004570 1F0A09092242343520-     	 db 0x1F, 0x0a, 0x09, 0x09, '"B45 VIB box identifier"	: "'
  5697 00004579 56494220626F782069-
  5697 00004582 64656E746966696572-
  5697 0000458B 22093A2022         
  5698 00004590 4809C9                  	or rPOk, rPOk
  5699 00004593 7502                    	jnz SD02BC
  5700 00004595 EB14                    	jmp SDEnd02B9
  5701                                  SD02BC:
  5702 00004597 E8(00000000)            	call pOutLI
  5703 0000459C 4809C9                  	or rPOk, rPOk
  5704 0000459F 7502                    	jnz SD02BD
  5705 000045A1 EB08                    	jmp SDEnd02B9
  5706                                  SD02BD:
  5707 000045A3 E8(00000000)            	call pOut
  5708 000045A8 02222C                  	 db 0x02, '",'
  5709                                  SDEnd02B9:
  5710 000045AB E8(00000000)            	call cDrop
  5711 000045B0 4831C9                  	xor rPOk, rPOk
  5712 000045B3 48FFC1                  	inc rPOk
  5713 000045B6 4809C9                  	or rPOk, rPOk
  5714 000045B9 7505                    	jnz SD02BE
  5715 000045BB E983040000              	jmp SDEnd024F
  5716                                  SD02BE:
  5717 000045C0 E8(00000000)            	call cPush
  5718 000045C5 E8E2BAFFFF              	call IsBit
  5719 000045CA 2E00000000000000        	 dq 46
  5720 000045D2 4809C9                  	or rPOk, rPOk
  5721 000045D5 7502                    	jnz SD02BF
  5722 000045D7 EB62                    	jmp SDEnd02BF
  5723                                  SD02BF:
  5724 000045D9 E8F4BCFFFF              	call LLVAR
  5725 000045DE E8(00000000)            	call Dec2Bin
  5726 000045E3 4989C5                  	mov rFactCnt, rax
  5727 000045E6 4809C0                  	or rax, rax
  5728 000045E9 7502                    	jnz FacRep02C0
  5729 000045EB EB0E                    	jmp FacEnd02C0
  5730                                  FacRep02C0:
  5731 000045ED E811BBFFFF              	call an
  5732 000045F2 49FFCD                  	dec rFactCnt
  5733 000045F5 E304                    	jrcxz FacEnd02C0
  5734 000045F7 7402                    	jz FacEnd02C0
  5735 000045F9 EBF2                    	jmp FacRep02C0
  5736                                  FacEnd02C0:
  5737 000045FB 4809C9                  	or rPOk, rPOk
  5738 000045FE 7502                    	jnz SD02C1
  5739 00004600 EB39                    	jmp SDEnd02BF
  5740                                  SD02C1:
  5741 00004602 E8(00000000)            	call pOut
  5742 00004607 180A09092242343620-     	 db 0x18, 0x0a, 0x09, 0x09, '"B46 Truck VIN"			: "'
  5742 00004610 547275636B2056494E-
  5742 00004619 220909093A2022     
  5743 00004620 4809C9                  	or rPOk, rPOk
  5744 00004623 7502                    	jnz SD02C2
  5745 00004625 EB14                    	jmp SDEnd02BF
  5746                                  SD02C2:
  5747 00004627 E8(00000000)            	call pOutLI
  5748 0000462C 4809C9                  	or rPOk, rPOk
  5749 0000462F 7502                    	jnz SD02C3
  5750 00004631 EB08                    	jmp SDEnd02BF
  5751                                  SD02C3:
  5752 00004633 E8(00000000)            	call pOut
  5753 00004638 02222C                  	 db 0x02, '",'
  5754                                  SDEnd02BF:
  5755 0000463B E8(00000000)            	call cDrop
  5756 00004640 4831C9                  	xor rPOk, rPOk
  5757 00004643 48FFC1                  	inc rPOk
  5758 00004646 4809C9                  	or rPOk, rPOk
  5759 00004649 7505                    	jnz SD02C4
  5760 0000464B E9F3030000              	jmp SDEnd024F
  5761                                  SD02C4:
  5762 00004650 E8(00000000)            	call cPush
  5763 00004655 E852BAFFFF              	call IsBit
  5764 0000465A 2F00000000000000        	 dq 47
  5765 00004662 4809C9                  	or rPOk, rPOk
  5766 00004665 7502                    	jnz SD02C5
  5767 00004667 EB60                    	jmp SDEnd02C5
  5768                                  SD02C5:
  5769 00004669 E854BCFFFF              	call LVAR
  5770 0000466E E8(00000000)            	call Dec2Bin
  5771 00004673 4989C5                  	mov rFactCnt, rax
  5772 00004676 4809C0                  	or rax, rax
  5773 00004679 7502                    	jnz FacRep02C6
  5774 0000467B EB0E                    	jmp FacEnd02C6
  5775                                  FacRep02C6:
  5776 0000467D E8(00000000)            	call n
  5777 00004682 49FFCD                  	dec rFactCnt
  5778 00004685 E304                    	jrcxz FacEnd02C6
  5779 00004687 7402                    	jz FacEnd02C6
  5780 00004689 EBF2                    	jmp FacRep02C6
  5781                                  FacEnd02C6:
  5782 0000468B 4809C9                  	or rPOk, rPOk
  5783 0000468E 7502                    	jnz SD02C7
  5784 00004690 EB37                    	jmp SDEnd02C5
  5785                                  SD02C7:
  5786 00004692 E8(00000000)            	call pOut
  5787 00004697 160A09092242343720-     	 db 0x16, 0x0a, 0x09, 0x09, '"B47 Mileage"			: "'
  5787 000046A0 4D696C656167652209-
  5787 000046A9 09093A2022         
  5788 000046AE 4809C9                  	or rPOk, rPOk
  5789 000046B1 7502                    	jnz SD02C8
  5790 000046B3 EB14                    	jmp SDEnd02C5
  5791                                  SD02C8:
  5792 000046B5 E8(00000000)            	call pOutLI
  5793 000046BA 4809C9                  	or rPOk, rPOk
  5794 000046BD 7502                    	jnz SD02C9
  5795 000046BF EB08                    	jmp SDEnd02C5
  5796                                  SD02C9:
  5797 000046C1 E8(00000000)            	call pOut
  5798 000046C6 02222C                  	 db 0x02, '",'
  5799                                  SDEnd02C5:
  5800 000046C9 E8(00000000)            	call cDrop
  5801 000046CE 4831C9                  	xor rPOk, rPOk
  5802 000046D1 48FFC1                  	inc rPOk
  5803 000046D4 4809C9                  	or rPOk, rPOk
  5804 000046D7 7505                    	jnz SD02CA
  5805 000046D9 E965030000              	jmp SDEnd024F
  5806                                  SD02CA:
  5807 000046DE E8(00000000)            	call cPush
  5808 000046E3 E8C4B9FFFF              	call IsBit
  5809 000046E8 3000000000000000        	 dq 48
  5810 000046F0 4809C9                  	or rPOk, rPOk
  5811 000046F3 7502                    	jnz SD02CB
  5812 000046F5 EB59                    	jmp SDEnd02CB
  5813                                  SD02CB:
  5814 000046F7 41BD0E000000            	mov rFactCnt, 14
  5815 000046FD 4D09ED                  	or rFactCnt, rFactCnt
  5816 00004700 740E                    	jz FacEnd02CC
  5817                                  FacRep02CC:
  5818 00004702 E8(00000000)            	call n
  5819 00004707 49FFCD                  	dec rFactCnt
  5820 0000470A E304                    	jrcxz FacEnd02CC
  5821 0000470C 7402                    	jz FacEnd02CC
  5822 0000470E EBF2                    	jmp FacRep02CC
  5823                                  FacEnd02CC:
  5824 00004710 4809C9                  	or rPOk, rPOk
  5825 00004713 7502                    	jnz SD02CD
  5826 00004715 EB39                    	jmp SDEnd02CB
  5827                                  SD02CD:
  5828 00004717 E8(00000000)            	call pOut
  5829 0000471C 180A09092242343820-     	 db 0x18, 0x0a, 0x09, 0x09, '"B48 Timestamp"			: "'
  5829 00004725 54696D657374616D70-
  5829 0000472E 220909093A2022     
  5830 00004735 4809C9                  	or rPOk, rPOk
  5831 00004738 7502                    	jnz SD02CE
  5832 0000473A EB14                    	jmp SDEnd02CB
  5833                                  SD02CE:
  5834 0000473C E8(00000000)            	call pOutLI
  5835 00004741 4809C9                  	or rPOk, rPOk
  5836 00004744 7502                    	jnz SD02CF
  5837 00004746 EB08                    	jmp SDEnd02CB
  5838                                  SD02CF:
  5839 00004748 E8(00000000)            	call pOut
  5840 0000474D 02222C                  	 db 0x02, '",'
  5841                                  SDEnd02CB:
  5842 00004750 E8(00000000)            	call cDrop
  5843 00004755 4831C9                  	xor rPOk, rPOk
  5844 00004758 48FFC1                  	inc rPOk
  5845 0000475B 4809C9                  	or rPOk, rPOk
  5846 0000475E 7505                    	jnz SD02D0
  5847 00004760 E9DE020000              	jmp SDEnd024F
  5848                                  SD02D0:
  5849 00004765 E8(00000000)            	call cPush
  5850 0000476A E83DB9FFFF              	call IsBit
  5851 0000476F 3100000000000000        	 dq 49
  5852 00004777 4809C9                  	or rPOk, rPOk
  5853 0000477A 7502                    	jnz SD02D1
  5854 0000477C EB6A                    	jmp SDEnd02D1
  5855                                  SD02D1:
  5856 0000477E E84FBBFFFF              	call LLVAR
  5857 00004783 E8(00000000)            	call Dec2Bin
  5858 00004788 4989C5                  	mov rFactCnt, rax
  5859 0000478B 4809C0                  	or rax, rax
  5860 0000478E 7502                    	jnz FacRep02D2
  5861 00004790 EB0E                    	jmp FacEnd02D2
  5862                                  FacRep02D2:
  5863 00004792 E8(00000000)            	call b
  5864 00004797 49FFCD                  	dec rFactCnt
  5865 0000479A E304                    	jrcxz FacEnd02D2
  5866 0000479C 7402                    	jz FacEnd02D2
  5867 0000479E EBF2                    	jmp FacRep02D2
  5868                                  FacEnd02D2:
  5869 000047A0 4809C9                  	or rPOk, rPOk
  5870 000047A3 7502                    	jnz SD02D3
  5871 000047A5 EB41                    	jmp SDEnd02D1
  5872                                  SD02D3:
  5873 000047A7 E8(00000000)            	call pOut
  5874 000047AC 200A09092242343920-     	 db 0x20, 0x0a, 0x09, 0x09, '"B49 VIB additional data"	: "'
  5874 000047B5 564942206164646974-
  5874 000047BE 696F6E616C20646174-
  5874 000047C7 6122093A2022       
  5875 000047CD 4809C9                  	or rPOk, rPOk
  5876 000047D0 7502                    	jnz SD02D4
  5877 000047D2 EB14                    	jmp SDEnd02D1
  5878                                  SD02D4:
  5879 000047D4 E8(00000000)            	call pOutLI
  5880 000047D9 4809C9                  	or rPOk, rPOk
  5881 000047DC 7502                    	jnz SD02D5
  5882 000047DE EB08                    	jmp SDEnd02D1
  5883                                  SD02D5:
  5884 000047E0 E8(00000000)            	call pOut
  5885 000047E5 02222C                  	 db 0x02, '",'
  5886                                  SDEnd02D1:
  5887 000047E8 E8(00000000)            	call cDrop
  5888 000047ED 4831C9                  	xor rPOk, rPOk
  5889 000047F0 48FFC1                  	inc rPOk
  5890 000047F3 4809C9                  	or rPOk, rPOk
  5891 000047F6 7505                    	jnz SD02D6
  5892 000047F8 E946020000              	jmp SDEnd024F
  5893                                  SD02D6:
  5894 000047FD E8(00000000)            	call cPush
  5895 00004802 E8A5B8FFFF              	call IsBit
  5896 00004807 3200000000000000        	 dq 50
  5897 0000480F 4809C9                  	or rPOk, rPOk
  5898 00004812 7502                    	jnz SD02D7
  5899 00004814 EB5E                    	jmp SDEnd02D7
  5900                                  SD02D7:
  5901 00004816 E8(00000000)            	call cPush
  5902 0000481B 41BD02000000            	mov rFactCnt, 2
  5903 00004821 4D09ED                  	or rFactCnt, rFactCnt
  5904 00004824 740E                    	jz FacEnd02D8
  5905                                  FacRep02D8:
  5906 00004826 E8(00000000)            	call n
  5907 0000482B 49FFCD                  	dec rFactCnt
  5908 0000482E E304                    	jrcxz FacEnd02D8
  5909 00004830 7402                    	jz FacEnd02D8
  5910 00004832 EBF2                    	jmp FacRep02D8
  5911                                  FacEnd02D8:
  5912 00004834 E8(00000000)            	call cDrop
  5913 00004839 4809C9                  	or rPOk, rPOk
  5914 0000483C 7502                    	jnz SD02D9
  5915 0000483E EB34                    	jmp SDEnd02D7
  5916                                  SD02D9:
  5917 00004840 E8(00000000)            	call pOut
  5918 00004845 130A09092242353020-     	 db 0x13, 0x0a, 0x09, 0x09, '"B50 Pump"			: "'
  5918 0000484E 50756D70220909093A-
  5918 00004857 2022               
  5919 00004859 4809C9                  	or rPOk, rPOk
  5920 0000485C 7502                    	jnz SD02DA
  5921 0000485E EB14                    	jmp SDEnd02D7
  5922                                  SD02DA:
  5923 00004860 E8(00000000)            	call pOutLI
  5924 00004865 4809C9                  	or rPOk, rPOk
  5925 00004868 7502                    	jnz SD02DB
  5926 0000486A EB08                    	jmp SDEnd02D7
  5927                                  SD02DB:
  5928 0000486C E8(00000000)            	call pOut
  5929 00004871 02222C                  	 db 0x02, '",'
  5930                                  SDEnd02D7:
  5931 00004874 E8(00000000)            	call cDrop
  5932 00004879 4831C9                  	xor rPOk, rPOk
  5933 0000487C 48FFC1                  	inc rPOk
  5934 0000487F 4809C9                  	or rPOk, rPOk
  5935 00004882 7505                    	jnz SD02DC
  5936 00004884 E9BA010000              	jmp SDEnd024F
  5937                                  SD02DC:
  5938 00004889 E8(00000000)            	call cPush
  5939 0000488E E819B8FFFF              	call IsBit
  5940 00004893 3300000000000000        	 dq 51
  5941 0000489B 4809C9                  	or rPOk, rPOk
  5942 0000489E 7502                    	jnz SD02DD
  5943 000048A0 EB60                    	jmp SDEnd02DD
  5944                                  SD02DD:
  5945 000048A2 E8(00000000)            	call cPush
  5946 000048A7 41BD02000000            	mov rFactCnt, 2
  5947 000048AD 4D09ED                  	or rFactCnt, rFactCnt
  5948 000048B0 740E                    	jz FacEnd02DE
  5949                                  FacRep02DE:
  5950 000048B2 E8(00000000)            	call n
  5951 000048B7 49FFCD                  	dec rFactCnt
  5952 000048BA E304                    	jrcxz FacEnd02DE
  5953 000048BC 7402                    	jz FacEnd02DE
  5954 000048BE EBF2                    	jmp FacRep02DE
  5955                                  FacEnd02DE:
  5956 000048C0 E8(00000000)            	call cDrop
  5957 000048C5 4809C9                  	or rPOk, rPOk
  5958 000048C8 7502                    	jnz SD02DF
  5959 000048CA EB36                    	jmp SDEnd02DD
  5960                                  SD02DF:
  5961 000048CC E8(00000000)            	call pOut
  5962 000048D1 150A09092242353120-     	 db 0x15, 0x0a, 0x09, 0x09, '"B51 Nozzle"			: "'
  5962 000048DA 4E6F7A7A6C65220909-
  5962 000048E3 093A2022           
  5963 000048E7 4809C9                  	or rPOk, rPOk
  5964 000048EA 7502                    	jnz SD02E0
  5965 000048EC EB14                    	jmp SDEnd02DD
  5966                                  SD02E0:
  5967 000048EE E8(00000000)            	call pOutLI
  5968 000048F3 4809C9                  	or rPOk, rPOk
  5969 000048F6 7502                    	jnz SD02E1
  5970 000048F8 EB08                    	jmp SDEnd02DD
  5971                                  SD02E1:
  5972 000048FA E8(00000000)            	call pOut
  5973 000048FF 02222C                  	 db 0x02, '",'
  5974                                  SDEnd02DD:
  5975 00004902 E8(00000000)            	call cDrop
  5976 00004907 4831C9                  	xor rPOk, rPOk
  5977 0000490A 48FFC1                  	inc rPOk
  5978 0000490D 4809C9                  	or rPOk, rPOk
  5979 00004910 7505                    	jnz SD02E2
  5980 00004912 E92C010000              	jmp SDEnd024F
  5981                                  SD02E2:
  5982 00004917 E8(00000000)            	call cPush
  5983 0000491C E88BB7FFFF              	call IsBit
  5984 00004921 3400000000000000        	 dq 52
  5985 00004929 4809C9                  	or rPOk, rPOk
  5986 0000492C 7502                    	jnz SD02E3
  5987 0000492E EB5B                    	jmp SDEnd02E3
  5988                                  SD02E3:
  5989 00004930 41BD07000000            	mov rFactCnt, 7
  5990 00004936 4D09ED                  	or rFactCnt, rFactCnt
  5991 00004939 740E                    	jz FacEnd02E4
  5992                                  FacRep02E4:
  5993 0000493B E8(00000000)            	call b
  5994 00004940 49FFCD                  	dec rFactCnt
  5995 00004943 E304                    	jrcxz FacEnd02E4
  5996 00004945 7402                    	jz FacEnd02E4
  5997 00004947 EBF2                    	jmp FacRep02E4
  5998                                  FacEnd02E4:
  5999 00004949 4809C9                  	or rPOk, rPOk
  6000 0000494C 7502                    	jnz SD02E5
  6001 0000494E EB3B                    	jmp SDEnd02E3
  6002                                  SD02E5:
  6003 00004950 E8(00000000)            	call pOut
  6004 00004955 1A0A09092242353220-     	 db 0x1A, 0x0a, 0x09, 0x09, '"B52 IDS specific"		: "'
  6004 0000495E 494453207370656369-
  6004 00004967 6669632209093A2022 
  6005 00004970 4809C9                  	or rPOk, rPOk
  6006 00004973 7502                    	jnz SD02E6
  6007 00004975 EB14                    	jmp SDEnd02E3
  6008                                  SD02E6:
  6009 00004977 E8(00000000)            	call pOutLI
  6010 0000497C 4809C9                  	or rPOk, rPOk
  6011 0000497F 7502                    	jnz SD02E7
  6012 00004981 EB08                    	jmp SDEnd02E3
  6013                                  SD02E7:
  6014 00004983 E8(00000000)            	call pOut
  6015 00004988 02222C                  	 db 0x02, '",'
  6016                                  SDEnd02E3:
  6017 0000498B E8(00000000)            	call cDrop
  6018 00004990 4831C9                  	xor rPOk, rPOk
  6019 00004993 48FFC1                  	inc rPOk
  6020 00004996 4809C9                  	or rPOk, rPOk
  6021 00004999 7505                    	jnz SD02E8
  6022 0000499B E9A3000000              	jmp SDEnd024F
  6023                                  SD02E8:
  6024 000049A0 E8(00000000)            	call cPush
  6025 000049A5 E802B7FFFF              	call IsBit
  6026 000049AA 3500000000000000        	 dq 53
  6027 000049B2 4809C9                  	or rPOk, rPOk
  6028 000049B5 7502                    	jnz SD02E9
  6029 000049B7 EB64                    	jmp SDEnd02E9
  6030                                  SD02E9:
  6031 000049B9 E814B9FFFF              	call LLVAR
  6032 000049BE E8(00000000)            	call Dec2Bin
  6033 000049C3 4989C5                  	mov rFactCnt, rax
  6034 000049C6 4809C0                  	or rax, rax
  6035 000049C9 7502                    	jnz FacRep02EA
  6036 000049CB EB0E                    	jmp FacEnd02EA
  6037                                  FacRep02EA:
  6038 000049CD E8(00000000)            	call b
  6039 000049D2 49FFCD                  	dec rFactCnt
  6040 000049D5 E304                    	jrcxz FacEnd02EA
  6041 000049D7 7402                    	jz FacEnd02EA
  6042 000049D9 EBF2                    	jmp FacRep02EA
  6043                                  FacEnd02EA:
  6044 000049DB 4809C9                  	or rPOk, rPOk
  6045 000049DE 7502                    	jnz SD02EB
  6046 000049E0 EB3B                    	jmp SDEnd02E9
  6047                                  SD02EB:
  6048 000049E2 E8(00000000)            	call pOut
  6049 000049E7 1A0A09092242353320-     	 db 0x1A, 0x0a, 0x09, 0x09, '"B53 IDS specific"		: "'
  6049 000049F0 494453207370656369-
  6049 000049F9 6669632209093A2022 
  6050 00004A02 4809C9                  	or rPOk, rPOk
  6051 00004A05 7502                    	jnz SD02EC
  6052 00004A07 EB14                    	jmp SDEnd02E9
  6053                                  SD02EC:
  6054 00004A09 E8(00000000)            	call pOutLI
  6055 00004A0E 4809C9                  	or rPOk, rPOk
  6056 00004A11 7502                    	jnz SD02ED
  6057 00004A13 EB08                    	jmp SDEnd02E9
  6058                                  SD02ED:
  6059 00004A15 E8(00000000)            	call pOut
  6060 00004A1A 02222C                  	 db 0x02, '",'
  6061                                  SDEnd02E9:
  6062 00004A1D E8(00000000)            	call cDrop
  6063 00004A22 4831C9                  	xor rPOk, rPOk
  6064 00004A25 48FFC1                  	inc rPOk
  6065 00004A28 4809C9                  	or rPOk, rPOk
  6066 00004A2B 7502                    	jnz SD02EE
  6067 00004A2D EB14                    	jmp SDEnd024F
  6068                                  SD02EE:
  6069 00004A2F E8(00000000)            	call DropLastChar
  6070 00004A34 4809C9                  	or rPOk, rPOk
  6071 00004A37 7502                    	jnz SD02EF
  6072 00004A39 EB08                    	jmp SDEnd024F
  6073                                  SD02EF:
  6074 00004A3B E8(00000000)            	call pOut
  6075 00004A40 027D2C                  	 db 0x02, '},'
  6076                                  SDEnd024F:
  6077 00004A43 E8(00000000)            	call cDrop
  6078 00004A48 C3                      	ret
  6079                                  
  6080                                  ;Fields48=
  6081                                  ;	[IsBit(2), (20*an),		pOut(0x0a, 0x09, 0x09, '"B02 Hard-/Software config."	: "'), pOutLI,	pOut('",')],
  6082                                  ;	[IsBit(3), (2*a),		pOut(0x0a, 0x09, 0x09, '"B03 Language code"		: "'), pOutLI,	pOut('",')],
  6083                                  ;	[IsBit(4), (10*n),		pOut(0x0a, 0x09, 0x09, '"B04 Batch/sequence number"	: "'), pOutLI,	pOut('",')],
  6084                                  ;	[IsBit(5), (3*n),		pOut(0x0a, 0x09, 0x09, '"B05 Shift number"		: "'), pOutLI,	pOut('",')],
  6085                                  ;	[IsBit(6), (LLVAR*n),		pOut(0x0a, 0x09, 0x09, '"B06 Clerk ID"			: "'), pOutLI,	pOut('",')],
  6086                                  ;	[IsBit(8), (LLLVAR * ans,	pOut(0x0a, 0x09, 0x09, '"B08 Customer data"		: "')) + LLLVAR * ( '\', pOut('\\')
  6087                                  ;														  | '"', pOut('\"')
  6088                                  ;														  | ans, pOutLI)
  6089                                  ;											    	     ,		pOut('",')],
  6090                                  ;	[IsBit(9),  (LLVAR * ns),	pOut(0x0a, 0x09, 0x09, '"B09 Track2 2nd card"		: "'), pOutLI,	pOut('",')],
  6091                                  ;	[IsBit(10), (LLVAR * ns),	pOut(0x0a, 0x09, 0x09, '"B10 Track1 2nd card"		: "'), pOutLI,	pOut('",')],
  6092                                  ;	[IsBit(13), (LLVAR * ans),	pOut(0x0a, 0x09, 0x09, '"B13 RFID data"			: "'), pOutLI,	pOut('",')],
  6093                                  ;	[IsBit(14), (2*ans), 		pOut(0x0a, 0x09, 0x09, '"B14 PIN encryption method"	: "'), pOutLI,	pOut('",')],
  6094                                  ;	[IsBit(15), (8*n), 		pOut(0x0a, 0x09, 0x09, '"B15 Settlement period"		: "'), pOutLI,	pOut('",')],
  6095                                  ;	[IsBit(16), (14*n), 		pOut(0x0a, 0x09, 0x09, '"B16 Online time"		: "'), pOutLI,	pOut('",')],
  6096                                  ;	[IsBit(37), ans, 		pOut(0x0a, 0x09, 0x09, '"B37 Vehicle ID entry mode"	: "'), pOutLI,	pOut('",')],
  6097                                  ;	[IsBit(38), ans, 		pOut(0x0a, 0x09, 0x09, '"B38 Pump linked indicator"	: "'), pOutLI,	pOut('",')],
  6098                                  ;	[IsBit(39), (10*n), 		pOut(0x0a, 0x09, 0x09, '"B39 Delivery note number"	: "'), pOutLI,	pOut('",')],
  6099                                  ;	[IsBit(41), (LLVAR*ans), 	pOut(0x0a, 0x09, 0x09, '"B41 Propriety use"		: "'), pOutLI,	pOut('",')],
  6100                                  ;	[IsBit(43), n, 			pOut(0x0a, 0x09, 0x09, '"B43 Solution identifier"	: "'), pOutLI,	pOut('",')],
  6101                                  ;	[IsBit(44), 6*n, 		pOut(0x0a, 0x09, 0x09, '"B44 Truck/Driver ID"		: "'), pOutLI,	pOut('",')],
  6102                                  ;	[IsBit(45), LLVAR*n, 		pOut(0x0a, 0x09, 0x09, '"B45 VIB box identifier"	: "'), pOutLI,	pOut('",')],
  6103                                  ;	[IsBit(46), LLVAR*an, 		pOut(0x0a, 0x09, 0x09, '"B46 Truck VIN"			: "'), pOutLI,	pOut('",')],
  6104                                  ;	[IsBit(47), LVAR*n, 		pOut(0x0a, 0x09, 0x09, '"B47 Mileage"			: "'), pOutLI,	pOut('",')],
  6105                                  ;	[IsBit(48), 14*n, 		pOut(0x0a, 0x09, 0x09, '"B48 Timestamp"			: "'), pOutLI,	pOut('",')],
  6106                                  ;	[IsBit(49), LLVAR*b, 		pOut(0x0a, 0x09, 0x09, '"B49 VIB additional data"	: "'), pOutLI,	pOut('",')],
  6107                                  ;	[IsBit(50), (2*n), 		pOut(0x0a, 0x09, 0x09, '"B50 Pump"			: "'), pOutLI,	pOut('",')],
  6108                                  ;	[IsBit(51), (2*n), 		pOut(0x0a, 0x09, 0x09, '"B51 Nozzle"			: "'), pOutLI,	pOut('",')],
  6109                                  ;	
  6110                                  ;	[IsBit(52), 7*b, 		pOut(0x0a, 0x09, 0x09, '"B52 IDS specific"		: "'), pOutLI,	pOut('",')],
  6111                                  ;	[IsBit(53), LLVAR*b, 		pOut(0x0a, 0x09, 0x09, '"B53 IDS specific"		: "'), pOutLI,	pOut('",')],	/* LLVAR missed in CGI spec. */
  6112                                  ;	DropLastChar,
  6113                                  ;	pOut('},');
  6114                                  ;
  6115                                  ;
  6116                                  
  6117                                  ;xxxxxxxxxxxxxxxxxxxxxxxxxxxxxxxxxxxxxxxxxxxxxxxxxxxxxxxxxxxxxxxxxxxxxxxxxxxxxx
  6118                                  Bit3:
  6119 00004A49 E8(00000000)            	call cPush
  6120 00004A4E E8(00000000)            	call pOut
  6121 00004A53 0C0A09092250313222-     	 db 0x0C, 0x0a, 0x09, 0x09, '"P12" : "'
  6121 00004A5C 203A2022           
  6122 00004A60 4809C9                  	or rPOk, rPOk
  6123 00004A63 7505                    	jnz SD02F0
  6124 00004A65 E9DF080000              	jmp SDEnd02F0
  6125                                  SD02F0:
  6126 00004A6A E8(00000000)            	call cPush
  6127 00004A6F E8(00000000)            	call pIn
  6128 00004A74 023030                  	 db 0x0002, "00"
  6129 00004A77 4809C9                  	or rPOk, rPOk
  6130 00004A7A 7502                    	jnz SD02F1
  6131 00004A7C EB2C                    	jmp SDEnd02F1
  6132                                  SD02F1:
  6133 00004A7E E8(00000000)            	call pOut
  6134 00004A83 263030204465626974-     	 db 0x26, '00 Debits Payment/Goods and services",'
  6134 00004A8C 73205061796D656E74-
  6134 00004A95 2F476F6F647320616E-
  6134 00004A9E 642073657276696365-
  6134 00004AA7 73222C             
  6135                                  SDEnd02F1:
  6136 00004AAA E305                    	jrcxz DL02F2
  6137 00004AAC E940040000              	jmp DLEnd02F2
  6138 00004AB1 48FFC1                  DL02F2:	inc rcx
  6139 00004AB4 E8(00000000)            	call cTop
  6140 00004AB9 E8(00000000)            	call pIn
  6141 00004ABE 023031                  	 db 0x0002, "01"
  6142 00004AC1 4809C9                  	or rPOk, rPOk
  6143 00004AC4 7502                    	jnz SD02F3
  6144 00004AC6 EB21                    	jmp SDEnd02F3
  6145                                  SD02F3:
  6146 00004AC8 E8(00000000)            	call pOut
  6147 00004ACD 1B3031204465626974-     	 db 0x1B, '01 Debits Cash withdrawal",'
  6147 00004AD6 732043617368207769-
  6147 00004ADF 746864726177616C22-
  6147 00004AE8 2C                 
  6148                                  SDEnd02F3:
  6149 00004AE9 E305                    	jrcxz DL02F4
  6150 00004AEB E901040000              	jmp DLEnd02F2
  6151 00004AF0 48FFC1                  DL02F4:	inc rcx
  6152 00004AF3 E8(00000000)            	call cTop
  6153 00004AF8 E8(00000000)            	call pIn
  6154 00004AFD 023039                  	 db 0x0002, "09"
  6155 00004B00 4809C9                  	or rPOk, rPOk
  6156 00004B03 7502                    	jnz SD02F5
  6157 00004B05 EB3B                    	jmp SDEnd02F5
  6158                                  SD02F5:
  6159 00004B07 E8(00000000)            	call pOut
  6160 00004B0C 353039204465626974-     	 db 0x35, '09 Debits Goods and services with cash disbursement",'
  6160 00004B15 7320476F6F64732061-
  6160 00004B1E 6E6420736572766963-
  6160 00004B27 657320776974682063-
  6160 00004B30 617368206469736275-
  6160 00004B39 7273656D656E74222C 
  6161                                  SDEnd02F5:
  6162 00004B42 E305                    	jrcxz DL02F6
  6163 00004B44 E9A8030000              	jmp DLEnd02F2
  6164 00004B49 48FFC1                  DL02F6:	inc rcx
  6165 00004B4C E8(00000000)            	call cTop
  6166 00004B51 E8(00000000)            	call pIn
  6167 00004B56 023137                  	 db 0x0002, "17"
  6168 00004B59 4809C9                  	or rPOk, rPOk
  6169 00004B5C 7502                    	jnz SD02F7
  6170 00004B5E EB58                    	jmp SDEnd02F7
  6171                                  SD02F7:
  6172 00004B60 E8(00000000)            	call pOut
  6173 00004B65 523137204465626974-     	 db 0x52, '17 Debits Cash Advance/Cash Sale (private value) Used to register loyalty points",'
  6173 00004B6E 732043617368204164-
  6173 00004B77 76616E63652F436173-
  6173 00004B80 682053616C65202870-
  6173 00004B89 726976617465207661-
  6173 00004B92 6C7565292055736564-
  6173 00004B9B 20746F207265676973-
  6173 00004BA4 746572206C6F79616C-
  6173 00004BAD 747920706F696E7473-
  6173 00004BB6 222C               
  6174                                  SDEnd02F7:
  6175 00004BB8 E305                    	jrcxz DL02F8
  6176 00004BBA E932030000              	jmp DLEnd02F2
  6177 00004BBF 48FFC1                  DL02F8:	inc rcx
  6178 00004BC2 E8(00000000)            	call cTop
  6179 00004BC7 E8(00000000)            	call pIn
  6180 00004BCC 023138                  	 db 0x0002, "18"
  6181 00004BCF 4809C9                  	or rPOk, rPOk
  6182 00004BD2 7502                    	jnz SD02F9
  6183 00004BD4 EB23                    	jmp SDEnd02F9
  6184                                  SD02F9:
  6185 00004BD6 E8(00000000)            	call pOut
  6186 00004BDB 1D3138204465626974-     	 db 0x1D, '18 Debits Pre-Authorisation",'
  6186 00004BE4 73205072652D417574-
  6186 00004BED 686F7269736174696F-
  6186 00004BF6 6E222C             
  6187                                  SDEnd02F9:
  6188 00004BF9 E305                    	jrcxz DL02FA
  6189 00004BFB E9F1020000              	jmp DLEnd02F2
  6190 00004C00 48FFC1                  DL02FA:	inc rcx
  6191 00004C03 E8(00000000)            	call cTop
  6192 00004C08 E8(00000000)            	call pIn
  6193 00004C0D 023139                  	 db 0x0002, "19"
  6194 00004C10 4809C9                  	or rPOk, rPOk
  6195 00004C13 7502                    	jnz SD02FB
  6196 00004C15 EB24                    	jmp SDEnd02FB
  6197                                  SD02FB:
  6198 00004C17 E8(00000000)            	call pOut
  6199 00004C1C 1E3139204465626974-     	 db 0x1E, '19 Debits Payment Completion",'
  6199 00004C25 73205061796D656E74-
  6199 00004C2E 20436F6D706C657469-
  6199 00004C37 6F6E222C           
  6200                                  SDEnd02FB:
  6201 00004C3B E305                    	jrcxz DL02FC
  6202 00004C3D E9AF020000              	jmp DLEnd02F2
  6203 00004C42 48FFC1                  DL02FC:	inc rcx
  6204 00004C45 E8(00000000)            	call cTop
  6205 00004C4A E8(00000000)            	call pIn
  6206 00004C4F 023230                  	 db 0x0002, "20"
  6207 00004C52 4809C9                  	or rPOk, rPOk
  6208 00004C55 7502                    	jnz SD02FD
  6209 00004C57 EB21                    	jmp SDEnd02FD
  6210                                  SD02FD:
  6211 00004C59 E8(00000000)            	call pOut
  6212 00004C5E 1B3230204372656469-     	 db 0x1B, '20 Credits Returns/Refund",'
  6212 00004C67 74732052657475726E-
  6212 00004C70 732F526566756E6422-
  6212 00004C79 2C                 
  6213                                  SDEnd02FD:
  6214 00004C7A E305                    	jrcxz DL02FE
  6215 00004C7C E970020000              	jmp DLEnd02F2
  6216 00004C81 48FFC1                  DL02FE:	inc rcx
  6217 00004C84 E8(00000000)            	call cTop
  6218 00004C89 E8(00000000)            	call pIn
  6219 00004C8E 023231                  	 db 0x0002, "21"
  6220 00004C91 4809C9                  	or rPOk, rPOk
  6221 00004C94 7502                    	jnz SD02FF
  6222 00004C96 EB1B                    	jmp SDEnd02FF
  6223                                  SD02FF:
  6224 00004C98 E8(00000000)            	call pOut
  6225 00004C9D 153231204372656469-     	 db 0x15, '21 Credits Deposits",'
  6225 00004CA6 7473204465706F7369-
  6225 00004CAF 7473222C           
  6226                                  SDEnd02FF:
  6227 00004CB3 E305                    	jrcxz DL0300
  6228 00004CB5 E937020000              	jmp DLEnd02F2
  6229 00004CBA 48FFC1                  DL0300:	inc rcx
  6230 00004CBD E8(00000000)            	call cTop
  6231 00004CC2 E8(00000000)            	call pIn
  6232 00004CC7 023238                  	 db 0x0002, "28"
  6233 00004CCA 4809C9                  	or rPOk, rPOk
  6234 00004CCD 7502                    	jnz SD0301
  6235 00004CCF EB46                    	jmp SDEnd0301
  6236                                  SD0301:
  6237 00004CD1 E8(00000000)            	call pOut
  6238 00004CD6 403238204372656469-     	 db 0x40, '28 Credits Return (private sale) Used to return loyalty points",'
  6238 00004CDF 74732052657475726E-
  6238 00004CE8 202870726976617465-
  6238 00004CF1 2073616C6529205573-
  6238 00004CFA 656420746F20726574-
  6238 00004D03 75726E206C6F79616C-
  6238 00004D0C 747920706F696E7473-
  6238 00004D15 222C               
  6239                                  SDEnd0301:
  6240 00004D17 E305                    	jrcxz DL0302
  6241 00004D19 E9D3010000              	jmp DLEnd02F2
  6242 00004D1E 48FFC1                  DL0302:	inc rcx
  6243 00004D21 E8(00000000)            	call cTop
  6244 00004D26 E8(00000000)            	call pIn
  6245 00004D2B 023330                  	 db 0x0002, "30"
  6246 00004D2E 4809C9                  	or rPOk, rPOk
  6247 00004D31 7502                    	jnz SD0303
  6248 00004D33 EB22                    	jmp SDEnd0303
  6249                                  SD0303:
  6250 00004D35 E8(00000000)            	call pOut
  6251 00004D3A 1C333020496E717569-     	 db 0x1C, '30 Inquiry Available funds",'
  6251 00004D43 727920417661696C61-
  6251 00004D4C 626C652066756E6473-
  6251 00004D55 222C               
  6252                                  SDEnd0303:
  6253 00004D57 E305                    	jrcxz DL0304
  6254 00004D59 E993010000              	jmp DLEnd02F2
  6255 00004D5E 48FFC1                  DL0304:	inc rcx
  6256 00004D61 E8(00000000)            	call cTop
  6257 00004D66 E8(00000000)            	call pIn
  6258 00004D6B 023331                  	 db 0x0002, "31"
  6259 00004D6E 4809C9                  	or rPOk, rPOk
  6260 00004D71 7502                    	jnz SD0305
  6261 00004D73 EB1A                    	jmp SDEnd0305
  6262                                  SD0305:
  6263 00004D75 E8(00000000)            	call pOut
  6264 00004D7A 14333120496E717569-     	 db 0x14, '31 Inquiry Balance",'
  6264 00004D83 72792042616C616E63-
  6264 00004D8C 65222C             
  6265                                  SDEnd0305:
  6266 00004D8F E305                    	jrcxz DL0306
  6267 00004D91 E95B010000              	jmp DLEnd02F2
  6268 00004D96 48FFC1                  DL0306:	inc rcx
  6269 00004D99 E8(00000000)            	call cTop
  6270 00004D9E E8(00000000)            	call pIn
  6271 00004DA3 023338                  	 db 0x0002, "38"
  6272 00004DA6 4809C9                  	or rPOk, rPOk
  6273 00004DA9 7502                    	jnz SD0307
  6274 00004DAB EB20                    	jmp SDEnd0307
  6275                                  SD0307:
  6276 00004DAD E8(00000000)            	call pOut
  6277 00004DB2 1A333820496E717569-     	 db 0x1A, '38 Inquiry Bonus Balance",'
  6277 00004DBB 727920426F6E757320-
  6277 00004DC4 42616C616E6365222C 
  6278                                  SDEnd0307:
  6279 00004DCD E305                    	jrcxz DL0308
  6280 00004DCF E91D010000              	jmp DLEnd02F2
  6281 00004DD4 48FFC1                  DL0308:	inc rcx
  6282 00004DD7 E8(00000000)            	call cTop
  6283 00004DDC E8(00000000)            	call pIn
  6284 00004DE1 023339                  	 db 0x0002, "39"
  6285 00004DE4 4809C9                  	or rPOk, rPOk
  6286 00004DE7 7502                    	jnz SD0309
  6287 00004DE9 EB16                    	jmp SDEnd0309
  6288                                  SD0309:
  6289 00004DEB E8(00000000)            	call pOut
  6290 00004DF0 10333920496E717569-     	 db 0x10, '39 Inquiry DCC",'
  6290 00004DF9 727920444343222C   
  6291                                  SDEnd0309:
  6292 00004E01 E305                    	jrcxz DL030A
  6293 00004E03 E9E9000000              	jmp DLEnd02F2
  6294 00004E08 48FFC1                  DL030A:	inc rcx
  6295 00004E0B E8(00000000)            	call cTop
  6296 00004E10 E8(00000000)            	call pIn
  6297 00004E15 023630                  	 db 0x0002, "60"
  6298 00004E18 4809C9                  	or rPOk, rPOk
  6299 00004E1B 7502                    	jnz SD030B
  6300 00004E1D EB1D                    	jmp SDEnd030B
  6301                                  SD030B:
  6302 00004E1F E8(00000000)            	call pOut
  6303 00004E24 17363020436F6E7472-     	 db 0x17, '60 Control Load value",'
  6303 00004E2D 6F6C204C6F61642076-
  6303 00004E36 616C7565222C       
  6304                                  SDEnd030B:
  6305 00004E3C E305                    	jrcxz DL030C
  6306 00004E3E E9AE000000              	jmp DLEnd02F2
  6307 00004E43 48FFC1                  DL030C:	inc rcx
  6308 00004E46 E8(00000000)            	call cTop
  6309 00004E4B E8(00000000)            	call pIn
  6310 00004E50 023631                  	 db 0x0002, "61"
  6311 00004E53 4809C9                  	or rPOk, rPOk
  6312 00004E56 7502                    	jnz SD030D
  6313 00004E58 EB1F                    	jmp SDEnd030D
  6314                                  SD030D:
  6315 00004E5A E8(00000000)            	call pOut
  6316 00004E5F 19363120436F6E7472-     	 db 0x19, '61 Control Unload value",'
  6316 00004E68 6F6C20556E6C6F6164-
  6316 00004E71 2076616C7565222C   
  6317                                  SDEnd030D:
  6318 00004E79 E302                    	jrcxz DL030E
  6319 00004E7B EB74                    	jmp DLEnd02F2
  6320 00004E7D 48FFC1                  DL030E:	inc rcx
  6321 00004E80 E8(00000000)            	call cTop
  6322 00004E85 E8(00000000)            	call pIn
  6323 00004E8A 023930                  	 db 0x0002, "90"
  6324 00004E8D 4809C9                  	or rPOk, rPOk
  6325 00004E90 7502                    	jnz SD030F
  6326 00004E92 EB20                    	jmp SDEnd030F
  6327                                  SD030F:
  6328 00004E94 E8(00000000)            	call pOut
  6329 00004E99 1A393020436F6E7472-     	 db 0x1A, '90 Control Activate card",'
  6329 00004EA2 6F6C20416374697661-
  6329 00004EAB 74652063617264222C 
  6330                                  SDEnd030F:
  6331 00004EB4 E302                    	jrcxz DL0310
  6332 00004EB6 EB39                    	jmp DLEnd02F2
  6333 00004EB8 48FFC1                  DL0310:	inc rcx
  6334 00004EBB E8(00000000)            	call cTop
  6335 00004EC0 E8(00000000)            	call pIn
  6336 00004EC5 023931                  	 db 0x0002, "91"
  6337 00004EC8 4809C9                  	or rPOk, rPOk
  6338 00004ECB 7502                    	jnz SD0311
  6339 00004ECD EB22                    	jmp SDEnd0311
  6340                                  SD0311:
  6341 00004ECF E8(00000000)            	call pOut
  6342 00004ED4 1C393120436F6E7472-     	 db 0x1C, '91 Control Deactivate card",'
  6342 00004EDD 6F6C20446561637469-
  6342 00004EE6 766174652063617264-
  6342 00004EEF 222C               
  6343                                  SDEnd0311:
  6344                                  DLEnd02F2:
  6345 00004EF1 E8(00000000)            	call cDrop
  6346 00004EF6 4809C9                  	or rPOk, rPOk
  6347 00004EF9 7505                    	jnz SD0312
  6348 00004EFB E949040000              	jmp SDEnd02F0
  6349                                  SD0312:
  6350 00004F00 E8(00000000)            	call pOut
  6351 00004F05 0C0A09092250333422-     	 db 0x0C, 0x0a, 0x09, 0x09, '"P34" : "'
  6351 00004F0E 203A2022           
  6352 00004F12 4809C9                  	or rPOk, rPOk
  6353 00004F15 7505                    	jnz SD0313
  6354 00004F17 E92D040000              	jmp SDEnd02F0
  6355                                  SD0313:
  6356 00004F1C E8(00000000)            	call cPush
  6357 00004F21 E8(00000000)            	call pIn
  6358 00004F26 023030                  	 db 0x0002, "00"
  6359 00004F29 4809C9                  	or rPOk, rPOk
  6360 00004F2C 7502                    	jnz SD0314
  6361 00004F2E EB1E                    	jmp SDEnd0314
  6362                                  SD0314:
  6363 00004F30 E8(00000000)            	call pOut
  6364 00004F35 18303020556E737065-     	 db 0x18, '00 Unspecified account",'
  6364 00004F3E 636966696564206163-
  6364 00004F47 636F756E74222C     
  6365                                  SDEnd0314:
  6366 00004F4E E305                    	jrcxz DL0315
  6367 00004F50 E9B8010000              	jmp DLEnd0315
  6368 00004F55 48FFC1                  DL0315:	inc rcx
  6369 00004F58 E8(00000000)            	call cTop
  6370 00004F5D E8(00000000)            	call pIn
  6371 00004F62 023130                  	 db 0x0002, "10"
  6372 00004F65 4809C9                  	or rPOk, rPOk
  6373 00004F68 7502                    	jnz SD0316
  6374 00004F6A EB1A                    	jmp SDEnd0316
  6375                                  SD0316:
  6376 00004F6C E8(00000000)            	call pOut
  6377 00004F71 14313020536176696E-     	 db 0x14, '10 Savings account",'
  6377 00004F7A 6773206163636F756E-
  6377 00004F83 74222C             
  6378                                  SDEnd0316:
  6379 00004F86 E305                    	jrcxz DL0317
  6380 00004F88 E980010000              	jmp DLEnd0315
  6381 00004F8D 48FFC1                  DL0317:	inc rcx
  6382 00004F90 E8(00000000)            	call cTop
  6383 00004F95 E8(00000000)            	call pIn
  6384 00004F9A 023230                  	 db 0x0002, "20"
  6385 00004F9D 4809C9                  	or rPOk, rPOk
  6386 00004FA0 7502                    	jnz SD0318
  6387 00004FA2 EB3D                    	jmp SDEnd0318
  6388                                  SD0318:
  6389 00004FA4 E8(00000000)            	call pOut
  6390 00004FA9 37323020436865636B-     	 db 0x37, '20 Checking account - default  Debit card transaction",'
  6390 00004FB2 696E67206163636F75-
  6390 00004FBB 6E74202D2064656661-
  6390 00004FC4 756C74202044656269-
  6390 00004FCD 742063617264207472-
  6390 00004FD6 616E73616374696F6E-
  6390 00004FDF 222C               
  6391                                  SDEnd0318:
  6392 00004FE1 E305                    	jrcxz DL0319
  6393 00004FE3 E925010000              	jmp DLEnd0315
  6394 00004FE8 48FFC1                  DL0319:	inc rcx
  6395 00004FEB E8(00000000)            	call cTop
  6396 00004FF0 E8(00000000)            	call pIn
  6397 00004FF5 023330                  	 db 0x0002, "30"
  6398 00004FF8 4809C9                  	or rPOk, rPOk
  6399 00004FFB 7502                    	jnz SD031A
  6400 00004FFD EB3D                    	jmp SDEnd031A
  6401                                  SD031A:
  6402 00004FFF E8(00000000)            	call pOut
  6403 00005004 373330204372656469-     	 db 0x37, '30 Credit facility - default  Credit card transaction",'
  6403 0000500D 7420666163696C6974-
  6403 00005016 79202D206465666175-
  6403 0000501F 6C7420204372656469-
  6403 00005028 742063617264207472-
  6403 00005031 616E73616374696F6E-
  6403 0000503A 222C               
  6404                                  SDEnd031A:
  6405 0000503C E305                    	jrcxz DL031B
  6406 0000503E E9CA000000              	jmp DLEnd0315
  6407 00005043 48FFC1                  DL031B:	inc rcx
  6408 00005046 E8(00000000)            	call cTop
  6409 0000504B E8(00000000)            	call pIn
  6410 00005050 023630                  	 db 0x0002, "60"
  6411 00005053 4809C9                  	or rPOk, rPOk
  6412 00005056 7502                    	jnz SD031C
  6413 00005058 EB1C                    	jmp SDEnd031C
  6414                                  SD031C:
  6415 0000505A E8(00000000)            	call pOut
  6416 0000505F 163630204361736820-     	 db 0x16, '60 Cash card account",'
  6416 00005068 63617264206163636F-
  6416 00005071 756E74222C         
  6417                                  SDEnd031C:
  6418 00005076 E305                    	jrcxz DL031D
  6419 00005078 E990000000              	jmp DLEnd0315
  6420 0000507D 48FFC1                  DL031D:	inc rcx
  6421 00005080 E8(00000000)            	call cTop
  6422 00005085 E8(00000000)            	call pIn
  6423 0000508A 023635                  	 db 0x0002, "65"
  6424 0000508D 4809C9                  	or rPOk, rPOk
  6425 00005090 7502                    	jnz SD031E
  6426 00005092 EB2F                    	jmp SDEnd031E
  6427                                  SD031E:
  6428 00005094 E8(00000000)            	call pOut
  6429 00005099 293635204361736820-     	 db 0x29, '65 Cash card - reserved for private use",'
  6429 000050A2 63617264202D207265-
  6429 000050AB 73657276656420666F-
  6429 000050B4 722070726976617465-
  6429 000050BD 20757365222C       
  6430                                  SDEnd031E:
  6431 000050C3 E302                    	jrcxz DL031F
  6432 000050C5 EB46                    	jmp DLEnd0315
  6433 000050C7 48FFC1                  DL031F:	inc rcx
  6434 000050CA E8(00000000)            	call cTop
  6435 000050CF E8(00000000)            	call pIn
  6436 000050D4 023636                  	 db 0x0002, "66"
  6437 000050D7 4809C9                  	or rPOk, rPOk
  6438 000050DA 7502                    	jnz SD0320
  6439 000050DC EB2F                    	jmp SDEnd0320
  6440                                  SD0320:
  6441 000050DE E8(00000000)            	call pOut
  6442 000050E3 293636204361736820-     	 db 0x29, '66 Cash card - reserved for private use",'
  6442 000050EC 63617264202D207265-
  6442 000050F5 73657276656420666F-
  6442 000050FE 722070726976617465-
  6442 00005107 20757365222C       
  6443                                  SDEnd0320:
  6444                                  DLEnd0315:
  6445 0000510D E8(00000000)            	call cDrop
  6446 00005112 4809C9                  	or rPOk, rPOk
  6447 00005115 7505                    	jnz SD0321
  6448 00005117 E92D020000              	jmp SDEnd02F0
  6449                                  SD0321:
  6450 0000511C E8(00000000)            	call pOut
  6451 00005121 0C0A09092250343522-     	 db 0x0C, 0x0a, 0x09, 0x09, '"P45" : "'
  6451 0000512A 203A2022           
  6452 0000512E 4809C9                  	or rPOk, rPOk
  6453 00005131 7505                    	jnz SD0322
  6454 00005133 E911020000              	jmp SDEnd02F0
  6455                                  SD0322:
  6456 00005138 E8(00000000)            	call cPush
  6457 0000513D E8(00000000)            	call pIn
  6458 00005142 023030                  	 db 0x0002, "00"
  6459 00005145 4809C9                  	or rPOk, rPOk
  6460 00005148 7502                    	jnz SD0323
  6461 0000514A EB1E                    	jmp SDEnd0323
  6462                                  SD0323:
  6463 0000514C E8(00000000)            	call pOut
  6464 00005151 18303020556E737065-     	 db 0x18, '00 Unspecified account",'
  6464 0000515A 636966696564206163-
  6464 00005163 636F756E74222C     
  6465                                  SDEnd0323:
  6466 0000516A E305                    	jrcxz DL0324
  6467 0000516C E9B8010000              	jmp DLEnd0324
  6468 00005171 48FFC1                  DL0324:	inc rcx
  6469 00005174 E8(00000000)            	call cTop
  6470 00005179 E8(00000000)            	call pIn
  6471 0000517E 023130                  	 db 0x0002, "10"
  6472 00005181 4809C9                  	or rPOk, rPOk
  6473 00005184 7502                    	jnz SD0325
  6474 00005186 EB1A                    	jmp SDEnd0325
  6475                                  SD0325:
  6476 00005188 E8(00000000)            	call pOut
  6477 0000518D 14313020536176696E-     	 db 0x14, '10 Savings account",'
  6477 00005196 6773206163636F756E-
  6477 0000519F 74222C             
  6478                                  SDEnd0325:
  6479 000051A2 E305                    	jrcxz DL0326
  6480 000051A4 E980010000              	jmp DLEnd0324
  6481 000051A9 48FFC1                  DL0326:	inc rcx
  6482 000051AC E8(00000000)            	call cTop
  6483 000051B1 E8(00000000)            	call pIn
  6484 000051B6 023230                  	 db 0x0002, "20"
  6485 000051B9 4809C9                  	or rPOk, rPOk
  6486 000051BC 7502                    	jnz SD0327
  6487 000051BE EB3D                    	jmp SDEnd0327
  6488                                  SD0327:
  6489 000051C0 E8(00000000)            	call pOut
  6490 000051C5 37323020436865636B-     	 db 0x37, '20 Checking account - default  Debit card transaction",'
  6490 000051CE 696E67206163636F75-
  6490 000051D7 6E74202D2064656661-
  6490 000051E0 756C74202044656269-
  6490 000051E9 742063617264207472-
  6490 000051F2 616E73616374696F6E-
  6490 000051FB 222C               
  6491                                  SDEnd0327:
  6492 000051FD E305                    	jrcxz DL0328
  6493 000051FF E925010000              	jmp DLEnd0324
  6494 00005204 48FFC1                  DL0328:	inc rcx
  6495 00005207 E8(00000000)            	call cTop
  6496 0000520C E8(00000000)            	call pIn
  6497 00005211 023330                  	 db 0x0002, "30"
  6498 00005214 4809C9                  	or rPOk, rPOk
  6499 00005217 7502                    	jnz SD0329
  6500 00005219 EB3D                    	jmp SDEnd0329
  6501                                  SD0329:
  6502 0000521B E8(00000000)            	call pOut
  6503 00005220 373330204372656469-     	 db 0x37, '30 Credit facility - default  Credit card transaction",'
  6503 00005229 7420666163696C6974-
  6503 00005232 79202D206465666175-
  6503 0000523B 6C7420204372656469-
  6503 00005244 742063617264207472-
  6503 0000524D 616E73616374696F6E-
  6503 00005256 222C               
  6504                                  SDEnd0329:
  6505 00005258 E305                    	jrcxz DL032A
  6506 0000525A E9CA000000              	jmp DLEnd0324
  6507 0000525F 48FFC1                  DL032A:	inc rcx
  6508 00005262 E8(00000000)            	call cTop
  6509 00005267 E8(00000000)            	call pIn
  6510 0000526C 023630                  	 db 0x0002, "60"
  6511 0000526F 4809C9                  	or rPOk, rPOk
  6512 00005272 7502                    	jnz SD032B
  6513 00005274 EB1C                    	jmp SDEnd032B
  6514                                  SD032B:
  6515 00005276 E8(00000000)            	call pOut
  6516 0000527B 163630204361736820-     	 db 0x16, '60 Cash card account",'
  6516 00005284 63617264206163636F-
  6516 0000528D 756E74222C         
  6517                                  SDEnd032B:
  6518 00005292 E305                    	jrcxz DL032C
  6519 00005294 E990000000              	jmp DLEnd0324
  6520 00005299 48FFC1                  DL032C:	inc rcx
  6521 0000529C E8(00000000)            	call cTop
  6522 000052A1 E8(00000000)            	call pIn
  6523 000052A6 023635                  	 db 0x0002, "65"
  6524 000052A9 4809C9                  	or rPOk, rPOk
  6525 000052AC 7502                    	jnz SD032D
  6526 000052AE EB2F                    	jmp SDEnd032D
  6527                                  SD032D:
  6528 000052B0 E8(00000000)            	call pOut
  6529 000052B5 293635204361736820-     	 db 0x29, '65 Cash card - reserved for private use",'
  6529 000052BE 63617264202D207265-
  6529 000052C7 73657276656420666F-
  6529 000052D0 722070726976617465-
  6529 000052D9 20757365222C       
  6530                                  SDEnd032D:
  6531 000052DF E302                    	jrcxz DL032E
  6532 000052E1 EB46                    	jmp DLEnd0324
  6533 000052E3 48FFC1                  DL032E:	inc rcx
  6534 000052E6 E8(00000000)            	call cTop
  6535 000052EB E8(00000000)            	call pIn
  6536 000052F0 023636                  	 db 0x0002, "66"
  6537 000052F3 4809C9                  	or rPOk, rPOk
  6538 000052F6 7502                    	jnz SD032F
  6539 000052F8 EB2F                    	jmp SDEnd032F
  6540                                  SD032F:
  6541 000052FA E8(00000000)            	call pOut
  6542 000052FF 293636204361736820-     	 db 0x29, '66 Cash card - reserved for private use",'
  6542 00005308 63617264202D207265-
  6542 00005311 73657276656420666F-
  6542 0000531A 722070726976617465-
  6542 00005323 20757365222C       
  6543                                  SDEnd032F:
  6544                                  DLEnd0324:
  6545 00005329 E8(00000000)            	call cDrop
  6546 0000532E 4809C9                  	or rPOk, rPOk
  6547 00005331 7502                    	jnz SD0330
  6548 00005333 EB14                    	jmp SDEnd02F0
  6549                                  SD0330:
  6550 00005335 E8(00000000)            	call DropLastChar
  6551 0000533A 4809C9                  	or rPOk, rPOk
  6552 0000533D 7502                    	jnz SD0331
  6553 0000533F EB08                    	jmp SDEnd02F0
  6554                                  SD0331:
  6555 00005341 E8(00000000)            	call pOut
  6556 00005346 027D2C                  	 db 0x02, '},'
  6557                                  SDEnd02F0:
  6558 00005349 E8(00000000)            	call cDrop
  6559 0000534E C3                      	ret
  6560                                  
  6561                                  ;Bit3	=    /*Processing code, Positions 1 & 2*/
  6562                                  ;	 pOut(0x0a, 0x09, 0x09, '"P12" : "'),
  6563                                  ;	 (	"00", pOut('00 Debits Payment/Goods and services",')|
  6564                                  ;		"01", pOut('01 Debits Cash withdrawal",')|
  6565                                  ;		"09", pOut('09 Debits Goods and services with cash disbursement",')|
  6566                                  ;		"17", pOut('17 Debits Cash Advance/Cash Sale (private value) Used to register loyalty points",')|
  6567                                  ;		"18", pOut('18 Debits Pre-Authorisation",')|
  6568                                  ;		"19", pOut('19 Debits Payment Completion",')|
  6569                                  ;		"20", pOut('20 Credits Returns/Refund",')|
  6570                                  ;		"21", pOut('21 Credits Deposits",')|
  6571                                  ;		"28", pOut('28 Credits Return (private sale) Used to return loyalty points",')|
  6572                                  ;		"30", pOut('30 Inquiry Available funds",')|
  6573                                  ;		"31", pOut('31 Inquiry Balance",')|
  6574                                  ;		"38", pOut('38 Inquiry Bonus Balance",')|
  6575                                  ;		"39", pOut('39 Inquiry DCC",')|
  6576                                  ;		"60", pOut('60 Control Load value",')|
  6577                                  ;		"61", pOut('61 Control Unload value",')|
  6578                                  ;		"90", pOut('90 Control Activate card",')|
  6579                                  ;		"91", pOut('91 Control Deactivate card",')),
  6580                                  ;	pOut(0x0a, 0x09, 0x09, '"P34" : "'),
  6581                                  ;	(	"00", pOut('00 Unspecified account",')|
  6582                                  ;		"10", pOut('10 Savings account",')|
  6583                                  ;		"20", pOut('20 Checking account - default  Debit card transaction",')|
  6584                                  ;		"30", pOut('30 Credit facility - default  Credit card transaction",')|
  6585                                  ;		"60", pOut('60 Cash card account",')|
  6586                                  ;		"65", pOut('65 Cash card - reserved for private use",')|
  6587                                  ;		"66", pOut('66 Cash card - reserved for private use",')),
  6588                                  ;	pOut(0x0a, 0x09, 0x09, '"P45" : "'),
  6589                                  ;	(	"00", pOut('00 Unspecified account",')|
  6590                                  ;		"10", pOut('10 Savings account",')|
  6591                                  ;		"20", pOut('20 Checking account - default  Debit card transaction",')|
  6592                                  ;		"30", pOut('30 Credit facility - default  Credit card transaction",')|
  6593                                  ;		"60", pOut('60 Cash card account",')|
  6594                                  ;		"65", pOut('65 Cash card - reserved for private use",')|
  6595                                  ;		"66", pOut('66 Cash card - reserved for private use",')),	
  6596                                  ;	DropLastChar,
  6597                                  ;	pOut('},');
  6598                                  ;		
  6599                                  
  6600                                  ;xxxxxxxxxxxxxxxxxxxxxxxxxxxxxxxxxxxxxxxxxxxxxxxxxxxxxxxxxxxxxxxxxxxxxxxxxxxxxx
  6601                                  Bit22:
  6602 0000534F E8(00000000)            	call cPush
  6603 00005354 E8(00000000)            	call pOut
  6604 00005359 240A09092250312020-     	 db 0x24, 0x0a, 0x09, 0x09, '"P1  Technical ability"       : "'
  6604 00005362 546563686E6963616C-
  6604 0000536B 206162696C69747922-
  6604 00005374 202020202020203A20-
  6604 0000537D 22                 
  6605 0000537E 4809C9                  	or rPOk, rPOk
  6606 00005381 7505                    	jnz SD0332
  6607 00005383 E9CB130000              	jmp SDEnd0332
  6608                                  SD0332:
  6609 00005388 E8(00000000)            	call cPush
  6610 0000538D E8(00000000)            	call pIn
  6611 00005392 0132                    	 db 0x0001, "2"
  6612 00005394 4809C9                  	or rPOk, rPOk
  6613 00005397 7502                    	jnz SD0333
  6614 00005399 EB19                    	jmp SDEnd0333
  6615                                  SD0333:
  6616 0000539B E8(00000000)            	call pOut
  6617 000053A0 1332204D61676E6574-     	 db 0x13, '2 Magnetic stripe",'
  6617 000053A9 696320737472697065-
  6617 000053B2 222C               
  6618                                  SDEnd0333:
  6619 000053B4 E305                    	jrcxz DL0334
  6620 000053B6 E9C0010000              	jmp DLEnd0334
  6621 000053BB 48FFC1                  DL0334:	inc rcx
  6622 000053BE E8(00000000)            	call cTop
  6623 000053C3 E8(00000000)            	call pIn
  6624 000053C8 0133                    	 db 0x0001, "3"
  6625 000053CA 4809C9                  	or rPOk, rPOk
  6626 000053CD 7502                    	jnz SD0335
  6627 000053CF EB12                    	jmp SDEnd0335
  6628                                  SD0335:
  6629 000053D1 E8(00000000)            	call pOut
  6630 000053D6 0C332042617220636F-     	 db 0x0C, '3 Bar code",'
  6630 000053DF 6465222C           
  6631                                  SDEnd0335:
  6632 000053E3 E305                    	jrcxz DL0336
  6633 000053E5 E991010000              	jmp DLEnd0334
  6634 000053EA 48FFC1                  DL0336:	inc rcx
  6635 000053ED E8(00000000)            	call cTop
  6636 000053F2 E8(00000000)            	call pIn
  6637 000053F7 0135                    	 db 0x0001, "5"
  6638 000053F9 4809C9                  	or rPOk, rPOk
  6639 000053FC 7502                    	jnz SD0337
  6640 000053FE EB0E                    	jmp SDEnd0337
  6641                                  SD0337:
  6642 00005400 E8(00000000)            	call pOut
  6643 00005405 08352043686970222C      	 db 0x08, '5 Chip",'
  6644                                  SDEnd0337:
  6645 0000540E E305                    	jrcxz DL0338
  6646 00005410 E966010000              	jmp DLEnd0334
  6647 00005415 48FFC1                  DL0338:	inc rcx
  6648 00005418 E8(00000000)            	call cTop
  6649 0000541D E8(00000000)            	call pIn
  6650 00005422 0136                    	 db 0x0001, "6"
  6651 00005424 4809C9                  	or rPOk, rPOk
  6652 00005427 7502                    	jnz SD0339
  6653 00005429 EB13                    	jmp SDEnd0339
  6654                                  SD0339:
  6655 0000542B E8(00000000)            	call pOut
  6656 00005430 0D36204B657920656E-     	 db 0x0D, '6 Key entry",'
  6656 00005439 747279222C         
  6657                                  SDEnd0339:
  6658 0000543E E305                    	jrcxz DL033A
  6659 00005440 E936010000              	jmp DLEnd0334
  6660 00005445 48FFC1                  DL033A:	inc rcx
  6661 00005448 E8(00000000)            	call cTop
  6662 0000544D E8(00000000)            	call pIn
  6663 00005452 0141                    	 db 0x0001, "A"
  6664 00005454 4809C9                  	or rPOk, rPOk
  6665 00005457 7502                    	jnz SD033B
  6666 00005459 EB0E                    	jmp SDEnd033B
  6667                                  SD033B:
  6668 0000545B E8(00000000)            	call pOut
  6669 00005460 08412052464944222C      	 db 0x08, 'A RFID",'
  6670                                  SDEnd033B:
  6671 00005469 E305                    	jrcxz DL033C
  6672 0000546B E90B010000              	jmp DLEnd0334
  6673 00005470 48FFC1                  DL033C:	inc rcx
  6674 00005473 E8(00000000)            	call cTop
  6675 00005478 E8(00000000)            	call pIn
  6676 0000547D 0142                    	 db 0x0001, "B"
  6677 0000547F 4809C9                  	or rPOk, rPOk
  6678 00005482 7502                    	jnz SD033D
  6679 00005484 EB1A                    	jmp SDEnd033D
  6680                                  SD033D:
  6681 00005486 E8(00000000)            	call pOut
  6682 0000548B 1442204D61676E2026-     	 db 0x14, 'B Magn & Key entry",'
  6682 00005494 204B657920656E7472-
  6682 0000549D 79222C             
  6683                                  SDEnd033D:
  6684 000054A0 E305                    	jrcxz DL033E
  6685 000054A2 E9D4000000              	jmp DLEnd0334
  6686 000054A7 48FFC1                  DL033E:	inc rcx
  6687 000054AA E8(00000000)            	call cTop
  6688 000054AF E8(00000000)            	call pIn
  6689 000054B4 0143                    	 db 0x0001, "C"
  6690 000054B6 4809C9                  	or rPOk, rPOk
  6691 000054B9 7502                    	jnz SD033F
  6692 000054BB EB1F                    	jmp SDEnd033F
  6693                                  SD033F:
  6694 000054BD E8(00000000)            	call pOut
  6695 000054C2 1943204D61676E2C20-     	 db 0x19, 'C Magn, Chip, Key entry",'
  6695 000054CB 436869702C204B6579-
  6695 000054D4 20656E747279222C   
  6696                                  SDEnd033F:
  6697 000054DC E305                    	jrcxz DL0340
  6698 000054DE E998000000              	jmp DLEnd0334
  6699 000054E3 48FFC1                  DL0340:	inc rcx
  6700 000054E6 E8(00000000)            	call cTop
  6701 000054EB E8(00000000)            	call pIn
  6702 000054F0 0144                    	 db 0x0001, "D"
  6703 000054F2 4809C9                  	or rPOk, rPOk
  6704 000054F5 7502                    	jnz SD0341
  6705 000054F7 EB15                    	jmp SDEnd0341
  6706                                  SD0341:
  6707 000054F9 E8(00000000)            	call pOut
  6708 000054FE 0F44204D61676E2026-     	 db 0x0F, 'D Magn & Chip",'
  6708 00005507 2043686970222C     
  6709                                  SDEnd0341:
  6710 0000550E E302                    	jrcxz DL0342
  6711 00005510 EB69                    	jmp DLEnd0334
  6712 00005512 48FFC1                  DL0342:	inc rcx
  6713 00005515 E8(00000000)            	call cTop
  6714 0000551A E8(00000000)            	call pIn
  6715 0000551F 0145                    	 db 0x0001, "E"
  6716 00005521 4809C9                  	or rPOk, rPOk
  6717 00005524 7502                    	jnz SD0343
  6718 00005526 EB1A                    	jmp SDEnd0343
  6719                                  SD0343:
  6720 00005528 E8(00000000)            	call pOut
  6721 0000552D 144520436869702026-     	 db 0x14, 'E Chip & Key entry",'
  6721 00005536 204B657920656E7472-
  6721 0000553F 79222C             
  6722                                  SDEnd0343:
  6723 00005542 E302                    	jrcxz DL0344
  6724 00005544 EB35                    	jmp DLEnd0334
  6725 00005546 48FFC1                  DL0344:	inc rcx
  6726 00005549 E8(00000000)            	call cTop
  6727 0000554E E8(00000000)            	call b
  6728 00005553 4809C9                  	or rPOk, rPOk
  6729 00005556 7502                    	jnz SD0345
  6730 00005558 EB21                    	jmp SDEnd0345
  6731                                  SD0345:
  6732 0000555A E8(00000000)            	call pOutLI
  6733 0000555F 4809C9                  	or rPOk, rPOk
  6734 00005562 7502                    	jnz SD0346
  6735 00005564 EB15                    	jmp SDEnd0345
  6736                                  SD0346:
  6737 00005566 E8(00000000)            	call pOut
  6738 0000556B 0F3D496C6C6567616C-     	 db 0x0F, '=Illegal code",'
  6738 00005574 20636F6465222C     
  6739                                  SDEnd0345:
  6740                                  DLEnd0334:
  6741 0000557B E8(00000000)            	call cDrop
  6742 00005580 4809C9                  	or rPOk, rPOk
  6743 00005583 7505                    	jnz SD0347
  6744 00005585 E9C9110000              	jmp SDEnd0332
  6745                                  SD0347:
  6746 0000558A E8(00000000)            	call pOut
  6747 0000558F 240A09092250322020-     	 db 0x24, 0x0a, 0x09, 0x09, '"P2  Authentication ability"  : "'
  6747 00005598 41757468656E746963-
  6747 000055A1 6174696F6E20616269-
  6747 000055AA 6C6974792220203A20-
  6747 000055B3 22                 
  6748 000055B4 4809C9                  	or rPOk, rPOk
  6749 000055B7 7505                    	jnz SD0348
  6750 000055B9 E995110000              	jmp SDEnd0332
  6751                                  SD0348:
  6752 000055BE E8(00000000)            	call cPush
  6753 000055C3 E8(00000000)            	call pIn
  6754 000055C8 0130                    	 db 0x0001, "0"
  6755 000055CA 4809C9                  	or rPOk, rPOk
  6756 000055CD 7502                    	jnz SD0349
  6757 000055CF EB0E                    	jmp SDEnd0349
  6758                                  SD0349:
  6759 000055D1 E8(00000000)            	call pOut
  6760 000055D6 0830204E6F6E65222C      	 db 0x08, '0 None",'
  6761                                  SDEnd0349:
  6762 000055DF E305                    	jrcxz DL034A
  6763 000055E1 E93F020000              	jmp DLEnd034A
  6764 000055E6 48FFC1                  DL034A:	inc rcx
  6765 000055E9 E8(00000000)            	call cTop
  6766 000055EE E8(00000000)            	call pIn
  6767 000055F3 0131                    	 db 0x0001, "1"
  6768 000055F5 4809C9                  	or rPOk, rPOk
  6769 000055F8 7502                    	jnz SD034B
  6770 000055FA EB0D                    	jmp SDEnd034B
  6771                                  SD034B:
  6772 000055FC E8(00000000)            	call pOut
  6773 00005601 07312050494E222C        	 db 0x07, '1 PIN",'
  6774                                  SDEnd034B:
  6775 00005609 E305                    	jrcxz DL034C
  6776 0000560B E915020000              	jmp DLEnd034A
  6777 00005610 48FFC1                  DL034C:	inc rcx
  6778 00005613 E8(00000000)            	call cTop
  6779 00005618 E8(00000000)            	call pIn
  6780 0000561D 0136                    	 db 0x0001, "6"
  6781 0000561F 4809C9                  	or rPOk, rPOk
  6782 00005622 7502                    	jnz SD034D
  6783 00005624 EB11                    	jmp SDEnd034D
  6784                                  SD034D:
  6785 00005626 E8(00000000)            	call pOut
  6786 0000562B 0B3620556E6B6E6F77-     	 db 0x0B, '6 Unknown",'
  6786 00005634 6E222C             
  6787                                  SDEnd034D:
  6788 00005637 E305                    	jrcxz DL034E
  6789 00005639 E9E7010000              	jmp DLEnd034A
  6790 0000563E 48FFC1                  DL034E:	inc rcx
  6791 00005641 E8(00000000)            	call cTop
  6792 00005646 E8(00000000)            	call pIn
  6793 0000564B 0139                    	 db 0x0001, "9"
  6794 0000564D 4809C9                  	or rPOk, rPOk
  6795 00005650 7502                    	jnz SD034F
  6796 00005652 EB0D                    	jmp SDEnd034F
  6797                                  SD034F:
  6798 00005654 E8(00000000)            	call pOut
  6799 00005659 073920454D56222C        	 db 0x07, '9 EMV",'
  6800                                  SDEnd034F:
  6801 00005661 E305                    	jrcxz DL0350
  6802 00005663 E9BD010000              	jmp DLEnd034A
  6803 00005668 48FFC1                  DL0350:	inc rcx
  6804 0000566B E8(00000000)            	call cTop
  6805 00005670 E8(00000000)            	call pIn
  6806 00005675 0153                    	 db 0x0001, "S"
  6807 00005677 4809C9                  	or rPOk, rPOk
  6808 0000567A 7502                    	jnz SD0351
  6809 0000567C EB13                    	jmp SDEnd0351
  6810                                  SD0351:
  6811 0000567E E8(00000000)            	call pOut
  6812 00005683 0D53205369676E6174-     	 db 0x0D, 'S Signature",'
  6812 0000568C 757265222C         
  6813                                  SDEnd0351:
  6814 00005691 E305                    	jrcxz DL0352
  6815 00005693 E98D010000              	jmp DLEnd034A
  6816 00005698 48FFC1                  DL0352:	inc rcx
  6817 0000569B E8(00000000)            	call cTop
  6818 000056A0 E8(00000000)            	call pIn
  6819 000056A5 0154                    	 db 0x0001, "T"
  6820 000056A7 4809C9                  	or rPOk, rPOk
  6821 000056AA 7502                    	jnz SD0353
  6822 000056AC EB19                    	jmp SDEnd0353
  6823                                  SD0353:
  6824 000056AE E8(00000000)            	call pOut
  6825 000056B3 135420454D56206F66-     	 db 0x13, 'T EMV offline PIN",'
  6825 000056BC 666C696E652050494E-
  6825 000056C5 222C               
  6826                                  SDEnd0353:
  6827 000056C7 E305                    	jrcxz DL0354
  6828 000056C9 E957010000              	jmp DLEnd034A
  6829 000056CE 48FFC1                  DL0354:	inc rcx
  6830 000056D1 E8(00000000)            	call cTop
  6831 000056D6 E8(00000000)            	call pIn
  6832 000056DB 0155                    	 db 0x0001, "U"
  6833 000056DD 4809C9                  	or rPOk, rPOk
  6834 000056E0 7502                    	jnz SD0355
  6835 000056E2 EB18                    	jmp SDEnd0355
  6836                                  SD0355:
  6837 000056E4 E8(00000000)            	call pOut
  6838 000056E9 125520454D56206F6E-     	 db 0x12, 'U EMV online PIN",'
  6838 000056F2 6C696E652050494E22-
  6838 000056FB 2C                 
  6839                                  SDEnd0355:
  6840 000056FC E305                    	jrcxz DL0356
  6841 000056FE E922010000              	jmp DLEnd034A
  6842 00005703 48FFC1                  DL0356:	inc rcx
  6843 00005706 E8(00000000)            	call cTop
  6844 0000570B E8(00000000)            	call pIn
  6845 00005710 0156                    	 db 0x0001, "V"
  6846 00005712 4809C9                  	or rPOk, rPOk
  6847 00005715 7502                    	jnz SD0357
  6848 00005717 EB20                    	jmp SDEnd0357
  6849                                  SD0357:
  6850 00005719 E8(00000000)            	call pOut
  6851 0000571E 1A56205369676E2026-     	 db 0x1A, 'V Sign & EMV offline PIN",'
  6851 00005727 20454D56206F66666C-
  6851 00005730 696E652050494E222C 
  6852                                  SDEnd0357:
  6853 00005739 E305                    	jrcxz DL0358
  6854 0000573B E9E5000000              	jmp DLEnd034A
  6855 00005740 48FFC1                  DL0358:	inc rcx
  6856 00005743 E8(00000000)            	call cTop
  6857 00005748 E8(00000000)            	call pIn
  6858 0000574D 0158                    	 db 0x0001, "X"
  6859 0000574F 4809C9                  	or rPOk, rPOk
  6860 00005752 7502                    	jnz SD0359
  6861 00005754 EB1F                    	jmp SDEnd0359
  6862                                  SD0359:
  6863 00005756 E8(00000000)            	call pOut
  6864 0000575B 1958205369676E2026-     	 db 0x19, 'X Sign & EMV online PIN",'
  6864 00005764 20454D56206F6E6C69-
  6864 0000576D 6E652050494E222C   
  6865                                  SDEnd0359:
  6866 00005775 E305                    	jrcxz DL035A
  6867 00005777 E9A9000000              	jmp DLEnd034A
  6868 0000577C 48FFC1                  DL035A:	inc rcx
  6869 0000577F E8(00000000)            	call cTop
  6870 00005784 E8(00000000)            	call pIn
  6871 00005789 0159                    	 db 0x0001, "Y"
  6872 0000578B 4809C9                  	or rPOk, rPOk
  6873 0000578E 7502                    	jnz SD035B
  6874 00005790 EB24                    	jmp SDEnd035B
  6875                                  SD035B:
  6876 00005792 E8(00000000)            	call pOut
  6877 00005797 1E59205369676E2026-     	 db 0x1E, 'Y Sign & EMV on/offfline PIN",'
  6877 000057A0 20454D56206F6E2F6F-
  6877 000057A9 6666666C696E652050-
  6877 000057B2 494E222C           
  6878                                  SDEnd035B:
  6879 000057B6 E302                    	jrcxz DL035C
  6880 000057B8 EB6B                    	jmp DLEnd034A
  6881 000057BA 48FFC1                  DL035C:	inc rcx
  6882 000057BD E8(00000000)            	call cTop
  6883 000057C2 E8(00000000)            	call pIn
  6884 000057C7 015A                    	 db 0x0001, "Z"
  6885 000057C9 4809C9                  	or rPOk, rPOk
  6886 000057CC 7502                    	jnz SD035D
  6887 000057CE EB1C                    	jmp SDEnd035D
  6888                                  SD035D:
  6889 000057D0 E8(00000000)            	call pOut
  6890 000057D5 165A20454D56206F6E-     	 db 0x16, 'Z EMV on/offline PIN",'
  6890 000057DE 2F6F66666C696E6520-
  6890 000057E7 50494E222C         
  6891                                  SDEnd035D:
  6892 000057EC E302                    	jrcxz DL035E
  6893 000057EE EB35                    	jmp DLEnd034A
  6894 000057F0 48FFC1                  DL035E:	inc rcx
  6895 000057F3 E8(00000000)            	call cTop
  6896 000057F8 E8(00000000)            	call b
  6897 000057FD 4809C9                  	or rPOk, rPOk
  6898 00005800 7502                    	jnz SD035F
  6899 00005802 EB21                    	jmp SDEnd035F
  6900                                  SD035F:
  6901 00005804 E8(00000000)            	call pOutLI
  6902 00005809 4809C9                  	or rPOk, rPOk
  6903 0000580C 7502                    	jnz SD0360
  6904 0000580E EB15                    	jmp SDEnd035F
  6905                                  SD0360:
  6906 00005810 E8(00000000)            	call pOut
  6907 00005815 0F3D496C6C6567616C-     	 db 0x0F, '=Illegal code",'
  6907 0000581E 20636F6465222C     
  6908                                  SDEnd035F:
  6909                                  DLEnd034A:
  6910 00005825 E8(00000000)            	call cDrop
  6911 0000582A 4809C9                  	or rPOk, rPOk
  6912 0000582D 7505                    	jnz SD0361
  6913 0000582F E91F0F0000              	jmp SDEnd0332
  6914                                  SD0361:
  6915 00005834 E8(00000000)            	call pOut
  6916 00005839 240A09092250332020-     	 db 0x24, 0x0a, 0x09, 0x09, '"P3  Card capture ability"    : "'
  6916 00005842 436172642063617074-
  6916 0000584B 757265206162696C69-
  6916 00005854 747922202020203A20-
  6916 0000585D 22                 
  6917 0000585E 4809C9                  	or rPOk, rPOk
  6918 00005861 7505                    	jnz SD0362
  6919 00005863 E9EB0E0000              	jmp SDEnd0332
  6920                                  SD0362:
  6921 00005868 E8(00000000)            	call cPush
  6922 0000586D E8(00000000)            	call pIn
  6923 00005872 0130                    	 db 0x0001, "0"
  6924 00005874 4809C9                  	or rPOk, rPOk
  6925 00005877 7502                    	jnz SD0363
  6926 00005879 EB0E                    	jmp SDEnd0363
  6927                                  SD0363:
  6928 0000587B E8(00000000)            	call pOut
  6929 00005880 0830204E6F6E65222C      	 db 0x08, '0 None",'
  6930                                  SDEnd0363:
  6931 00005889 E305                    	jrcxz DL0364
  6932 0000588B E938010000              	jmp DLEnd0364
  6933 00005890 48FFC1                  DL0364:	inc rcx
  6934 00005893 E8(00000000)            	call cTop
  6935 00005898 E8(00000000)            	call pIn
  6936 0000589D 0131                    	 db 0x0001, "1"
  6937 0000589F 4809C9                  	or rPOk, rPOk
  6938 000058A2 7502                    	jnz SD0365
  6939 000058A4 EB0E                    	jmp SDEnd0365
  6940                                  SD0365:
  6941 000058A6 E8(00000000)            	call pOut
  6942 000058AB 08312043617264222C      	 db 0x08, '1 Card",'
  6943                                  SDEnd0365:
  6944 000058B4 E305                    	jrcxz DL0366
  6945 000058B6 E90D010000              	jmp DLEnd0364
  6946 000058BB 48FFC1                  DL0366:	inc rcx
  6947 000058BE E8(00000000)            	call cTop
  6948 000058C3 E8(00000000)            	call pIn
  6949 000058C8 0154                    	 db 0x0001, "T"
  6950 000058CA 4809C9                  	or rPOk, rPOk
  6951 000058CD 7502                    	jnz SD0367
  6952 000058CF EB20                    	jmp SDEnd0367
  6953                                  SD0367:
  6954 000058D1 E8(00000000)            	call pOut
  6955 000058D6 1A54204E6F6E652026-     	 db 0x1A, 'T None & EMV Sda/Dda/Cda",'
  6955 000058DF 20454D56205364612F-
  6955 000058E8 4464612F436461222C 
  6956                                  SDEnd0367:
  6957 000058F1 E305                    	jrcxz DL0368
  6958 000058F3 E9D0000000              	jmp DLEnd0364
  6959 000058F8 48FFC1                  DL0368:	inc rcx
  6960 000058FB E8(00000000)            	call cTop
  6961 00005900 E8(00000000)            	call pIn
  6962 00005905 0155                    	 db 0x0001, "U"
  6963 00005907 4809C9                  	or rPOk, rPOk
  6964 0000590A 7502                    	jnz SD0369
  6965 0000590C EB19                    	jmp SDEnd0369
  6966                                  SD0369:
  6967 0000590E E8(00000000)            	call pOut
  6968 00005913 135520454D56205364-     	 db 0x13, 'U EMV Sda/Dda/Cda",'
  6968 0000591C 612F4464612F436461-
  6968 00005925 222C               
  6969                                  SDEnd0369:
  6970 00005927 E305                    	jrcxz DL036A
  6971 00005929 E99A000000              	jmp DLEnd0364
  6972 0000592E 48FFC1                  DL036A:	inc rcx
  6973 00005931 E8(00000000)            	call cTop
  6974 00005936 E8(00000000)            	call pIn
  6975 0000593B 0156                    	 db 0x0001, "V"
  6976 0000593D 4809C9                  	or rPOk, rPOk
  6977 00005940 7502                    	jnz SD036B
  6978 00005942 EB1C                    	jmp SDEnd036B
  6979                                  SD036B:
  6980 00005944 E8(00000000)            	call pOut
  6981 00005949 1656204E6F6E652026-     	 db 0x16, 'V None & EMV Sda/Dda",'
  6981 00005952 20454D56205364612F-
  6981 0000595B 446461222C         
  6982                                  SDEnd036B:
  6983 00005960 E302                    	jrcxz DL036C
  6984 00005962 EB64                    	jmp DLEnd0364
  6985 00005964 48FFC1                  DL036C:	inc rcx
  6986 00005967 E8(00000000)            	call cTop
  6987 0000596C E8(00000000)            	call pIn
  6988 00005971 0157                    	 db 0x0001, "W"
  6989 00005973 4809C9                  	or rPOk, rPOk
  6990 00005976 7502                    	jnz SD036D
  6991 00005978 EB15                    	jmp SDEnd036D
  6992                                  SD036D:
  6993 0000597A E8(00000000)            	call pOut
  6994 0000597F 0F5720454D56205364-     	 db 0x0F, 'W EMV Sda/Dda",'
  6994 00005988 612F446461222C     
  6995                                  SDEnd036D:
  6996 0000598F E302                    	jrcxz DL036E
  6997 00005991 EB35                    	jmp DLEnd0364
  6998 00005993 48FFC1                  DL036E:	inc rcx
  6999 00005996 E8(00000000)            	call cTop
  7000 0000599B E8(00000000)            	call b
  7001 000059A0 4809C9                  	or rPOk, rPOk
  7002 000059A3 7502                    	jnz SD036F
  7003 000059A5 EB21                    	jmp SDEnd036F
  7004                                  SD036F:
  7005 000059A7 E8(00000000)            	call pOutLI
  7006 000059AC 4809C9                  	or rPOk, rPOk
  7007 000059AF 7502                    	jnz SD0370
  7008 000059B1 EB15                    	jmp SDEnd036F
  7009                                  SD0370:
  7010 000059B3 E8(00000000)            	call pOut
  7011 000059B8 0F3D496C6C6567616C-     	 db 0x0F, '=Illegal code",'
  7011 000059C1 20636F6465222C     
  7012                                  SDEnd036F:
  7013                                  DLEnd0364:
  7014 000059C8 E8(00000000)            	call cDrop
  7015 000059CD 4809C9                  	or rPOk, rPOk
  7016 000059D0 7505                    	jnz SD0371
  7017 000059D2 E97C0D0000              	jmp SDEnd0332
  7018                                  SD0371:
  7019 000059D7 E8(00000000)            	call pOut
  7020 000059DC 240A09092250342020-     	 db 0x24, 0x0a, 0x09, 0x09, '"P4  Operating Environment"   : "'
  7020 000059E5 4F7065726174696E67-
  7020 000059EE 20456E7669726F6E6D-
  7020 000059F7 656E74222020203A20-
  7020 00005A00 22                 
  7021 00005A01 4809C9                  	or rPOk, rPOk
  7022 00005A04 7505                    	jnz SD0372
  7023 00005A06 E9480D0000              	jmp SDEnd0332
  7024                                  SD0372:
  7025 00005A0B E8(00000000)            	call cPush
  7026 00005A10 E8(00000000)            	call pIn
  7027 00005A15 0131                    	 db 0x0001, "1"
  7028 00005A17 4809C9                  	or rPOk, rPOk
  7029 00005A1A 7502                    	jnz SD0373
  7030 00005A1C EB0D                    	jmp SDEnd0373
  7031                                  SD0373:
  7032 00005A1E E8(00000000)            	call pOut
  7033 00005A23 073120495054222C        	 db 0x07, '1 IPT",'
  7034                                  SDEnd0373:
  7035 00005A2B E305                    	jrcxz DL0374
  7036 00005A2D E9BB000000              	jmp DLEnd0374
  7037 00005A32 48FFC1                  DL0374:	inc rcx
  7038 00005A35 E8(00000000)            	call cTop
  7039 00005A3A E8(00000000)            	call pIn
  7040 00005A3F 0132                    	 db 0x0001, "2"
  7041 00005A41 4809C9                  	or rPOk, rPOk
  7042 00005A44 7502                    	jnz SD0375
  7043 00005A46 EB0D                    	jmp SDEnd0375
  7044                                  SD0375:
  7045 00005A48 E8(00000000)            	call pOut
  7046 00005A4D 0732204F5054222C        	 db 0x07, '2 OPT",'
  7047                                  SDEnd0375:
  7048 00005A55 E305                    	jrcxz DL0376
  7049 00005A57 E991000000              	jmp DLEnd0374
  7050 00005A5C 48FFC1                  DL0376:	inc rcx
  7051 00005A5F E8(00000000)            	call cTop
  7052 00005A64 E8(00000000)            	call pIn
  7053 00005A69 0133                    	 db 0x0001, "3"
  7054 00005A6B 4809C9                  	or rPOk, rPOk
  7055 00005A6E 7502                    	jnz SD0377
  7056 00005A70 EB14                    	jmp SDEnd0377
  7057                                  SD0377:
  7058 00005A72 E8(00000000)            	call pOut
  7059 00005A77 0E33204465616C6572-     	 db 0x0E, '3 Dealer IPT",'
  7059 00005A80 20495054222C       
  7060                                  SDEnd0377:
  7061 00005A86 E302                    	jrcxz DL0378
  7062 00005A88 EB63                    	jmp DLEnd0374
  7063 00005A8A 48FFC1                  DL0378:	inc rcx
  7064 00005A8D E8(00000000)            	call cTop
  7065 00005A92 E8(00000000)            	call pIn
  7066 00005A97 0134                    	 db 0x0001, "4"
  7067 00005A99 4809C9                  	or rPOk, rPOk
  7068 00005A9C 7502                    	jnz SD0379
  7069 00005A9E EB14                    	jmp SDEnd0379
  7070                                  SD0379:
  7071 00005AA0 E8(00000000)            	call pOut
  7072 00005AA5 0E34204465616C6572-     	 db 0x0E, '4 Dealer OPT",'
  7072 00005AAE 204F5054222C       
  7073                                  SDEnd0379:
  7074 00005AB4 E302                    	jrcxz DL037A
  7075 00005AB6 EB35                    	jmp DLEnd0374
  7076 00005AB8 48FFC1                  DL037A:	inc rcx
  7077 00005ABB E8(00000000)            	call cTop
  7078 00005AC0 E8(00000000)            	call b
  7079 00005AC5 4809C9                  	or rPOk, rPOk
  7080 00005AC8 7502                    	jnz SD037B
  7081 00005ACA EB21                    	jmp SDEnd037B
  7082                                  SD037B:
  7083 00005ACC E8(00000000)            	call pOutLI
  7084 00005AD1 4809C9                  	or rPOk, rPOk
  7085 00005AD4 7502                    	jnz SD037C
  7086 00005AD6 EB15                    	jmp SDEnd037B
  7087                                  SD037C:
  7088 00005AD8 E8(00000000)            	call pOut
  7089 00005ADD 0F3D496C6C6567616C-     	 db 0x0F, '=Illegal code",'
  7089 00005AE6 20636F6465222C     
  7090                                  SDEnd037B:
  7091                                  DLEnd0374:
  7092 00005AED E8(00000000)            	call cDrop
  7093 00005AF2 4809C9                  	or rPOk, rPOk
  7094 00005AF5 7505                    	jnz SD037D
  7095 00005AF7 E9570C0000              	jmp SDEnd0332
  7096                                  SD037D:
  7097 00005AFC E8(00000000)            	call pOut
  7098 00005B01 240A09092250352020-     	 db 0x24, 0x0a, 0x09, 0x09, '"P5  Card holder presence"    : "'
  7098 00005B0A 4361726420686F6C64-
  7098 00005B13 65722070726573656E-
  7098 00005B1C 636522202020203A20-
  7098 00005B25 22                 
  7099 00005B26 4809C9                  	or rPOk, rPOk
  7100 00005B29 7505                    	jnz SD037E
  7101 00005B2B E9230C0000              	jmp SDEnd0332
  7102                                  SD037E:
  7103 00005B30 E8(00000000)            	call cPush
  7104 00005B35 E8(00000000)            	call pIn
  7105 00005B3A 0130                    	 db 0x0001, "0"
  7106 00005B3C 4809C9                  	or rPOk, rPOk
  7107 00005B3F 7502                    	jnz SD037F
  7108 00005B41 EB1D                    	jmp SDEnd037F
  7109                                  SD037F:
  7110 00005B43 E8(00000000)            	call pOut
  7111 00005B48 173020436172642068-     	 db 0x17, '0 Card holder present",'
  7111 00005B51 6F6C64657220707265-
  7111 00005B5A 73656E74222C       
  7112                                  SDEnd037F:
  7113 00005B60 E302                    	jrcxz DL0380
  7114 00005B62 EB70                    	jmp DLEnd0380
  7115 00005B64 48FFC1                  DL0380:	inc rcx
  7116 00005B67 E8(00000000)            	call cTop
  7117 00005B6C E8(00000000)            	call pIn
  7118 00005B71 0131                    	 db 0x0001, "1"
  7119 00005B73 4809C9                  	or rPOk, rPOk
  7120 00005B76 7502                    	jnz SD0381
  7121 00005B78 EB21                    	jmp SDEnd0381
  7122                                  SD0381:
  7123 00005B7A E8(00000000)            	call pOut
  7124 00005B7F 1B3120436172642068-     	 db 0x1B, '1 Card holder not present",'
  7124 00005B88 6F6C646572206E6F74-
  7124 00005B91 2070726573656E7422-
  7124 00005B9A 2C                 
  7125                                  SDEnd0381:
  7126 00005B9B E302                    	jrcxz DL0382
  7127 00005B9D EB35                    	jmp DLEnd0380
  7128 00005B9F 48FFC1                  DL0382:	inc rcx
  7129 00005BA2 E8(00000000)            	call cTop
  7130 00005BA7 E8(00000000)            	call b
  7131 00005BAC 4809C9                  	or rPOk, rPOk
  7132 00005BAF 7502                    	jnz SD0383
  7133 00005BB1 EB21                    	jmp SDEnd0383
  7134                                  SD0383:
  7135 00005BB3 E8(00000000)            	call pOutLI
  7136 00005BB8 4809C9                  	or rPOk, rPOk
  7137 00005BBB 7502                    	jnz SD0384
  7138 00005BBD EB15                    	jmp SDEnd0383
  7139                                  SD0384:
  7140 00005BBF E8(00000000)            	call pOut
  7141 00005BC4 0F3D496C6C6567616C-     	 db 0x0F, '=Illegal code",'
  7141 00005BCD 20636F6465222C     
  7142                                  SDEnd0383:
  7143                                  DLEnd0380:
  7144 00005BD4 E8(00000000)            	call cDrop
  7145 00005BD9 4809C9                  	or rPOk, rPOk
  7146 00005BDC 7505                    	jnz SD0385
  7147 00005BDE E9700B0000              	jmp SDEnd0332
  7148                                  SD0385:
  7149 00005BE3 E8(00000000)            	call pOut
  7150 00005BE8 240A09092250362020-     	 db 0x24, 0x0a, 0x09, 0x09, '"P6  Card presence"           : "'
  7150 00005BF1 436172642070726573-
  7150 00005BFA 656E63652220202020-
  7150 00005C03 202020202020203A20-
  7150 00005C0C 22                 
  7151 00005C0D 4809C9                  	or rPOk, rPOk
  7152 00005C10 7505                    	jnz SD0386
  7153 00005C12 E93C0B0000              	jmp SDEnd0332
  7154                                  SD0386:
  7155 00005C17 E8(00000000)            	call cPush
  7156 00005C1C E8(00000000)            	call pIn
  7157 00005C21 0130                    	 db 0x0001, "0"
  7158 00005C23 4809C9                  	or rPOk, rPOk
  7159 00005C26 7502                    	jnz SD0387
  7160 00005C28 EB1A                    	jmp SDEnd0387
  7161                                  SD0387:
  7162 00005C2A E8(00000000)            	call pOut
  7163 00005C2F 14302043617264206E-     	 db 0x14, '0 Card not present",'
  7163 00005C38 6F742070726573656E-
  7163 00005C41 74222C             
  7164                                  SDEnd0387:
  7165 00005C44 E302                    	jrcxz DL0388
  7166 00005C46 EB65                    	jmp DLEnd0388
  7167 00005C48 48FFC1                  DL0388:	inc rcx
  7168 00005C4B E8(00000000)            	call cTop
  7169 00005C50 E8(00000000)            	call pIn
  7170 00005C55 0131                    	 db 0x0001, "1"
  7171 00005C57 4809C9                  	or rPOk, rPOk
  7172 00005C5A 7502                    	jnz SD0389
  7173 00005C5C EB16                    	jmp SDEnd0389
  7174                                  SD0389:
  7175 00005C5E E8(00000000)            	call pOut
  7176 00005C63 103120436172642070-     	 db 0x10, '1 Card present",'
  7176 00005C6C 726573656E74222C   
  7177                                  SDEnd0389:
  7178 00005C74 E302                    	jrcxz DL038A
  7179 00005C76 EB35                    	jmp DLEnd0388
  7180 00005C78 48FFC1                  DL038A:	inc rcx
  7181 00005C7B E8(00000000)            	call cTop
  7182 00005C80 E8(00000000)            	call b
  7183 00005C85 4809C9                  	or rPOk, rPOk
  7184 00005C88 7502                    	jnz SD038B
  7185 00005C8A EB21                    	jmp SDEnd038B
  7186                                  SD038B:
  7187 00005C8C E8(00000000)            	call pOutLI
  7188 00005C91 4809C9                  	or rPOk, rPOk
  7189 00005C94 7502                    	jnz SD038C
  7190 00005C96 EB15                    	jmp SDEnd038B
  7191                                  SD038C:
  7192 00005C98 E8(00000000)            	call pOut
  7193 00005C9D 0F3D496C6C6567616C-     	 db 0x0F, '=Illegal code",'
  7193 00005CA6 20636F6465222C     
  7194                                  SDEnd038B:
  7195                                  DLEnd0388:
  7196 00005CAD E8(00000000)            	call cDrop
  7197 00005CB2 4809C9                  	or rPOk, rPOk
  7198 00005CB5 7505                    	jnz SD038D
  7199 00005CB7 E9970A0000              	jmp SDEnd0332
  7200                                  SD038D:
  7201 00005CBC E8(00000000)            	call pOut
  7202 00005CC1 240A09092250372020-     	 db 0x24, 0x0a, 0x09, 0x09, '"P7  Card data input mode"    : "'
  7202 00005CCA 436172642064617461-
  7202 00005CD3 20696E707574206D6F-
  7202 00005CDC 646522202020203A20-
  7202 00005CE5 22                 
  7203 00005CE6 4809C9                  	or rPOk, rPOk
  7204 00005CE9 7505                    	jnz SD038E
  7205 00005CEB E9630A0000              	jmp SDEnd0332
  7206                                  SD038E:
  7207 00005CF0 E8(00000000)            	call cPush
  7208 00005CF5 E8(00000000)            	call pIn
  7209 00005CFA 0132                    	 db 0x0001, "2"
  7210 00005CFC 4809C9                  	or rPOk, rPOk
  7211 00005CFF 7502                    	jnz SD038F
  7212 00005D01 EB13                    	jmp SDEnd038F
  7213                                  SD038F:
  7214 00005D03 E8(00000000)            	call pOut
  7215 00005D08 0D32204D61676E2075-     	 db 0x0D, '2 Magn used",'
  7215 00005D11 736564222C         
  7216                                  SDEnd038F:
  7217 00005D16 E305                    	jrcxz DL0390
  7218 00005D18 E98E010000              	jmp DLEnd0390
  7219 00005D1D 48FFC1                  DL0390:	inc rcx
  7220 00005D20 E8(00000000)            	call cTop
  7221 00005D25 E8(00000000)            	call pIn
  7222 00005D2A 0133                    	 db 0x0001, "3"
  7223 00005D2C 4809C9                  	or rPOk, rPOk
  7224 00005D2F 7502                    	jnz SD0391
  7225 00005D31 EB17                    	jmp SDEnd0391
  7226                                  SD0391:
  7227 00005D33 E8(00000000)            	call pOut
  7228 00005D38 11332042617220636F-     	 db 0x11, '3 Bar code used",'
  7228 00005D41 64652075736564222C 
  7229                                  SDEnd0391:
  7230 00005D4A E305                    	jrcxz DL0392
  7231 00005D4C E95A010000              	jmp DLEnd0390
  7232 00005D51 48FFC1                  DL0392:	inc rcx
  7233 00005D54 E8(00000000)            	call cTop
  7234 00005D59 E8(00000000)            	call pIn
  7235 00005D5E 0135                    	 db 0x0001, "5"
  7236 00005D60 4809C9                  	or rPOk, rPOk
  7237 00005D63 7502                    	jnz SD0393
  7238 00005D65 EB13                    	jmp SDEnd0393
  7239                                  SD0393:
  7240 00005D67 E8(00000000)            	call pOut
  7241 00005D6C 0D3520436869702075-     	 db 0x0D, '5 Chip used",'
  7241 00005D75 736564222C         
  7242                                  SDEnd0393:
  7243 00005D7A E305                    	jrcxz DL0394
  7244 00005D7C E92A010000              	jmp DLEnd0390
  7245 00005D81 48FFC1                  DL0394:	inc rcx
  7246 00005D84 E8(00000000)            	call cTop
  7247 00005D89 E8(00000000)            	call pIn
  7248 00005D8E 0136                    	 db 0x0001, "6"
  7249 00005D90 4809C9                  	or rPOk, rPOk
  7250 00005D93 7502                    	jnz SD0395
  7251 00005D95 EB15                    	jmp SDEnd0395
  7252                                  SD0395:
  7253 00005D97 E8(00000000)            	call pOut
  7254 00005D9C 0F36204D616E75616C-     	 db 0x0F, '6 Manual done",'
  7254 00005DA5 20646F6E65222C     
  7255                                  SDEnd0395:
  7256 00005DAC E305                    	jrcxz DL0396
  7257 00005DAE E9F8000000              	jmp DLEnd0390
  7258 00005DB3 48FFC1                  DL0396:	inc rcx
  7259 00005DB6 E8(00000000)            	call cTop
  7260 00005DBB E8(00000000)            	call pIn
  7261 00005DC0 0141                    	 db 0x0001, "A"
  7262 00005DC2 4809C9                  	or rPOk, rPOk
  7263 00005DC5 7502                    	jnz SD0397
  7264 00005DC7 EB13                    	jmp SDEnd0397
  7265                                  SD0397:
  7266 00005DC9 E8(00000000)            	call pOut
  7267 00005DCE 0D4120524649442075-     	 db 0x0D, 'A RFID used",'
  7267 00005DD7 736564222C         
  7268                                  SDEnd0397:
  7269 00005DDC E305                    	jrcxz DL0398
  7270 00005DDE E9C8000000              	jmp DLEnd0390
  7271 00005DE3 48FFC1                  DL0398:	inc rcx
  7272 00005DE6 E8(00000000)            	call cTop
  7273 00005DEB E8(00000000)            	call pIn
  7274 00005DF0 0142                    	 db 0x0001, "B"
  7275 00005DF2 4809C9                  	or rPOk, rPOk
  7276 00005DF5 7502                    	jnz SD0399
  7277 00005DF7 EB13                    	jmp SDEnd0399
  7278                                  SD0399:
  7279 00005DF9 E8(00000000)            	call pOut
  7280 00005DFE 0D42204D61676E2075-     	 db 0x0D, 'B Magn used",'
  7280 00005E07 736564222C         
  7281                                  SDEnd0399:
  7282 00005E0C E305                    	jrcxz DL039A
  7283 00005E0E E998000000              	jmp DLEnd0390
  7284 00005E13 48FFC1                  DL039A:	inc rcx
  7285 00005E16 E8(00000000)            	call cTop
  7286 00005E1B E8(00000000)            	call pIn
  7287 00005E20 0143                    	 db 0x0001, "C"
  7288 00005E22 4809C9                  	or rPOk, rPOk
  7289 00005E25 7502                    	jnz SD039B
  7290 00005E27 EB13                    	jmp SDEnd039B
  7291                                  SD039B:
  7292 00005E29 E8(00000000)            	call pOut
  7293 00005E2E 0D4320436869702075-     	 db 0x0D, 'C Chip used",'
  7293 00005E37 736564222C         
  7294                                  SDEnd039B:
  7295 00005E3C E302                    	jrcxz DL039C
  7296 00005E3E EB6B                    	jmp DLEnd0390
  7297 00005E40 48FFC1                  DL039C:	inc rcx
  7298 00005E43 E8(00000000)            	call cTop
  7299 00005E48 E8(00000000)            	call pIn
  7300 00005E4D 0144                    	 db 0x0001, "D"
  7301 00005E4F 4809C9                  	or rPOk, rPOk
  7302 00005E52 7502                    	jnz SD039D
  7303 00005E54 EB1D                    	jmp SDEnd039D
  7304                                  SD039D:
  7305 00005E56 E8(00000000)            	call pOut
  7306 00005E5B 17442046616C6C2062-     	 db 0x17, 'D Fall back magn used",'
  7306 00005E64 61636B206D61676E20-
  7306 00005E6D 75736564222C       
  7307                                  SDEnd039D:
  7308 00005E73 E302                    	jrcxz DL039E
  7309 00005E75 EB34                    	jmp DLEnd0390
  7310 00005E77 48FFC1                  DL039E:	inc rcx
  7311 00005E7A E8(00000000)            	call cTop
  7312 00005E7F E8(00000000)            	call b
  7313 00005E84 4809C9                  	or rPOk, rPOk
  7314 00005E87 7502                    	jnz SD039F
  7315 00005E89 EB20                    	jmp SDEnd039F
  7316                                  SD039F:
  7317 00005E8B E8(00000000)            	call pOutLI
  7318 00005E90 4809C9                  	or rPOk, rPOk
  7319 00005E93 7502                    	jnz SD03A0
  7320 00005E95 EB14                    	jmp SDEnd039F
  7321                                  SD03A0:
  7322 00005E97 E8(00000000)            	call pOut
  7323 00005E9C 0E496C6C6567616C20-     	 db 0x0E, 'Illegal code",'
  7323 00005EA5 636F6465222C       
  7324                                  SDEnd039F:
  7325                                  DLEnd0390:
  7326 00005EAB E8(00000000)            	call cDrop
  7327 00005EB0 4809C9                  	or rPOk, rPOk
  7328 00005EB3 7505                    	jnz SD03A1
  7329 00005EB5 E999080000              	jmp SDEnd0332
  7330                                  SD03A1:
  7331 00005EBA E8(00000000)            	call pOut
  7332 00005EBF 240A09092250382020-     	 db 0x24, 0x0a, 0x09, 0x09, '"P8  Card holder auth method" : "'
  7332 00005EC8 4361726420686F6C64-
  7332 00005ED1 65722061757468206D-
  7332 00005EDA 6574686F6422203A20-
  7332 00005EE3 22                 
  7333 00005EE4 4809C9                  	or rPOk, rPOk
  7334 00005EE7 7505                    	jnz SD03A2
  7335 00005EE9 E965080000              	jmp SDEnd0332
  7336                                  SD03A2:
  7337 00005EEE E8(00000000)            	call cPush
  7338 00005EF3 E8(00000000)            	call pIn
  7339 00005EF8 0130                    	 db 0x0001, "0"
  7340 00005EFA 4809C9                  	or rPOk, rPOk
  7341 00005EFD 7502                    	jnz SD03A3
  7342 00005EFF EB24                    	jmp SDEnd03A3
  7343                                  SD03A3:
  7344 00005F01 E8(00000000)            	call pOut
  7345 00005F06 1E302043617264486F-     	 db 0x1E, '0 CardHolderNotAuthenticated",'
  7345 00005F0F 6C6465724E6F744175-
  7345 00005F18 7468656E7469636174-
  7345 00005F21 6564222C           
  7346                                  SDEnd03A3:
  7347 00005F25 E305                    	jrcxz DL03A4
  7348 00005F27 E906010000              	jmp DLEnd03A4
  7349 00005F2C 48FFC1                  DL03A4:	inc rcx
  7350 00005F2F E8(00000000)            	call cTop
  7351 00005F34 E8(00000000)            	call pIn
  7352 00005F39 0131                    	 db 0x0001, "1"
  7353 00005F3B 4809C9                  	or rPOk, rPOk
  7354 00005F3E 7502                    	jnz SD03A5
  7355 00005F40 EB12                    	jmp SDEnd03A5
  7356                                  SD03A5:
  7357 00005F42 E8(00000000)            	call pOut
  7358 00005F47 0C312050494E207573-     	 db 0x0C, '1 PIN used",'
  7358 00005F50 6564222C           
  7359                                  SDEnd03A5:
  7360 00005F54 E305                    	jrcxz DL03A6
  7361 00005F56 E9D7000000              	jmp DLEnd03A4
  7362 00005F5B 48FFC1                  DL03A6:	inc rcx
  7363 00005F5E E8(00000000)            	call cTop
  7364 00005F63 E8(00000000)            	call pIn
  7365 00005F68 0135                    	 db 0x0001, "5"
  7366 00005F6A 4809C9                  	or rPOk, rPOk
  7367 00005F6D 7502                    	jnz SD03A7
  7368 00005F6F EB18                    	jmp SDEnd03A7
  7369                                  SD03A7:
  7370 00005F71 E8(00000000)            	call pOut
  7371 00005F76 1235205369676E6174-     	 db 0x12, '5 Signature used",'
  7371 00005F7F 757265207573656422-
  7371 00005F88 2C                 
  7372                                  SDEnd03A7:
  7373 00005F89 E305                    	jrcxz DL03A8
  7374 00005F8B E9A2000000              	jmp DLEnd03A4
  7375 00005F90 48FFC1                  DL03A8:	inc rcx
  7376 00005F93 E8(00000000)            	call cTop
  7377 00005F98 E8(00000000)            	call pIn
  7378 00005F9D 0136                    	 db 0x0001, "6"
  7379 00005F9F 4809C9                  	or rPOk, rPOk
  7380 00005FA2 7502                    	jnz SD03A9
  7381 00005FA4 EB1C                    	jmp SDEnd03A9
  7382                                  SD03A9:
  7383 00005FA6 E8(00000000)            	call pOut
  7384 00005FAB 163620447269766572-     	 db 0x16, '6 DriverLicense used",'
  7384 00005FB4 4C6963656E73652075-
  7384 00005FBD 736564222C         
  7385                                  SDEnd03A9:
  7386 00005FC2 E302                    	jrcxz DL03AA
  7387 00005FC4 EB6C                    	jmp DLEnd03A4
  7388 00005FC6 48FFC1                  DL03AA:	inc rcx
  7389 00005FC9 E8(00000000)            	call cTop
  7390 00005FCE E8(00000000)            	call pIn
  7391 00005FD3 0139                    	 db 0x0001, "9"
  7392 00005FD5 4809C9                  	or rPOk, rPOk
  7393 00005FD8 7502                    	jnz SD03AB
  7394 00005FDA EB1E                    	jmp SDEnd03AB
  7395                                  SD03AB:
  7396 00005FDC E8(00000000)            	call pOut
  7397 00005FE1 183920454D56205069-     	 db 0x18, '9 EMV Pin for 2nd card",'
  7397 00005FEA 6E20666F7220326E64-
  7397 00005FF3 2063617264222C     
  7398                                  SDEnd03AB:
  7399 00005FFA E302                    	jrcxz DL03AC
  7400 00005FFC EB34                    	jmp DLEnd03A4
  7401 00005FFE 48FFC1                  DL03AC:	inc rcx
  7402 00006001 E8(00000000)            	call cTop
  7403 00006006 E8(00000000)            	call b
  7404 0000600B 4809C9                  	or rPOk, rPOk
  7405 0000600E 7502                    	jnz SD03AD
  7406 00006010 EB20                    	jmp SDEnd03AD
  7407                                  SD03AD:
  7408 00006012 E8(00000000)            	call pOutLI
  7409 00006017 4809C9                  	or rPOk, rPOk
  7410 0000601A 7502                    	jnz SD03AE
  7411 0000601C EB14                    	jmp SDEnd03AD
  7412                                  SD03AE:
  7413 0000601E E8(00000000)            	call pOut
  7414 00006023 0E496C6C6567616C20-     	 db 0x0E, 'Illegal code",'
  7414 0000602C 636F6465222C       
  7415                                  SDEnd03AD:
  7416                                  DLEnd03A4:
  7417 00006032 E8(00000000)            	call cDrop
  7418 00006037 4809C9                  	or rPOk, rPOk
  7419 0000603A 7505                    	jnz SD03AF
  7420 0000603C E912070000              	jmp SDEnd0332
  7421                                  SD03AF:
  7422 00006041 E8(00000000)            	call pOut
  7423 00006046 240A09092250392020-     	 db 0x24, 0x0a, 0x09, 0x09, '"P9  Card holder auth entity" : "'
  7423 0000604F 4361726420686F6C64-
  7423 00006058 657220617574682065-
  7423 00006061 6E7469747922203A20-
  7423 0000606A 22                 
  7424 0000606B 4809C9                  	or rPOk, rPOk
  7425 0000606E 7505                    	jnz SD03B0
  7426 00006070 E9DE060000              	jmp SDEnd0332
  7427                                  SD03B0:
  7428 00006075 E8(00000000)            	call cPush
  7429 0000607A E8(00000000)            	call pIn
  7430 0000607F 0130                    	 db 0x0001, "0"
  7431 00006081 4809C9                  	or rPOk, rPOk
  7432 00006084 7502                    	jnz SD03B1
  7433 00006086 EB27                    	jmp SDEnd03B1
  7434                                  SD03B1:
  7435 00006088 E8(00000000)            	call pOut
  7436 0000608D 213020436172642068-     	 db 0x21, '0 Card holder not authenticated",'
  7436 00006096 6F6C646572206E6F74-
  7436 0000609F 2061757468656E7469-
  7436 000060A8 6361746564222C     
  7437                                  SDEnd03B1:
  7438 000060AF E305                    	jrcxz DL03B2
  7439 000060B1 E950010000              	jmp DLEnd03B2
  7440 000060B6 48FFC1                  DL03B2:	inc rcx
  7441 000060B9 E8(00000000)            	call cTop
  7442 000060BE E8(00000000)            	call pIn
  7443 000060C3 0131                    	 db 0x0001, "1"
  7444 000060C5 4809C9                  	or rPOk, rPOk
  7445 000060C8 7502                    	jnz SD03B3
  7446 000060CA EB24                    	jmp SDEnd03B3
  7447                                  SD03B3:
  7448 000060CC E8(00000000)            	call pOut
  7449 000060D1 1E3120436869702061-     	 db 0x1E, '1 Chip authorized Cardholder",'
  7449 000060DA 7574686F72697A6564-
  7449 000060E3 2043617264686F6C64-
  7449 000060EC 6572222C           
  7450                                  SDEnd03B3:
  7451 000060F0 E305                    	jrcxz DL03B4
  7452 000060F2 E90F010000              	jmp DLEnd03B2
  7453 000060F7 48FFC1                  DL03B4:	inc rcx
  7454 000060FA E8(00000000)            	call cTop
  7455 000060FF E8(00000000)            	call pIn
  7456 00006104 0132                    	 db 0x0001, "2"
  7457 00006106 4809C9                  	or rPOk, rPOk
  7458 00006109 7502                    	jnz SD03B5
  7459 0000610B EB1D                    	jmp SDEnd03B5
  7460                                  SD03B5:
  7461 0000610D E8(00000000)            	call pOut
  7462 00006112 1732205465726D696E-     	 db 0x17, '2 Terminal authorized",'
  7462 0000611B 616C20617574686F72-
  7462 00006124 697A6564222C       
  7463                                  SDEnd03B5:
  7464 0000612A E305                    	jrcxz DL03B6
  7465 0000612C E9D5000000              	jmp DLEnd03B2
  7466 00006131 48FFC1                  DL03B6:	inc rcx
  7467 00006134 E8(00000000)            	call cTop
  7468 00006139 E8(00000000)            	call pIn
  7469 0000613E 0133                    	 db 0x0001, "3"
  7470 00006140 4809C9                  	or rPOk, rPOk
  7471 00006143 7502                    	jnz SD03B7
  7472 00006145 EB20                    	jmp SDEnd03B7
  7473                                  SD03B7:
  7474 00006147 E8(00000000)            	call pOut
  7475 0000614C 1A3320417574686F72-     	 db 0x1A, '3 Authorising agent used",'
  7475 00006155 6973696E6720616765-
  7475 0000615E 6E742075736564222C 
  7476                                  SDEnd03B7:
  7477 00006167 E305                    	jrcxz DL03B8
  7478 00006169 E998000000              	jmp DLEnd03B2
  7479 0000616E 48FFC1                  DL03B8:	inc rcx
  7480 00006171 E8(00000000)            	call cTop
  7481 00006176 E8(00000000)            	call pIn
  7482 0000617B 0134                    	 db 0x0001, "4"
  7483 0000617D 4809C9                  	or rPOk, rPOk
  7484 00006180 7502                    	jnz SD03B9
  7485 00006182 EB1B                    	jmp SDEnd03B9
  7486                                  SD03B9:
  7487 00006184 E8(00000000)            	call pOut
  7488 00006189 1534204D6572636861-     	 db 0x15, '4 Merchant did auth",'
  7488 00006192 6E7420646964206175-
  7488 0000619B 7468222C           
  7489                                  SDEnd03B9:
  7490 0000619F E302                    	jrcxz DL03BA
  7491 000061A1 EB63                    	jmp DLEnd03B2
  7492 000061A3 48FFC1                  DL03BA:	inc rcx
  7493 000061A6 E8(00000000)            	call cTop
  7494 000061AB E8(00000000)            	call pIn
  7495 000061B0 0135                    	 db 0x0001, "5"
  7496 000061B2 4809C9                  	or rPOk, rPOk
  7497 000061B5 7502                    	jnz SD03BB
  7498 000061B7 EB14                    	jmp SDEnd03BB
  7499                                  SD03BB:
  7500 000061B9 E8(00000000)            	call pOut
  7501 000061BE 0E35204F7468657220-     	 db 0x0E, '5 Other auth",'
  7501 000061C7 61757468222C       
  7502                                  SDEnd03BB:
  7503 000061CD E302                    	jrcxz DL03BC
  7504 000061CF EB35                    	jmp DLEnd03B2
  7505 000061D1 48FFC1                  DL03BC:	inc rcx
  7506 000061D4 E8(00000000)            	call cTop
  7507 000061D9 E8(00000000)            	call b
  7508 000061DE 4809C9                  	or rPOk, rPOk
  7509 000061E1 7502                    	jnz SD03BD
  7510 000061E3 EB21                    	jmp SDEnd03BD
  7511                                  SD03BD:
  7512 000061E5 E8(00000000)            	call pOutLI
  7513 000061EA 4809C9                  	or rPOk, rPOk
  7514 000061ED 7502                    	jnz SD03BE
  7515 000061EF EB15                    	jmp SDEnd03BD
  7516                                  SD03BE:
  7517 000061F1 E8(00000000)            	call pOut
  7518 000061F6 0F3D496C6C6567616C-     	 db 0x0F, '=Illegal code",'
  7518 000061FF 20636F6465222C     
  7519                                  SDEnd03BD:
  7520                                  DLEnd03B2:
  7521 00006206 E8(00000000)            	call cDrop
  7522 0000620B 4809C9                  	or rPOk, rPOk
  7523 0000620E 7505                    	jnz SD03BF
  7524 00006210 E93E050000              	jmp SDEnd0332
  7525                                  SD03BF:
  7526 00006215 E8(00000000)            	call pOut
  7527 0000621A 240A09092250313020-     	 db 0x24, 0x0a, 0x09, 0x09, '"P10 CAD can update card"     : "'
  7527 00006223 4341442063616E2075-
  7527 0000622C 706461746520636172-
  7527 00006235 642220202020203A20-
  7527 0000623E 22                 
  7528 0000623F 4809C9                  	or rPOk, rPOk
  7529 00006242 7505                    	jnz SD03C0
  7530 00006244 E90A050000              	jmp SDEnd0332
  7531                                  SD03C0:
  7532 00006249 E8(00000000)            	call cPush
  7533 0000624E E8(00000000)            	call pIn
  7534 00006253 0130                    	 db 0x0001, "0"
  7535 00006255 4809C9                  	or rPOk, rPOk
  7536 00006258 7502                    	jnz SD03C1
  7537 0000625A EB11                    	jmp SDEnd03C1
  7538                                  SD03C1:
  7539 0000625C E8(00000000)            	call pOut
  7540 00006261 0B3020556E6B6E6F77-     	 db 0x0B, '0 Unknown",'
  7540 0000626A 6E222C             
  7541                                  SDEnd03C1:
  7542 0000626D E305                    	jrcxz DL03C2
  7543 0000626F E9E5000000              	jmp DLEnd03C2
  7544 00006274 48FFC1                  DL03C2:	inc rcx
  7545 00006277 E8(00000000)            	call cTop
  7546 0000627C E8(00000000)            	call pIn
  7547 00006281 0131                    	 db 0x0001, "1"
  7548 00006283 4809C9                  	or rPOk, rPOk
  7549 00006286 7502                    	jnz SD03C3
  7550 00006288 EB20                    	jmp SDEnd03C3
  7551                                  SD03C3:
  7552 0000628A E8(00000000)            	call pOut
  7553 0000628F 1A3120434144206361-     	 db 0x1A, '1 CAD cannot update card",'
  7553 00006298 6E6E6F742075706461-
  7553 000062A1 74652063617264222C 
  7554                                  SDEnd03C3:
  7555 000062AA E305                    	jrcxz DL03C4
  7556 000062AC E9A8000000              	jmp DLEnd03C2
  7557 000062B1 48FFC1                  DL03C4:	inc rcx
  7558 000062B4 E8(00000000)            	call cTop
  7559 000062B9 E8(00000000)            	call pIn
  7560 000062BE 0132                    	 db 0x0001, "2"
  7561 000062C0 4809C9                  	or rPOk, rPOk
  7562 000062C3 7502                    	jnz SD03C5
  7563 000062C5 EB22                    	jmp SDEnd03C5
  7564                                  SD03C5:
  7565 000062C7 E8(00000000)            	call pOut
  7566 000062CC 1C3220434144206361-     	 db 0x1C, '2 CAD can update magstripe",'
  7566 000062D5 6E2075706461746520-
  7566 000062DE 6D6167737472697065-
  7566 000062E7 222C               
  7567                                  SDEnd03C5:
  7568 000062E9 E302                    	jrcxz DL03C6
  7569 000062EB EB6C                    	jmp DLEnd03C2
  7570 000062ED 48FFC1                  DL03C6:	inc rcx
  7571 000062F0 E8(00000000)            	call cTop
  7572 000062F5 E8(00000000)            	call pIn
  7573 000062FA 0133                    	 db 0x0001, "3"
  7574 000062FC 4809C9                  	or rPOk, rPOk
  7575 000062FF 7502                    	jnz SD03C7
  7576 00006301 EB1D                    	jmp SDEnd03C7
  7577                                  SD03C7:
  7578 00006303 E8(00000000)            	call pOut
  7579 00006308 173320434144206361-     	 db 0x17, '3 CAD can update chip",'
  7579 00006311 6E2075706461746520-
  7579 0000631A 63686970222C       
  7580                                  SDEnd03C7:
  7581 00006320 E302                    	jrcxz DL03C8
  7582 00006322 EB35                    	jmp DLEnd03C2
  7583 00006324 48FFC1                  DL03C8:	inc rcx
  7584 00006327 E8(00000000)            	call cTop
  7585 0000632C E8(00000000)            	call b
  7586 00006331 4809C9                  	or rPOk, rPOk
  7587 00006334 7502                    	jnz SD03C9
  7588 00006336 EB21                    	jmp SDEnd03C9
  7589                                  SD03C9:
  7590 00006338 E8(00000000)            	call pOutLI
  7591 0000633D 4809C9                  	or rPOk, rPOk
  7592 00006340 7502                    	jnz SD03CA
  7593 00006342 EB15                    	jmp SDEnd03C9
  7594                                  SD03CA:
  7595 00006344 E8(00000000)            	call pOut
  7596 00006349 0F3D496C6C6567616C-     	 db 0x0F, '=Illegal code",'
  7596 00006352 20636F6465222C     
  7597                                  SDEnd03C9:
  7598                                  DLEnd03C2:
  7599 00006359 E8(00000000)            	call cDrop
  7600 0000635E 4809C9                  	or rPOk, rPOk
  7601 00006361 7505                    	jnz SD03CB
  7602 00006363 E9EB030000              	jmp SDEnd0332
  7603                                  SD03CB:
  7604 00006368 E8(00000000)            	call pOut
  7605 0000636D 240A09092250313120-     	 db 0x24, 0x0a, 0x09, 0x09, '"P11 POI output ability"      : "'
  7605 00006376 504F49206F75747075-
  7605 0000637F 74206162696C697479-
  7605 00006388 222020202020203A20-
  7605 00006391 22                 
  7606 00006392 4809C9                  	or rPOk, rPOk
  7607 00006395 7505                    	jnz SD03CC
  7608 00006397 E9B7030000              	jmp SDEnd0332
  7609                                  SD03CC:
  7610 0000639C E8(00000000)            	call cPush
  7611 000063A1 E8(00000000)            	call pIn
  7612 000063A6 0130                    	 db 0x0001, "0"
  7613 000063A8 4809C9                  	or rPOk, rPOk
  7614 000063AB 7502                    	jnz SD03CD
  7615 000063AD EB11                    	jmp SDEnd03CD
  7616                                  SD03CD:
  7617 000063AF E8(00000000)            	call pOut
  7618 000063B4 0B3020556E6B6E6F77-     	 db 0x0B, '0 Unknown",'
  7618 000063BD 6E222C             
  7619                                  SDEnd03CD:
  7620 000063C0 E305                    	jrcxz DL03CE
  7621 000063C2 E91A010000              	jmp DLEnd03CE
  7622 000063C7 48FFC1                  DL03CE:	inc rcx
  7623 000063CA E8(00000000)            	call cTop
  7624 000063CF E8(00000000)            	call pIn
  7625 000063D4 0131                    	 db 0x0001, "1"
  7626 000063D6 4809C9                  	or rPOk, rPOk
  7627 000063D9 7502                    	jnz SD03CF
  7628 000063DB EB0E                    	jmp SDEnd03CF
  7629                                  SD03CF:
  7630 000063DD E8(00000000)            	call pOut
  7631 000063E2 0831204E6F6E65222C      	 db 0x08, '1 None",'
  7632                                  SDEnd03CF:
  7633 000063EB E305                    	jrcxz DL03D0
  7634 000063ED E9EF000000              	jmp DLEnd03CE
  7635 000063F2 48FFC1                  DL03D0:	inc rcx
  7636 000063F5 E8(00000000)            	call cTop
  7637 000063FA E8(00000000)            	call pIn
  7638 000063FF 0132                    	 db 0x0001, "2"
  7639 00006401 4809C9                  	or rPOk, rPOk
  7640 00006404 7502                    	jnz SD03D1
  7641 00006406 EB0F                    	jmp SDEnd03D1
  7642                                  SD03D1:
  7643 00006408 E8(00000000)            	call pOut
  7644 0000640D 0932205072696E7422-     	 db 0x09, '2 Print",'
  7644 00006416 2C                 
  7645                                  SDEnd03D1:
  7646 00006417 E305                    	jrcxz DL03D2
  7647 00006419 E9C3000000              	jmp DLEnd03CE
  7648 0000641E 48FFC1                  DL03D2:	inc rcx
  7649 00006421 E8(00000000)            	call cTop
  7650 00006426 E8(00000000)            	call pIn
  7651 0000642B 0133                    	 db 0x0001, "3"
  7652 0000642D 4809C9                  	or rPOk, rPOk
  7653 00006430 7502                    	jnz SD03D3
  7654 00006432 EB11                    	jmp SDEnd03D3
  7655                                  SD03D3:
  7656 00006434 E8(00000000)            	call pOut
  7657 00006439 0B3320446973706C61-     	 db 0x0B, '3 Display",'
  7657 00006442 79222C             
  7658                                  SDEnd03D3:
  7659 00006445 E305                    	jrcxz DL03D4
  7660 00006447 E995000000              	jmp DLEnd03CE
  7661 0000644C 48FFC1                  DL03D4:	inc rcx
  7662 0000644F E8(00000000)            	call cTop
  7663 00006454 E8(00000000)            	call pIn
  7664 00006459 0134                    	 db 0x0001, "4"
  7665 0000645B 4809C9                  	or rPOk, rPOk
  7666 0000645E 7502                    	jnz SD03D5
  7667 00006460 EB1B                    	jmp SDEnd03D5
  7668                                  SD03D5:
  7669 00006462 E8(00000000)            	call pOut
  7670 00006467 1534205072696E7420-     	 db 0x15, '4 Print and display",'
  7670 00006470 616E6420646973706C-
  7670 00006479 6179222C           
  7671                                  SDEnd03D5:
  7672 0000647D E302                    	jrcxz DL03D6
  7673 0000647F EB60                    	jmp DLEnd03CE
  7674 00006481 48FFC1                  DL03D6:	inc rcx
  7675 00006484 E8(00000000)            	call cTop
  7676 00006489 E8(00000000)            	call pIn
  7677 0000648E 0135                    	 db 0x0001, "5"
  7678 00006490 4809C9                  	or rPOk, rPOk
  7679 00006493 7502                    	jnz SD03D7
  7680 00006495 EB11                    	jmp SDEnd03D7
  7681                                  SD03D7:
  7682 00006497 E8(00000000)            	call pOut
  7683 0000649C 0B3520537065636961-     	 db 0x0B, '5 Special",'
  7683 000064A5 6C222C             
  7684                                  SDEnd03D7:
  7685 000064A8 E302                    	jrcxz DL03D8
  7686 000064AA EB35                    	jmp DLEnd03CE
  7687 000064AC 48FFC1                  DL03D8:	inc rcx
  7688 000064AF E8(00000000)            	call cTop
  7689 000064B4 E8(00000000)            	call b
  7690 000064B9 4809C9                  	or rPOk, rPOk
  7691 000064BC 7502                    	jnz SD03D9
  7692 000064BE EB21                    	jmp SDEnd03D9
  7693                                  SD03D9:
  7694 000064C0 E8(00000000)            	call pOutLI
  7695 000064C5 4809C9                  	or rPOk, rPOk
  7696 000064C8 7502                    	jnz SD03DA
  7697 000064CA EB15                    	jmp SDEnd03D9
  7698                                  SD03DA:
  7699 000064CC E8(00000000)            	call pOut
  7700 000064D1 0F3D496C6C6567616C-     	 db 0x0F, '=Illegal code",'
  7700 000064DA 20636F6465222C     
  7701                                  SDEnd03D9:
  7702                                  DLEnd03CE:
  7703 000064E1 E8(00000000)            	call cDrop
  7704 000064E6 4809C9                  	or rPOk, rPOk
  7705 000064E9 7505                    	jnz SD03DB
  7706 000064EB E963020000              	jmp SDEnd0332
  7707                                  SD03DB:
  7708 000064F0 E8(00000000)            	call pOut
  7709 000064F5 240A09092250313220-     	 db 0x24, 0x0a, 0x09, 0x09, '"P12 PIN capture capability"  : "'
  7709 000064FE 50494E206361707475-
  7709 00006507 726520636170616269-
  7709 00006510 6C6974792220203A20-
  7709 00006519 22                 
  7710 0000651A 4809C9                  	or rPOk, rPOk
  7711 0000651D 7505                    	jnz SD03DC
  7712 0000651F E92F020000              	jmp SDEnd0332
  7713                                  SD03DC:
  7714 00006524 E8(00000000)            	call cPush
  7715 00006529 E8(00000000)            	call pIn
  7716 0000652E 0130                    	 db 0x0001, "0"
  7717 00006530 4809C9                  	or rPOk, rPOk
  7718 00006533 7502                    	jnz SD03DD
  7719 00006535 EB0C                    	jmp SDEnd03DD
  7720                                  SD03DD:
  7721 00006537 E8(00000000)            	call pOut
  7722 0000653C 064E6F6E65222C          	 db 0x06, 'None",'
  7723                                  SDEnd03DD:
  7724 00006543 E305                    	jrcxz DL03DE
  7725 00006545 E9E9010000              	jmp DLEnd03DE
  7726 0000654A 48FFC1                  DL03DE:	inc rcx
  7727 0000654D E8(00000000)            	call cTop
  7728 00006552 E8(00000000)            	call pIn
  7729 00006557 0131                    	 db 0x0001, "1"
  7730 00006559 4809C9                  	or rPOk, rPOk
  7731 0000655C 7502                    	jnz SD03DF
  7732 0000655E EB0F                    	jmp SDEnd03DF
  7733                                  SD03DF:
  7734 00006560 E8(00000000)            	call pOut
  7735 00006565 09556E6B6E6F776E22-     	 db 0x09, 'Unknown",'
  7735 0000656E 2C                 
  7736                                  SDEnd03DF:
  7737 0000656F E305                    	jrcxz DL03E0
  7738 00006571 E9BD010000              	jmp DLEnd03DE
  7739 00006576 48FFC1                  DL03E0:	inc rcx
  7740 00006579 E8(00000000)            	call cTop
  7741 0000657E E8(00000000)            	call pIn
  7742 00006583 0134                    	 db 0x0001, "4"
  7743 00006585 4809C9                  	or rPOk, rPOk
  7744 00006588 7502                    	jnz SD03E1
  7745 0000658A EB0F                    	jmp SDEnd03E1
  7746                                  SD03E1:
  7747 0000658C E8(00000000)            	call pOut
  7748 00006591 093420646967697422-     	 db 0x09, '4 digit",'
  7748 0000659A 2C                 
  7749                                  SDEnd03E1:
  7750 0000659B E305                    	jrcxz DL03E2
  7751 0000659D E991010000              	jmp DLEnd03DE
  7752 000065A2 48FFC1                  DL03E2:	inc rcx
  7753 000065A5 E8(00000000)            	call cTop
  7754 000065AA E8(00000000)            	call pIn
  7755 000065AF 0135                    	 db 0x0001, "5"
  7756 000065B1 4809C9                  	or rPOk, rPOk
  7757 000065B4 7502                    	jnz SD03E3
  7758 000065B6 EB0F                    	jmp SDEnd03E3
  7759                                  SD03E3:
  7760 000065B8 E8(00000000)            	call pOut
  7761 000065BD 093520646967697422-     	 db 0x09, '5 digit",'
  7761 000065C6 2C                 
  7762                                  SDEnd03E3:
  7763 000065C7 E305                    	jrcxz DL03E4
  7764 000065C9 E965010000              	jmp DLEnd03DE
  7765 000065CE 48FFC1                  DL03E4:	inc rcx
  7766 000065D1 E8(00000000)            	call cTop
  7767 000065D6 E8(00000000)            	call pIn
  7768 000065DB 0136                    	 db 0x0001, "6"
  7769 000065DD 4809C9                  	or rPOk, rPOk
  7770 000065E0 7502                    	jnz SD03E5
  7771 000065E2 EB0F                    	jmp SDEnd03E5
  7772                                  SD03E5:
  7773 000065E4 E8(00000000)            	call pOut
  7774 000065E9 093620646967697422-     	 db 0x09, '6 digit",'
  7774 000065F2 2C                 
  7775                                  SDEnd03E5:
  7776 000065F3 E305                    	jrcxz DL03E6
  7777 000065F5 E939010000              	jmp DLEnd03DE
  7778 000065FA 48FFC1                  DL03E6:	inc rcx
  7779 000065FD E8(00000000)            	call cTop
  7780 00006602 E8(00000000)            	call pIn
  7781 00006607 0137                    	 db 0x0001, "7"
  7782 00006609 4809C9                  	or rPOk, rPOk
  7783 0000660C 7502                    	jnz SD03E7
  7784 0000660E EB0F                    	jmp SDEnd03E7
  7785                                  SD03E7:
  7786 00006610 E8(00000000)            	call pOut
  7787 00006615 093720646967697422-     	 db 0x09, '7 digit",'
  7787 0000661E 2C                 
  7788                                  SDEnd03E7:
  7789 0000661F E305                    	jrcxz DL03E8
  7790 00006621 E90D010000              	jmp DLEnd03DE
  7791 00006626 48FFC1                  DL03E8:	inc rcx
  7792 00006629 E8(00000000)            	call cTop
  7793 0000662E E8(00000000)            	call pIn
  7794 00006633 0138                    	 db 0x0001, "8"
  7795 00006635 4809C9                  	or rPOk, rPOk
  7796 00006638 7502                    	jnz SD03E9
  7797 0000663A EB0F                    	jmp SDEnd03E9
  7798                                  SD03E9:
  7799 0000663C E8(00000000)            	call pOut
  7800 00006641 093820646967697422-     	 db 0x09, '8 digit",'
  7800 0000664A 2C                 
  7801                                  SDEnd03E9:
  7802 0000664B E305                    	jrcxz DL03EA
  7803 0000664D E9E1000000              	jmp DLEnd03DE
  7804 00006652 48FFC1                  DL03EA:	inc rcx
  7805 00006655 E8(00000000)            	call cTop
  7806 0000665A E8(00000000)            	call pIn
  7807 0000665F 0139                    	 db 0x0001, "9"
  7808 00006661 4809C9                  	or rPOk, rPOk
  7809 00006664 7502                    	jnz SD03EB
  7810 00006666 EB0F                    	jmp SDEnd03EB
  7811                                  SD03EB:
  7812 00006668 E8(00000000)            	call pOut
  7813 0000666D 093920646967697422-     	 db 0x09, '9 digit",'
  7813 00006676 2C                 
  7814                                  SDEnd03EB:
  7815 00006677 E305                    	jrcxz DL03EC
  7816 00006679 E9B5000000              	jmp DLEnd03DE
  7817 0000667E 48FFC1                  DL03EC:	inc rcx
  7818 00006681 E8(00000000)            	call cTop
  7819 00006686 E8(00000000)            	call pIn
  7820 0000668B 0141                    	 db 0x0001, "A"
  7821 0000668D 4809C9                  	or rPOk, rPOk
  7822 00006690 7502                    	jnz SD03ED
  7823 00006692 EB10                    	jmp SDEnd03ED
  7824                                  SD03ED:
  7825 00006694 E8(00000000)            	call pOut
  7826 00006699 0A3130206469676974-     	 db 0x0A, '10 digit",'
  7826 000066A2 222C               
  7827                                  SDEnd03ED:
  7828 000066A4 E305                    	jrcxz DL03EE
  7829 000066A6 E988000000              	jmp DLEnd03DE
  7830 000066AB 48FFC1                  DL03EE:	inc rcx
  7831 000066AE E8(00000000)            	call cTop
  7832 000066B3 E8(00000000)            	call pIn
  7833 000066B8 0142                    	 db 0x0001, "B"
  7834 000066BA 4809C9                  	or rPOk, rPOk
  7835 000066BD 7502                    	jnz SD03EF
  7836 000066BF EB10                    	jmp SDEnd03EF
  7837                                  SD03EF:
  7838 000066C1 E8(00000000)            	call pOut
  7839 000066C6 0A3131206469676974-     	 db 0x0A, '11 digit",'
  7839 000066CF 222C               
  7840                                  SDEnd03EF:
  7841 000066D1 E302                    	jrcxz DL03F0
  7842 000066D3 EB5E                    	jmp DLEnd03DE
  7843 000066D5 48FFC1                  DL03F0:	inc rcx
  7844 000066D8 E8(00000000)            	call cTop
  7845 000066DD E8(00000000)            	call pIn
  7846 000066E2 0143                    	 db 0x0001, "C"
  7847 000066E4 4809C9                  	or rPOk, rPOk
  7848 000066E7 7502                    	jnz SD03F1
  7849 000066E9 EB10                    	jmp SDEnd03F1
  7850                                  SD03F1:
  7851 000066EB E8(00000000)            	call pOut
  7852 000066F0 0A3132206469676974-     	 db 0x0A, '12 digit",'
  7852 000066F9 222C               
  7853                                  SDEnd03F1:
  7854 000066FB E302                    	jrcxz DL03F2
  7855 000066FD EB34                    	jmp DLEnd03DE
  7856 000066FF 48FFC1                  DL03F2:	inc rcx
  7857 00006702 E8(00000000)            	call cTop
  7858 00006707 E8(00000000)            	call b
  7859 0000670C 4809C9                  	or rPOk, rPOk
  7860 0000670F 7502                    	jnz SD03F3
  7861 00006711 EB20                    	jmp SDEnd03F3
  7862                                  SD03F3:
  7863 00006713 E8(00000000)            	call pOutLI
  7864 00006718 4809C9                  	or rPOk, rPOk
  7865 0000671B 7502                    	jnz SD03F4
  7866 0000671D EB14                    	jmp SDEnd03F3
  7867                                  SD03F4:
  7868 0000671F E8(00000000)            	call pOut
  7869 00006724 0E496C6C6567616C20-     	 db 0x0E, 'Illegal code",'
  7869 0000672D 636F6465222C       
  7870                                  SDEnd03F3:
  7871                                  DLEnd03DE:
  7872 00006733 E8(00000000)            	call cDrop
  7873 00006738 4809C9                  	or rPOk, rPOk
  7874 0000673B 7502                    	jnz SD03F5
  7875 0000673D EB14                    	jmp SDEnd0332
  7876                                  SD03F5:
  7877 0000673F E8(00000000)            	call DropLastChar
  7878 00006744 4809C9                  	or rPOk, rPOk
  7879 00006747 7502                    	jnz SD03F6
  7880 00006749 EB08                    	jmp SDEnd0332
  7881                                  SD03F6:
  7882 0000674B E8(00000000)            	call pOut
  7883 00006750 027D2C                  	 db 0x02, '},'
  7884                                  SDEnd0332:
  7885 00006753 E8(00000000)            	call cDrop
  7886 00006758 C3                      	ret
  7887                                  
  7888                                  ;Bit22	=	/*POS code 12*an*/
  7889                                  ;	 pOut(0x0a, 0x09, 0x09, '"P1  Technical ability"       : "'),
  7890                                  ;	(	"2", pOut('2 Magnetic stripe",')|
  7891                                  ;		"3", pOut('3 Bar code",')|
  7892                                  ;		"5", pOut('5 Chip",')|
  7893                                  ;		"6", pOut('6 Key entry",')|
  7894                                  ;		"A", pOut('A RFID",')|
  7895                                  ;		"B", pOut('B Magn & Key entry",')|
  7896                                  ;		"C", pOut('C Magn, Chip, Key entry",')|
  7897                                  ;		"D", pOut('D Magn & Chip",')|
  7898                                  ;		"E", pOut('E Chip & Key entry",')|
  7899                                  ;		b, pOutLI, pOut('=Illegal code",')),
  7900                                  ;
  7901                                  ;	 pOut(0x0a, 0x09, 0x09, '"P2  Authentication ability"  : "'),
  7902                                  ;	(	"0", pOut('0 None",')|
  7903                                  ;		"1", pOut('1 PIN",')|
  7904                                  ;		"6", pOut('6 Unknown",')|
  7905                                  ;		"9", pOut('9 EMV",')|
  7906                                  ;		"S", pOut('S Signature",')|
  7907                                  ;		"T", pOut('T EMV offline PIN",')|
  7908                                  ;		"U", pOut('U EMV online PIN",')|
  7909                                  ;		"V", pOut('V Sign & EMV offline PIN",')|
  7910                                  ;		"X", pOut('X Sign & EMV online PIN",')|
  7911                                  ;		"Y", pOut('Y Sign & EMV on/offfline PIN",')|
  7912                                  ;		"Z", pOut('Z EMV on/offline PIN",')|
  7913                                  ;		b, pOutLI, pOut('=Illegal code",')),
  7914                                  ;
  7915                                  ;	 pOut(0x0a, 0x09, 0x09, '"P3  Card capture ability"    : "'),
  7916                                  ;	(	"0", pOut('0 None",')|
  7917                                  ;		"1", pOut('1 Card",')|
  7918                                  ;		"T", pOut('T None & EMV Sda/Dda/Cda",')|
  7919                                  ;		"U", pOut('U EMV Sda/Dda/Cda",')|
  7920                                  ;		"V", pOut('V None & EMV Sda/Dda",')|
  7921                                  ;		"W", pOut('W EMV Sda/Dda",')|
  7922                                  ;		b, pOutLI, pOut('=Illegal code",')),
  7923                                  ;
  7924                                  ;	 pOut(0x0a, 0x09, 0x09, '"P4  Operating Environment"   : "'),
  7925                                  ;	(	"1", pOut('1 IPT",')|
  7926                                  ;		"2", pOut('2 OPT",')|
  7927                                  ;		"3", pOut('3 Dealer IPT",')|
  7928                                  ;		"4", pOut('4 Dealer OPT",')|
  7929                                  ;		b, pOutLI, pOut('=Illegal code",')),
  7930                                  ;
  7931                                  ;	 pOut(0x0a, 0x09, 0x09, '"P5  Card holder presence"    : "'),		
  7932                                  ;	(	"0", pOut('0 Card holder present",')|
  7933                                  ;		"1", pOut('1 Card holder not present",')|
  7934                                  ;		b, pOutLI, pOut('=Illegal code",')),
  7935                                  ;
  7936                                  ;	 pOut(0x0a, 0x09, 0x09, '"P6  Card presence"           : "'),
  7937                                  ;	(	"0", pOut('0 Card not present",')|
  7938                                  ;		"1", pOut('1 Card present",')|
  7939                                  ;		b, pOutLI, pOut('=Illegal code",')),
  7940                                  ;
  7941                                  ;	 pOut(0x0a, 0x09, 0x09, '"P7  Card data input mode"    : "'),
  7942                                  ;	(	"2", pOut('2 Magn used",')|
  7943                                  ;		"3", pOut('3 Bar code used",')|
  7944                                  ;		"5", pOut('5 Chip used",')|
  7945                                  ;		"6", pOut('6 Manual done",')|
  7946                                  ;		"A", pOut('A RFID used",')|
  7947                                  ;		"B", pOut('B Magn used",')|
  7948                                  ;		"C", pOut('C Chip used",')|
  7949                                  ;		"D", pOut('D Fall back magn used",')|
  7950                                  ;		b, pOutLI, pOut('Illegal code",')),
  7951                                  ;
  7952                                  ;	 pOut(0x0a, 0x09, 0x09, '"P8  Card holder auth method" : "'),		
  7953                                  ;	(	"0", pOut('0 CardHolderNotAuthenticated",')|
  7954                                  ;		"1", pOut('1 PIN used",')|
  7955                                  ;		"5", pOut('5 Signature used",')|
  7956                                  ;		"6", pOut('6 DriverLicense used",')|
  7957                                  ;		"9", pOut('9 EMV Pin for 2nd card",')|
  7958                                  ;		b, pOutLI, pOut('Illegal code",')),	
  7959                                  ;
  7960                                  ;	 pOut(0x0a, 0x09, 0x09, '"P9  Card holder auth entity" : "'),		
  7961                                  ;	(	"0", pOut('0 Card holder not authenticated",')|
  7962                                  ;		"1", pOut('1 Chip authorized Cardholder",')|
  7963                                  ;		"2", pOut('2 Terminal authorized",')|
  7964                                  ;		"3", pOut('3 Authorising agent used",')|
  7965                                  ;		"4", pOut('4 Merchant did auth",')|
  7966                                  ;		"5", pOut('5 Other auth",')|
  7967                                  ;		b, pOutLI, pOut('=Illegal code",')),
  7968                                  ;
  7969                                  ;	 pOut(0x0a, 0x09, 0x09, '"P10 CAD can update card"     : "'),		
  7970                                  ;	(	"0", pOut('0 Unknown",')|
  7971                                  ;		"1", pOut('1 CAD cannot update card",')|
  7972                                  ;		"2", pOut('2 CAD can update magstripe",')|
  7973                                  ;		"3", pOut('3 CAD can update chip",')|
  7974                                  ;		b, pOutLI, pOut('=Illegal code",')),
  7975                                  ;
  7976                                  ;	 pOut(0x0a, 0x09, 0x09, '"P11 POI output ability"      : "'),
  7977                                  ;	(	"0", pOut('0 Unknown",')|
  7978                                  ;		"1", pOut('1 None",')|
  7979                                  ;		"2", pOut('2 Print",')|
  7980                                  ;		"3", pOut('3 Display",')|
  7981                                  ;		"4", pOut('4 Print and display",')|
  7982                                  ;		"5", pOut('5 Special",')|
  7983                                  ;		b, pOutLI, pOut('=Illegal code",')),
  7984                                  ;
  7985                                  ;	 pOut(0x0a, 0x09, 0x09, '"P12 PIN capture capability"  : "'),		
  7986                                  ;	(	"0", pOut('None",')|
  7987                                  ;		"1", pOut('Unknown",')|
  7988                                  ;		"4", pOut('4 digit",')|
  7989                                  ;		"5", pOut('5 digit",')|
  7990                                  ;		"6", pOut('6 digit",')|
  7991                                  ;		"7", pOut('7 digit",')|
  7992                                  ;		"8", pOut('8 digit",')|
  7993                                  ;		"9", pOut('9 digit",')|
  7994                                  ;		"A", pOut('10 digit",')|
  7995                                  ;		"B", pOut('11 digit",')|
  7996                                  ;		"C", pOut('12 digit",')|
  7997                                  ;		b, pOutLI, pOut('Illegal code",')),	
  7998                                  ;	DropLastChar,
  7999                                  ;	pOut('},');
  8000                                  ;		
  8001                                  
  8002                                  ;xxxxxxxxxxxxxxxxxxxxxxxxxxxxxxxxxxxxxxxxxxxxxxxxxxxxxxxxxxxxxxxxxxxxxxxxxxxxxx
  8003                                  Bit24:
  8004 00006759 E8(00000000)            	call cPush
  8005 0000675E E8(00000000)            	call pIn
  8006 00006763 03313031                	 db 0x0003, "101"
  8007 00006767 4809C9                  	or rPOk, rPOk
  8008 0000676A 7502                    	jnz SD03F7
  8009 0000676C EB31                    	jmp SDEnd03F7
  8010                                  SD03F7:
  8011 0000676E E8(00000000)            	call pOut
  8012 00006773 2B4F726967696E616C-     	 db 0x2B, "Original authorization  amount estimated"
  8012 0000677C 20617574686F72697A-
  8012 00006785 6174696F6E20E28093-
  8012 0000678E 20616D6F756E742065-
  8012 00006797 7374696D61746564   
  8013                                  SDEnd03F7:
  8014 0000679F E305                    	jrcxz DL03F8
  8015 000067A1 E9ED060000              	jmp DLEnd03F8
  8016 000067A6 48FFC1                  DL03F8:	inc rcx
  8017 000067A9 E8(00000000)            	call cTop
  8018 000067AE E8(00000000)            	call pIn
  8019 000067B3 03313038                	 db 0x0003, "108"
  8020 000067B7 4809C9                  	or rPOk, rPOk
  8021 000067BA 7502                    	jnz SD03F9
  8022 000067BC EB0D                    	jmp SDEnd03F9
  8023                                  SD03F9:
  8024 000067BE E8(00000000)            	call pOut
  8025 000067C3 07496E7175697279        	 db 0x07, "Inquiry"
  8026                                  SDEnd03F9:
  8027 000067CB E305                    	jrcxz DL03FA
  8028 000067CD E9C1060000              	jmp DLEnd03F8
  8029 000067D2 48FFC1                  DL03FA:	inc rcx
  8030 000067D5 E8(00000000)            	call cTop
  8031 000067DA E8(00000000)            	call pIn
  8032 000067DF 03313831                	 db 0x0003, "181"
  8033 000067E3 4809C9                  	or rPOk, rPOk
  8034 000067E6 7502                    	jnz SD03FB
  8035 000067E8 EB40                    	jmp SDEnd03FB
  8036                                  SD03FB:
  8037 000067EA E8(00000000)            	call pOut
  8038 000067EF 3A4F726967696E616C-     	 db 0x3A, "Original authorization  amount estimated, 9100 from IPT"
  8038 000067F8 20617574686F72697A-
  8038 00006801 6174696F6E20E28093-
  8038 0000680A 20616D6F756E742065-
  8038 00006813 7374696D617465642C-
  8038 0000681C 20393130302066726F-
  8038 00006825 6D20495054         
  8039                                  SDEnd03FB:
  8040 0000682A E305                    	jrcxz DL03FC
  8041 0000682C E962060000              	jmp DLEnd03F8
  8042 00006831 48FFC1                  DL03FC:	inc rcx
  8043 00006834 E8(00000000)            	call cTop
  8044 00006839 E8(00000000)            	call pIn
  8045 0000683E 03313832                	 db 0x0003, "182"
  8046 00006842 4809C9                  	or rPOk, rPOk
  8047 00006845 7502                    	jnz SD03FD
  8048 00006847 EB40                    	jmp SDEnd03FD
  8049                                  SD03FD:
  8050 00006849 E8(00000000)            	call pOut
  8051 0000684E 3A4F726967696E616C-     	 db 0x3A, "Original authorization  amount known, 9100 from Oil FEP"
  8051 00006857 20617574686F72697A-
  8051 00006860 6174696F6E20E28093-
  8051 00006869 20616D6F756E74206B-
  8051 00006872 6E6F776E2C20393130-
  8051 0000687B 302066726F6D204F69-
  8051 00006884 6C20464550         
  8052                                  SDEnd03FD:
  8053 00006889 E305                    	jrcxz DL03FE
  8054 0000688B E903060000              	jmp DLEnd03F8
  8055 00006890 48FFC1                  DL03FE:	inc rcx
  8056 00006893 E8(00000000)            	call cTop
  8057 00006898 E8(00000000)            	call pIn
  8058 0000689D 03323030                	 db 0x0003, "200"
  8059 000068A1 4809C9                  	or rPOk, rPOk
  8060 000068A4 7502                    	jnz SD03FF
  8061 000068A6 EB64                    	jmp SDEnd03FF
  8062                                  SD03FF:
  8063 000068A8 E8(00000000)            	call pOut
  8064 000068AD 5E4F726967696E616C-     	 db 0x5E, "Original financial request/advice  1200 original request, 1220 standing-in for the Card Issuer"
  8064 000068B6 2066696E616E636961-
  8064 000068BF 6C2072657175657374-
  8064 000068C8 2F6164766963652020-
  8064 000068D1 31323030206F726967-
  8064 000068DA 696E616C2072657175-
  8064 000068E3 6573742C2031323230-
  8064 000068EC 207374616E64696E67-
  8064 000068F5 2D696E20666F722074-
  8064 000068FE 686520436172642049-
  8064 00006907 7373756572         
  8065                                  SDEnd03FF:
  8066 0000690C E305                    	jrcxz DL0400
  8067 0000690E E980050000              	jmp DLEnd03F8
  8068 00006913 48FFC1                  DL0400:	inc rcx
  8069 00006916 E8(00000000)            	call cTop
  8070 0000691B E8(00000000)            	call pIn
  8071 00006920 03323031                	 db 0x0003, "201"
  8072 00006924 4809C9                  	or rPOk, rPOk
  8073 00006927 7502                    	jnz SD0401
  8074 00006929 EB62                    	jmp SDEnd0401
  8075                                  SD0401:
  8076 0000692B E8(00000000)            	call pOut
  8077 00006930 5C50726576696F7573-     	 db 0x5C, "Previously approved authorization  amount the same (1220 previously authorised with 1100)"
  8077 00006939 6C7920617070726F76-
  8077 00006942 656420617574686F72-
  8077 0000694B 697A6174696F6E20E2-
  8077 00006954 809320616D6F756E74-
  8077 0000695D 207468652073616D65-
  8077 00006966 202831323230207072-
  8077 0000696F 6576696F75736C7920-
  8077 00006978 617574686F72697365-
  8077 00006981 642077697468203131-
  8077 0000698A 303029             
  8078                                  SDEnd0401:
  8079 0000698D E305                    	jrcxz DL0402
  8080 0000698F E9FF040000              	jmp DLEnd03F8
  8081 00006994 48FFC1                  DL0402:	inc rcx
  8082 00006997 E8(00000000)            	call cTop
  8083 0000699C E8(00000000)            	call pIn
  8084 000069A1 03323032                	 db 0x0003, "202"
  8085 000069A5 4809C9                  	or rPOk, rPOk
  8086 000069A8 7502                    	jnz SD0403
  8087 000069AA EB61                    	jmp SDEnd0403
  8088                                  SD0403:
  8089 000069AC E8(00000000)            	call pOut
  8090 000069B1 5B50726576696F7573-     	 db 0x5B, "Previously approved authorization  amount differs (1220 previously authorised with 1100)"
  8090 000069BA 6C7920617070726F76-
  8090 000069C3 656420617574686F72-
  8090 000069CC 697A6174696F6E20E2-
  8090 000069D5 809320616D6F756E74-
  8090 000069DE 206469666665727320-
  8090 000069E7 283132323020707265-
  8090 000069F0 76696F75736C792061-
  8090 000069F9 7574686F7269736564-
  8090 00006A02 207769746820313130-
  8090 00006A0B 3029               
  8091                                  SDEnd0403:
  8092 00006A0D E305                    	jrcxz DL0404
  8093 00006A0F E97F040000              	jmp DLEnd03F8
  8094 00006A14 48FFC1                  DL0404:	inc rcx
  8095 00006A17 E8(00000000)            	call cTop
  8096 00006A1C E8(00000000)            	call pIn
  8097 00006A21 03323831                	 db 0x0003, "281"
  8098 00006A25 4809C9                  	or rPOk, rPOk
  8099 00006A28 7502                    	jnz SD0405
  8100 00006A2A EB4B                    	jmp SDEnd0405
  8101                                  SD0405:
  8102 00006A2C E8(00000000)            	call pOut
  8103 00006A31 4550726576696F7573-     	 db 0x45, "Previously approved authorization  amount the same (1220 from IPT)"
  8103 00006A3A 6C7920617070726F76-
  8103 00006A43 656420617574686F72-
  8103 00006A4C 697A6174696F6E20E2-
  8103 00006A55 809320616D6F756E74-
  8103 00006A5E 207468652073616D65-
  8103 00006A67 202831323230206672-
  8103 00006A70 6F6D2049505429     
  8104                                  SDEnd0405:
  8105 00006A77 E305                    	jrcxz DL0406
  8106 00006A79 E915040000              	jmp DLEnd03F8
  8107 00006A7E 48FFC1                  DL0406:	inc rcx
  8108 00006A81 E8(00000000)            	call cTop
  8109 00006A86 E8(00000000)            	call pIn
  8110 00006A8B 03323832                	 db 0x0003, "282"
  8111 00006A8F 4809C9                  	or rPOk, rPOk
  8112 00006A92 7502                    	jnz SD0407
  8113 00006A94 EB4A                    	jmp SDEnd0407
  8114                                  SD0407:
  8115 00006A96 E8(00000000)            	call pOut
  8116 00006A9B 4450726576696F7573-     	 db 0x44, "Previously approved authorization  amount differs (1220 from IPT)"
  8116 00006AA4 6C7920617070726F76-
  8116 00006AAD 656420617574686F72-
  8116 00006AB6 697A6174696F6E20E2-
  8116 00006ABF 809320616D6F756E74-
  8116 00006AC8 206469666665727320-
  8116 00006AD1 28313232302066726F-
  8116 00006ADA 6D2049505429       
  8117                                  SDEnd0407:
  8118 00006AE0 E305                    	jrcxz DL0408
  8119 00006AE2 E9AC030000              	jmp DLEnd03F8
  8120 00006AE7 48FFC1                  DL0408:	inc rcx
  8121 00006AEA E8(00000000)            	call cTop
  8122 00006AEF E8(00000000)            	call pIn
  8123 00006AF4 03333031                	 db 0x0003, "301"
  8124 00006AF8 4809C9                  	or rPOk, rPOk
  8125 00006AFB 7502                    	jnz SD0409
  8126 00006AFD EB32                    	jmp SDEnd0409
  8127                                  SD0409:
  8128 00006AFF E8(00000000)            	call pOut
  8129 00006B04 2C416464207265636F-     	 db 0x2C, "Add record (Loyalty card link/wrong PIN used"
  8129 00006B0D 726420284C6F79616C-
  8129 00006B16 74792063617264206C-
  8129 00006B1F 696E6B2F77726F6E67-
  8129 00006B28 2050494E2075736564 
  8130                                  SDEnd0409:
  8131 00006B31 E305                    	jrcxz DL040A
  8132 00006B33 E95B030000              	jmp DLEnd03F8
  8133 00006B38 48FFC1                  DL040A:	inc rcx
  8134 00006B3B E8(00000000)            	call cTop
  8135 00006B40 E8(00000000)            	call pIn
  8136 00006B45 03333032                	 db 0x0003, "302"
  8137 00006B49 4809C9                  	or rPOk, rPOk
  8138 00006B4C 7502                    	jnz SD040B
  8139 00006B4E EB20                    	jmp SDEnd040B
  8140                                  SD040B:
  8141 00006B50 E8(00000000)            	call pOut
  8142 00006B55 1A4368616E67652072-     	 db 0x1A, "Change record (PIN change)"
  8142 00006B5E 65636F726420285049-
  8142 00006B67 4E206368616E676529 
  8143                                  SDEnd040B:
  8144 00006B70 E305                    	jrcxz DL040C
  8145 00006B72 E91C030000              	jmp DLEnd03F8
  8146 00006B77 48FFC1                  DL040C:	inc rcx
  8147 00006B7A E8(00000000)            	call cTop
  8148 00006B7F E8(00000000)            	call pIn
  8149 00006B84 03343030                	 db 0x0003, "400"
  8150 00006B88 4809C9                  	or rPOk, rPOk
  8151 00006B8B 7502                    	jnz SD040D
  8152 00006B8D EB3D                    	jmp SDEnd040D
  8153                                  SD040D:
  8154 00006B8F E8(00000000)            	call pOut
  8155 00006B94 3746756C6C20726576-     	 db 0x37, "Full reversal, transaction did not complete as approved"
  8155 00006B9D 657273616C2C207472-
  8155 00006BA6 616E73616374696F6E-
  8155 00006BAF 20646964206E6F7420-
  8155 00006BB8 636F6D706C65746520-
  8155 00006BC1 617320617070726F76-
  8155 00006BCA 6564               
  8156                                  SDEnd040D:
  8157 00006BCC E305                    	jrcxz DL040E
  8158 00006BCE E9C0020000              	jmp DLEnd03F8
  8159 00006BD3 48FFC1                  DL040E:	inc rcx
  8160 00006BD6 E8(00000000)            	call cTop
  8161 00006BDB E8(00000000)            	call pIn
  8162 00006BE0 03353030                	 db 0x0003, "500"
  8163 00006BE4 4809C9                  	or rPOk, rPOk
  8164 00006BE7 7502                    	jnz SD040F
  8165 00006BE9 EB1A                    	jmp SDEnd040F
  8166                                  SD040F:
  8167 00006BEB E8(00000000)            	call pOut
  8168 00006BF0 1446696E616C207265-     	 db 0x14, "Final reconciliation"
  8168 00006BF9 636F6E63696C696174-
  8168 00006C02 696F6E             
  8169                                  SDEnd040F:
  8170 00006C05 E305                    	jrcxz DL0410
  8171 00006C07 E987020000              	jmp DLEnd03F8
  8172 00006C0C 48FFC1                  DL0410:	inc rcx
  8173 00006C0F E8(00000000)            	call cTop
  8174 00006C14 E8(00000000)            	call pIn
  8175 00006C19 03353031                	 db 0x0003, "501"
  8176 00006C1D 4809C9                  	or rPOk, rPOk
  8177 00006C20 7502                    	jnz SD0411
  8178 00006C22 EB1E                    	jmp SDEnd0411
  8179                                  SD0411:
  8180 00006C24 E8(00000000)            	call pOut
  8181 00006C29 18436865636B706F69-     	 db 0x18, "Checkpoint reconciiation"
  8181 00006C32 6E74207265636F6E63-
  8181 00006C3B 69696174696F6E     
  8182                                  SDEnd0411:
  8183 00006C42 E305                    	jrcxz DL0412
  8184 00006C44 E94A020000              	jmp DLEnd03F8
  8185 00006C49 48FFC1                  DL0412:	inc rcx
  8186 00006C4C E8(00000000)            	call cTop
  8187 00006C51 E8(00000000)            	call pIn
  8188 00006C56 03353032                	 db 0x0003, "502"
  8189 00006C5A 4809C9                  	or rPOk, rPOk
  8190 00006C5D 7502                    	jnz SD0413
  8191 00006C5F EB31                    	jmp SDEnd0413
  8192                                  SD0413:
  8193 00006C61 E8(00000000)            	call pOut
  8194 00006C66 2B46696E616C207265-     	 db 0x2B, "Final reconciliation in a specific currency"
  8194 00006C6F 636F6E63696C696174-
  8194 00006C78 696F6E20696E206120-
  8194 00006C81 737065636966696320-
  8194 00006C8A 63757272656E6379   
  8195                                  SDEnd0413:
  8196 00006C92 E305                    	jrcxz DL0414
  8197 00006C94 E9FA010000              	jmp DLEnd03F8
  8198 00006C99 48FFC1                  DL0414:	inc rcx
  8199 00006C9C E8(00000000)            	call cTop
  8200 00006CA1 E8(00000000)            	call pIn
  8201 00006CA6 03353033                	 db 0x0003, "503"
  8202 00006CAA 4809C9                  	or rPOk, rPOk
  8203 00006CAD 7502                    	jnz SD0415
  8204 00006CAF EB36                    	jmp SDEnd0415
  8205                                  SD0415:
  8206 00006CB1 E8(00000000)            	call pOut
  8207 00006CB6 30436865636B706F69-     	 db 0x30, "Checkpoint deconciliation in a specific currency"
  8207 00006CBF 6E74206465636F6E63-
  8207 00006CC8 696C696174696F6E20-
  8207 00006CD1 696E20612073706563-
  8207 00006CDA 696669632063757272-
  8207 00006CE3 656E6379           
  8208                                  SDEnd0415:
  8209 00006CE7 E305                    	jrcxz DL0416
  8210 00006CE9 E9A5010000              	jmp DLEnd03F8
  8211 00006CEE 48FFC1                  DL0416:	inc rcx
  8212 00006CF1 E8(00000000)            	call cTop
  8213 00006CF6 E8(00000000)            	call pIn
  8214 00006CFB 03383031                	 db 0x0003, "801"
  8215 00006CFF 4809C9                  	or rPOk, rPOk
  8216 00006D02 7502                    	jnz SD0417
  8217 00006D04 EB1E                    	jmp SDEnd0417
  8218                                  SD0417:
  8219 00006D06 E8(00000000)            	call pOut
  8220 00006D0B 1853797374656D2063-     	 db 0x18, "System condition/sign-on"
  8220 00006D14 6F6E646974696F6E2F-
  8220 00006D1D 7369676E2D6F6E     
  8221                                  SDEnd0417:
  8222 00006D24 E305                    	jrcxz DL0418
  8223 00006D26 E968010000              	jmp DLEnd03F8
  8224 00006D2B 48FFC1                  DL0418:	inc rcx
  8225 00006D2E E8(00000000)            	call cTop
  8226 00006D33 E8(00000000)            	call pIn
  8227 00006D38 03383032                	 db 0x0003, "802"
  8228 00006D3C 4809C9                  	or rPOk, rPOk
  8229 00006D3F 7502                    	jnz SD0419
  8230 00006D41 EB1F                    	jmp SDEnd0419
  8231                                  SD0419:
  8232 00006D43 E8(00000000)            	call pOut
  8233 00006D48 1953797374656D2063-     	 db 0x19, "System condition/sign-off"
  8233 00006D51 6F6E646974696F6E2F-
  8233 00006D5A 7369676E2D6F6666   
  8234                                  SDEnd0419:
  8235 00006D62 E305                    	jrcxz DL041A
  8236 00006D64 E92A010000              	jmp DLEnd03F8
  8237 00006D69 48FFC1                  DL041A:	inc rcx
  8238 00006D6C E8(00000000)            	call cTop
  8239 00006D71 E8(00000000)            	call pIn
  8240 00006D76 03383131                	 db 0x0003, "811"
  8241 00006D7A 4809C9                  	or rPOk, rPOk
  8242 00006D7D 7502                    	jnz SD041B
  8243 00006D7F EB20                    	jmp SDEnd041B
  8244                                  SD041B:
  8245 00006D81 E8(00000000)            	call pOut
  8246 00006D86 1A53797374656D2073-     	 db 0x1A, "System security/key change"
  8246 00006D8F 656375726974792F6B-
  8246 00006D98 6579206368616E6765 
  8247                                  SDEnd041B:
  8248 00006DA1 E305                    	jrcxz DL041C
  8249 00006DA3 E9EB000000              	jmp DLEnd03F8
  8250 00006DA8 48FFC1                  DL041C:	inc rcx
  8251 00006DAB E8(00000000)            	call cTop
  8252 00006DB0 E8(00000000)            	call pIn
  8253 00006DB5 03383134                	 db 0x0003, "814"
  8254 00006DB9 4809C9                  	or rPOk, rPOk
  8255 00006DBC 7502                    	jnz SD041D
  8256 00006DBE EB42                    	jmp SDEnd041D
  8257                                  SD041D:
  8258 00006DC0 E8(00000000)            	call pOut
  8259 00006DC5 3C53797374656D2073-     	 db 0x3C, "System security/device authentication PIN Pad initialisation"
  8259 00006DCE 656375726974792F64-
  8259 00006DD7 657669636520617574-
  8259 00006DE0 68656E746963617469-
  8259 00006DE9 6F6E2050494E205061-
  8259 00006DF2 6420696E697469616C-
  8259 00006DFB 69736174696F6E     
  8260                                  SDEnd041D:
  8261 00006E02 E305                    	jrcxz DL041E
  8262 00006E04 E98A000000              	jmp DLEnd03F8
  8263 00006E09 48FFC1                  DL041E:	inc rcx
  8264 00006E0C E8(00000000)            	call cTop
  8265 00006E11 E8(00000000)            	call pIn
  8266 00006E16 03383331                	 db 0x0003, "831"
  8267 00006E1A 4809C9                  	or rPOk, rPOk
  8268 00006E1D 7502                    	jnz SD041F
  8269 00006E1F EB24                    	jmp SDEnd041F
  8270                                  SD041F:
  8271 00006E21 E8(00000000)            	call pOut
  8272 00006E26 1E53797374656D2061-     	 db 0x1E, "System audit control/echo test"
  8272 00006E2F 7564697420636F6E74-
  8272 00006E38 726F6C2F6563686F20-
  8272 00006E41 74657374           
  8273                                  SDEnd041F:
  8274 00006E45 E302                    	jrcxz DL0420
  8275 00006E47 EB4A                    	jmp DLEnd03F8
  8276 00006E49 48FFC1                  DL0420:	inc rcx
  8277 00006E4C E8(00000000)            	call cTop
  8278 00006E51 E8(00000000)            	call cPush
  8279 00006E56 41BD03000000            	mov rFactCnt, 3
  8280 00006E5C 4D09ED                  	or rFactCnt, rFactCnt
  8281 00006E5F 740E                    	jz FacEnd0421
  8282                                  FacRep0421:
  8283 00006E61 E8(00000000)            	call b
  8284 00006E66 49FFCD                  	dec rFactCnt
  8285 00006E69 E304                    	jrcxz FacEnd0421
  8286 00006E6B 7402                    	jz FacEnd0421
  8287 00006E6D EBF2                    	jmp FacRep0421
  8288                                  FacEnd0421:
  8289 00006E6F E8(00000000)            	call cDrop
  8290 00006E74 4809C9                  	or rPOk, rPOk
  8291 00006E77 7502                    	jnz SD0422
  8292 00006E79 EB18                    	jmp SDEnd0422
  8293                                  SD0422:
  8294 00006E7B E8(00000000)            	call pOut
  8295 00006E80 12556E6B6E6F776E20-     	 db 0x12, "Unknown IFSF code!"
  8295 00006E89 4946534620636F6465-
  8295 00006E92 21                 
  8296                                  SDEnd0422:
  8297                                  DLEnd03F8:
  8298 00006E93 E8(00000000)            	call cDrop
  8299 00006E98 C3                      	ret
  8300                                  
  8301                                  ;Bit24	=	/* Function code*/
  8302                                  ;		"101", pOut("Original authorization  amount estimated")|
  8303                                  ;		"108", pOut("Inquiry")|
  8304                                  ;		"181", pOut("Original authorization  amount estimated, 9100 from IPT")|
  8305                                  ;		"182", pOut("Original authorization  amount known, 9100 from Oil FEP")|
  8306                                  ;		"200", pOut("Original financial request/advice  1200 original request, 1220 standing-in for the Card Issuer")|
  8307                                  ;		"201", pOut("Previously approved authorization  amount the same (1220 previously authorised with 1100)")|
  8308                                  ;		"202", pOut("Previously approved authorization  amount differs (1220 previously authorised with 1100)")|
  8309                                  ;		"281", pOut("Previously approved authorization  amount the same (1220 from IPT)")|
  8310                                  ;		"282", pOut("Previously approved authorization  amount differs (1220 from IPT)")|
  8311                                  ;		"301", pOut("Add record (Loyalty card link/wrong PIN used")|
  8312                                  ;		"302", pOut("Change record (PIN change)")|
  8313                                  ;		"400", pOut("Full reversal, transaction did not complete as approved")|
  8314                                  ;		"500", pOut("Final reconciliation")|
  8315                                  ;		"501", pOut("Checkpoint reconciiation")|
  8316                                  ;		"502", pOut("Final reconciliation in a specific currency")|
  8317                                  ;		"503", pOut("Checkpoint deconciliation in a specific currency")|
  8318                                  ;		"801", pOut("System condition/sign-on")|
  8319                                  ;		"802", pOut("System condition/sign-off")|
  8320                                  ;		"811", pOut("System security/key change")|
  8321                                  ;		"814", pOut("System security/device authentication PIN Pad initialisation")|
  8322                                  ;		"831", pOut("System audit control/echo test")|
  8323                                  ;		(3*b), pOut("Unknown IFSF code!");
  8324                                  ;
  8325                                  
  8326                                  ;xxxxxxxxxxxxxxxxxxxxxxxxxxxxxxxxxxxxxxxxxxxxxxxxxxxxxxxxxxxxxxxxxxxxxxxxxxxxxx
  8327                                  Bit25:
  8328 00006E99 E8(00000000)            	call cPush
  8329 00006E9E E8(00000000)            	call pIn
  8330 00006EA3 0431303033              	 db 0x0004, "1003"
  8331 00006EA8 4809C9                  	or rPOk, rPOk
  8332 00006EAB 7502                    	jnz SD0423
  8333 00006EAD EB37                    	jmp SDEnd0423
  8334                                  SD0423:
  8335 00006EAF E8(00000000)            	call pOut
  8336 00006EB4 314361726420497373-     	 db 0x31, "Card Issuer unavailable (Use for FEP unavailable)"
  8336 00006EBD 75657220756E617661-
  8336 00006EC6 696C61626C65202855-
  8336 00006ECF 736520666F72204645-
  8336 00006ED8 5020756E617661696C-
  8336 00006EE1 61626C6529         
  8337                                  SDEnd0423:
  8338 00006EE6 E305                    	jrcxz DL0424
  8339 00006EE8 E9D80A0000              	jmp DLEnd0424
  8340 00006EED 48FFC1                  DL0424:	inc rcx
  8341 00006EF0 E8(00000000)            	call cTop
  8342 00006EF5 E8(00000000)            	call pIn
  8343 00006EFA 0431303034              	 db 0x0004, "1004"
  8344 00006EFF 4809C9                  	or rPOk, rPOk
  8345 00006F02 7502                    	jnz SD0425
  8346 00006F04 EB18                    	jmp SDEnd0425
  8347                                  SD0425:
  8348 00006F06 E8(00000000)            	call pOut
  8349 00006F0B 125465726D696E616C-     	 db 0x12, "Terminal Processed"
  8349 00006F14 2050726F6365737365-
  8349 00006F1D 64                 
  8350                                  SDEnd0425:
  8351 00006F1E E305                    	jrcxz DL0426
  8352 00006F20 E9A00A0000              	jmp DLEnd0424
  8353 00006F25 48FFC1                  DL0426:	inc rcx
  8354 00006F28 E8(00000000)            	call cTop
  8355 00006F2D E8(00000000)            	call pIn
  8356 00006F32 0431303035              	 db 0x0004, "1005"
  8357 00006F37 4809C9                  	or rPOk, rPOk
  8358 00006F3A 7502                    	jnz SD0427
  8359 00006F3C EB13                    	jmp SDEnd0427
  8360                                  SD0427:
  8361 00006F3E E8(00000000)            	call pOut
  8362 00006F43 0D4943432050726F63-     	 db 0x0D, "ICC Processed"
  8362 00006F4C 6573736564         
  8363                                  SDEnd0427:
  8364 00006F51 E305                    	jrcxz DL0428
  8365 00006F53 E96D0A0000              	jmp DLEnd0424
  8366 00006F58 48FFC1                  DL0428:	inc rcx
  8367 00006F5B E8(00000000)            	call cTop
  8368 00006F60 E8(00000000)            	call pIn
  8369 00006F65 0431303036              	 db 0x0004, "1006"
  8370 00006F6A 4809C9                  	or rPOk, rPOk
  8371 00006F6D 7502                    	jnz SD0429
  8372 00006F6F EB17                    	jmp SDEnd0429
  8373                                  SD0429:
  8374 00006F71 E8(00000000)            	call pOut
  8375 00006F76 11556E64657220666C-     	 db 0x11, "Under floor limit"
  8375 00006F7F 6F6F72206C696D6974 
  8376                                  SDEnd0429:
  8377 00006F88 E305                    	jrcxz DL042A
  8378 00006F8A E9360A0000              	jmp DLEnd0424
  8379 00006F8F 48FFC1                  DL042A:	inc rcx
  8380 00006F92 E8(00000000)            	call cTop
  8381 00006F97 E8(00000000)            	call pIn
  8382 00006F9C 0431303037              	 db 0x0004, "1007"
  8383 00006FA1 4809C9                  	or rPOk, rPOk
  8384 00006FA4 7502                    	jnz SD042B
  8385 00006FA6 EB32                    	jmp SDEnd042B
  8386                                  SD042B:
  8387 00006FA8 E8(00000000)            	call pOut
  8388 00006FAD 2C5374616E642D696E-     	 db 0x2C, "Stand-in processing at the acquirer's option"
  8388 00006FB6 2070726F6365737369-
  8388 00006FBF 6E6720617420746865-
  8388 00006FC8 206163717569726572-
  8388 00006FD1 2773206F7074696F6E 
  8389                                  SDEnd042B:
  8390 00006FDA E305                    	jrcxz DL042C
  8391 00006FDC E9E4090000              	jmp DLEnd0424
  8392 00006FE1 48FFC1                  DL042C:	inc rcx
  8393 00006FE4 E8(00000000)            	call cTop
  8394 00006FE9 E8(00000000)            	call pIn
  8395 00006FEE 0431333736              	 db 0x0004, "1376"
  8396 00006FF3 4809C9                  	or rPOk, rPOk
  8397 00006FF6 7502                    	jnz SD042D
  8398 00006FF8 EB61                    	jmp SDEnd042D
  8399                                  SD042D:
  8400 00006FFA E8(00000000)            	call pOut
  8401 00006FFF 5B526576657273616C-     	 db 0x5B, "Reversal from previous batch (Sent as refund because reversal from previous batch rejected)"
  8401 00007008 2066726F6D20707265-
  8401 00007011 76696F757320626174-
  8401 0000701A 6368202853656E7420-
  8401 00007023 617320726566756E64-
  8401 0000702C 206265636175736520-
  8401 00007035 726576657273616C20-
  8401 0000703E 66726F6D2070726576-
  8401 00007047 696F75732062617463-
  8401 00007050 682072656A65637465-
  8401 00007059 6429               
  8402                                  SDEnd042D:
  8403 0000705B E305                    	jrcxz DL042E
  8404 0000705D E963090000              	jmp DLEnd0424
  8405 00007062 48FFC1                  DL042E:	inc rcx
  8406 00007065 E8(00000000)            	call cTop
  8407 0000706A E8(00000000)            	call pIn
  8408 0000706F 0431333737              	 db 0x0004, "1377"
  8409 00007074 4809C9                  	or rPOk, rPOk
  8410 00007077 7502                    	jnz SD042F
  8411 00007079 EB2D                    	jmp SDEnd042F
  8412                                  SD042F:
  8413 0000707B E8(00000000)            	call pOut
  8414 00007080 274D616E75616C2076-     	 db 0x27, "Manual voucher processed (Punch bureau)"
  8414 00007089 6F7563686572207072-
  8414 00007092 6F6365737365642028-
  8414 0000709B 50756E636820627572-
  8414 000070A4 65617529           
  8415                                  SDEnd042F:
  8416 000070A8 E305                    	jrcxz DL0430
  8417 000070AA E916090000              	jmp DLEnd0424
  8418 000070AF 48FFC1                  DL0430:	inc rcx
  8419 000070B2 E8(00000000)            	call cTop
  8420 000070B7 E8(00000000)            	call pIn
  8421 000070BC 0433373030              	 db 0x0004, "3700"
  8422 000070C1 4809C9                  	or rPOk, rPOk
  8423 000070C4 7502                    	jnz SD0431
  8424 000070C6 EB2D                    	jmp SDEnd0431
  8425                                  SD0431:
  8426 000070C8 E8(00000000)            	call pOut
  8427 000070CD 27437573746F6D6572-     	 db 0x27, "Customer PIN Change  Private use in [1]"
  8427 000070D6 2050494E204368616E-
  8427 000070DF 676520205072697661-
  8427 000070E8 74652075736520696E-
  8427 000070F1 205B315D           
  8428                                  SDEnd0431:
  8429 000070F5 E305                    	jrcxz DL0432
  8430 000070F7 E9C9080000              	jmp DLEnd0424
  8431 000070FC 48FFC1                  DL0432:	inc rcx
  8432 000070FF E8(00000000)            	call cTop
  8433 00007104 E8(00000000)            	call pIn
  8434 00007109 0433373031              	 db 0x0004, "3701"
  8435 0000710E 4809C9                  	or rPOk, rPOk
  8436 00007111 7502                    	jnz SD0433
  8437 00007113 EB26                    	jmp SDEnd0433
  8438                                  SD0433:
  8439 00007115 E8(00000000)            	call pOut
  8440 0000711A 204C6F79616C747920-     	 db 0x20, "Loyalty Link  Private use in [1]"
  8440 00007123 4C696E6B2020507269-
  8440 0000712C 766174652075736520-
  8440 00007135 696E205B315D       
  8441                                  SDEnd0433:
  8442 0000713B E305                    	jrcxz DL0434
  8443 0000713D E983080000              	jmp DLEnd0424
  8444 00007142 48FFC1                  DL0434:	inc rcx
  8445 00007145 E8(00000000)            	call cTop
  8446 0000714A E8(00000000)            	call pIn
  8447 0000714F 0433373032              	 db 0x0004, "3702"
  8448 00007154 4809C9                  	or rPOk, rPOk
  8449 00007157 7502                    	jnz SD0435
  8450 00007159 EB34                    	jmp SDEnd0435
  8451                                  SD0435:
  8452 0000715B E8(00000000)            	call pOut
  8453 00007160 2E416476696365206F-     	 db 0x2E, "Advice of invalid PIN used  Private use in [1]"
  8453 00007169 6620696E76616C6964-
  8453 00007172 2050494E2075736564-
  8453 0000717B 202050726976617465-
  8453 00007184 2075736520696E205B-
  8453 0000718D 315D               
  8454                                  SDEnd0435:
  8455 0000718F E305                    	jrcxz DL0436
  8456 00007191 E92F080000              	jmp DLEnd0424
  8457 00007196 48FFC1                  DL0436:	inc rcx
  8458 00007199 E8(00000000)            	call cTop
  8459 0000719E E8(00000000)            	call pIn
  8460 000071A3 0431353030              	 db 0x0004, "1500"
  8461 000071A8 4809C9                  	or rPOk, rPOk
  8462 000071AB 7502                    	jnz SD0437
  8463 000071AD EB38                    	jmp SDEnd0437
  8464                                  SD0437:
  8465 000071AF E8(00000000)            	call pOut
  8466 000071B4 32494343206170706C-     	 db 0x32, "ICC application,common data file unable to process"
  8466 000071BD 69636174696F6E2C63-
  8466 000071C6 6F6D6D6F6E20646174-
  8466 000071CF 612066696C6520756E-
  8466 000071D8 61626C6520746F2070-
  8466 000071E1 726F63657373       
  8467                                  SDEnd0437:
  8468 000071E7 E305                    	jrcxz DL0438
  8469 000071E9 E9D7070000              	jmp DLEnd0424
  8470 000071EE 48FFC1                  DL0438:	inc rcx
  8471 000071F1 E8(00000000)            	call cTop
  8472 000071F6 E8(00000000)            	call pIn
  8473 000071FB 0431353031              	 db 0x0004, "1501"
  8474 00007200 4809C9                  	or rPOk, rPOk
  8475 00007203 7502                    	jnz SD0439
  8476 00007205 EB3D                    	jmp SDEnd0439
  8477                                  SD0439:
  8478 00007207 E8(00000000)            	call pOut
  8479 0000720C 37494343206170706C-     	 db 0x37, "ICC application,application data file unable to process"
  8479 00007215 69636174696F6E2C61-
  8479 0000721E 70706C69636174696F-
  8479 00007227 6E2064617461206669-
  8479 00007230 6C6520756E61626C65-
  8479 00007239 20746F2070726F6365-
  8479 00007242 7373               
  8480                                  SDEnd0439:
  8481 00007244 E305                    	jrcxz DL043A
  8482 00007246 E97A070000              	jmp DLEnd0424
  8483 0000724B 48FFC1                  DL043A:	inc rcx
  8484 0000724E E8(00000000)            	call cTop
  8485 00007253 E8(00000000)            	call pIn
  8486 00007258 0431353032              	 db 0x0004, "1502"
  8487 0000725D 4809C9                  	or rPOk, rPOk
  8488 00007260 7502                    	jnz SD043B
  8489 00007262 EB1A                    	jmp SDEnd043B
  8490                                  SD043B:
  8491 00007264 E8(00000000)            	call pOut
  8492 00007269 144943432072616E64-     	 db 0x14, "ICC random selection"
  8492 00007272 6F6D2073656C656374-
  8492 0000727B 696F6E             
  8493                                  SDEnd043B:
  8494 0000727E E305                    	jrcxz DL043C
  8495 00007280 E940070000              	jmp DLEnd0424
  8496 00007285 48FFC1                  DL043C:	inc rcx
  8497 00007288 E8(00000000)            	call cTop
  8498 0000728D E8(00000000)            	call pIn
  8499 00007292 0431353033              	 db 0x0004, "1503"
  8500 00007297 4809C9                  	or rPOk, rPOk
  8501 0000729A 7502                    	jnz SD043D
  8502 0000729C EB1F                    	jmp SDEnd043D
  8503                                  SD043D:
  8504 0000729E E8(00000000)            	call pOut
  8505 000072A3 195465726D696E616C-     	 db 0x19, "Terminal random selection"
  8505 000072AC 2072616E646F6D2073-
  8505 000072B5 656C656374696F6E   
  8506                                  SDEnd043D:
  8507 000072BD E305                    	jrcxz DL043E
  8508 000072BF E901070000              	jmp DLEnd0424
  8509 000072C4 48FFC1                  DL043E:	inc rcx
  8510 000072C7 E8(00000000)            	call cTop
  8511 000072CC E8(00000000)            	call pIn
  8512 000072D1 0431353034              	 db 0x0004, "1504"
  8513 000072D6 4809C9                  	or rPOk, rPOk
  8514 000072D9 7502                    	jnz SD043F
  8515 000072DB EB24                    	jmp SDEnd043F
  8516                                  SD043F:
  8517 000072DD E8(00000000)            	call pOut
  8518 000072E2 1E5465726D696E616C-     	 db 0x1E, "Terminal unable to process ICC"
  8518 000072EB 20756E61626C652074-
  8518 000072F4 6F2070726F63657373-
  8518 000072FD 20494343           
  8519                                  SDEnd043F:
  8520 00007301 E305                    	jrcxz DL0440
  8521 00007303 E9BD060000              	jmp DLEnd0424
  8522 00007308 48FFC1                  DL0440:	inc rcx
  8523 0000730B E8(00000000)            	call cTop
  8524 00007310 E8(00000000)            	call pIn
  8525 00007315 0431353035              	 db 0x0004, "1505"
  8526 0000731A 4809C9                  	or rPOk, rPOk
  8527 0000731D 7502                    	jnz SD0441
  8528 0000731F EB1B                    	jmp SDEnd0441
  8529                                  SD0441:
  8530 00007321 E8(00000000)            	call pOut
  8531 00007326 154F6E2D6C696E6520-     	 db 0x15, "On-line forced by ICC"
  8531 0000732F 666F72636564206279-
  8531 00007338 20494343           
  8532                                  SDEnd0441:
  8533 0000733C E305                    	jrcxz DL0442
  8534 0000733E E982060000              	jmp DLEnd0424
  8535 00007343 48FFC1                  DL0442:	inc rcx
  8536 00007346 E8(00000000)            	call cTop
  8537 0000734B E8(00000000)            	call pIn
  8538 00007350 0431353036              	 db 0x0004, "1506"
  8539 00007355 4809C9                  	or rPOk, rPOk
  8540 00007358 7502                    	jnz SD0443
  8541 0000735A EB23                    	jmp SDEnd0443
  8542                                  SD0443:
  8543 0000735C E8(00000000)            	call pOut
  8544 00007361 1D4F6E6C696E652066-     	 db 0x1D, "Online forced by card aceptor"
  8544 0000736A 6F7263656420627920-
  8544 00007373 636172642061636570-
  8544 0000737C 746F72             
  8545                                  SDEnd0443:
  8546 0000737F E305                    	jrcxz DL0444
  8547 00007381 E93F060000              	jmp DLEnd0424
  8548 00007386 48FFC1                  DL0444:	inc rcx
  8549 00007389 E8(00000000)            	call cTop
  8550 0000738E E8(00000000)            	call pIn
  8551 00007393 0431353037              	 db 0x0004, "1507"
  8552 00007398 4809C9                  	or rPOk, rPOk
  8553 0000739B 7502                    	jnz SD0445
  8554 0000739D EB28                    	jmp SDEnd0445
  8555                                  SD0445:
  8556 0000739F E8(00000000)            	call pOut
  8557 000073A4 224F6E6C696E652066-     	 db 0x22, "Online forced by CAD to be updated"
  8557 000073AD 6F7263656420627920-
  8557 000073B6 43414420746F206265-
  8557 000073BF 2075706461746564   
  8558                                  SDEnd0445:
  8559 000073C7 E305                    	jrcxz DL0446
  8560 000073C9 E9F7050000              	jmp DLEnd0424
  8561 000073CE 48FFC1                  DL0446:	inc rcx
  8562 000073D1 E8(00000000)            	call cTop
  8563 000073D6 E8(00000000)            	call pIn
  8564 000073DB 0431353038              	 db 0x0004, "1508"
  8565 000073E0 4809C9                  	or rPOk, rPOk
  8566 000073E3 7502                    	jnz SD0447
  8567 000073E5 EB20                    	jmp SDEnd0447
  8568                                  SD0447:
  8569 000073E7 E8(00000000)            	call pOut
  8570 000073EC 1A4F6E2D6C696E6520-     	 db 0x1A, "On-line forced by terminal"
  8570 000073F5 666F72636564206279-
  8570 000073FE 207465726D696E616C 
  8571                                  SDEnd0447:
  8572 00007407 E305                    	jrcxz DL0448
  8573 00007409 E9B7050000              	jmp DLEnd0424
  8574 0000740E 48FFC1                  DL0448:	inc rcx
  8575 00007411 E8(00000000)            	call cTop
  8576 00007416 E8(00000000)            	call pIn
  8577 0000741B 0431353039              	 db 0x0004, "1509"
  8578 00007420 4809C9                  	or rPOk, rPOk
  8579 00007423 7502                    	jnz SD0449
  8580 00007425 EB22                    	jmp SDEnd0449
  8581                                  SD0449:
  8582 00007427 E8(00000000)            	call pOut
  8583 0000742C 1C4F6E6C696E652066-     	 db 0x1C, "Online forced by card issuer"
  8583 00007435 6F7263656420627920-
  8583 0000743E 636172642069737375-
  8583 00007447 6572               
  8584                                  SDEnd0449:
  8585 00007449 E305                    	jrcxz DL044A
  8586 0000744B E975050000              	jmp DLEnd0424
  8587 00007450 48FFC1                  DL044A:	inc rcx
  8588 00007453 E8(00000000)            	call cTop
  8589 00007458 E8(00000000)            	call pIn
  8590 0000745D 0431353130              	 db 0x0004, "1510"
  8591 00007462 4809C9                  	or rPOk, rPOk
  8592 00007465 7502                    	jnz SD044B
  8593 00007467 EB16                    	jmp SDEnd044B
  8594                                  SD044B:
  8595 00007469 E8(00000000)            	call pOut
  8596 0000746E 104F76657220666C6F-     	 db 0x10, "Over floor limit"
  8596 00007477 6F72206C696D6974   
  8597                                  SDEnd044B:
  8598 0000747F E305                    	jrcxz DL044C
  8599 00007481 E93F050000              	jmp DLEnd0424
  8600 00007486 48FFC1                  DL044C:	inc rcx
  8601 00007489 E8(00000000)            	call cTop
  8602 0000748E E8(00000000)            	call pIn
  8603 00007493 0431353131              	 db 0x0004, "1511"
  8604 00007498 4809C9                  	or rPOk, rPOk
  8605 0000749B 7502                    	jnz SD044D
  8606 0000749D EB19                    	jmp SDEnd044D
  8607                                  SD044D:
  8608 0000749F E8(00000000)            	call pOut
  8609 000074A4 134D65726368616E74-     	 db 0x13, "Merchant suspicious"
  8609 000074AD 20737573706963696F-
  8609 000074B6 7573               
  8610                                  SDEnd044D:
  8611 000074B8 E305                    	jrcxz DL044E
  8612 000074BA E906050000              	jmp DLEnd0424
  8613 000074BF 48FFC1                  DL044E:	inc rcx
  8614 000074C2 E8(00000000)            	call cTop
  8615 000074C7 E8(00000000)            	call pIn
  8616 000074CC 0431373736              	 db 0x0004, "1776"
  8617 000074D1 4809C9                  	or rPOk, rPOk
  8618 000074D4 7505                    	jnz SD044F
  8619 000074D6 E996000000              	jmp SDEnd044F
  8620                                  SD044F:
  8621 000074DB E8(00000000)            	call pOut
  8622 000074E0 90504F53206F66666C-     	 db 0x90, "POS offline voice auth  Indicates request comes from Oil FEP and resulting approval codes will be used in separate 1220 transaction from the POS"
  8622 000074E9 696E6520766F696365-
  8622 000074F2 20617574682020496E-
  8622 000074FB 646963617465732072-
  8622 00007504 65717565737420636F-
  8622 0000750D 6D65732066726F6D20-
  8622 00007516 4F696C204645502061-
  8622 0000751F 6E6420726573756C74-
  8622 00007528 696E6720617070726F-
  8622 00007531 76616C20636F646573-
  8622 0000753A 2077696C6C20626520-
  8622 00007543 7573656420696E2073-
  8622 0000754C 657061726174652031-
  8622 00007555 323230207472616E73-
  8622 0000755E 616374696F6E206672-
  8622 00007567 6F6D2074686520504F-
  8622 00007570 53                 
  8623                                  SDEnd044F:
  8624 00007571 E305                    	jrcxz DL0450
  8625 00007573 E94D040000              	jmp DLEnd0424
  8626 00007578 48FFC1                  DL0450:	inc rcx
  8627 0000757B E8(00000000)            	call cTop
  8628 00007580 E8(00000000)            	call pIn
  8629 00007585 0433373030              	 db 0x0004, "3700"
  8630 0000758A 4809C9                  	or rPOk, rPOk
  8631 0000758D 7502                    	jnz SD0451
  8632 0000758F EB2D                    	jmp SDEnd0451
  8633                                  SD0451:
  8634 00007591 E8(00000000)            	call pOut
  8635 00007596 27437573746F6D6572-     	 db 0x27, "Customer PIN Change  Private use in [1]"
  8635 0000759F 2050494E204368616E-
  8635 000075A8 676520205072697661-
  8635 000075B1 74652075736520696E-
  8635 000075BA 205B315D           
  8636                                  SDEnd0451:
  8637 000075BE E305                    	jrcxz DL0452
  8638 000075C0 E900040000              	jmp DLEnd0424
  8639 000075C5 48FFC1                  DL0452:	inc rcx
  8640 000075C8 E8(00000000)            	call cTop
  8641 000075CD E8(00000000)            	call pIn
  8642 000075D2 0433373031              	 db 0x0004, "3701"
  8643 000075D7 4809C9                  	or rPOk, rPOk
  8644 000075DA 7502                    	jnz SD0453
  8645 000075DC EB26                    	jmp SDEnd0453
  8646                                  SD0453:
  8647 000075DE E8(00000000)            	call pOut
  8648 000075E3 204C6F79616C747920-     	 db 0x20, "Loyalty Link  Private use in [1]"
  8648 000075EC 4C696E6B2020507269-
  8648 000075F5 766174652075736520-
  8648 000075FE 696E205B315D       
  8649                                  SDEnd0453:
  8650 00007604 E305                    	jrcxz DL0454
  8651 00007606 E9BA030000              	jmp DLEnd0424
  8652 0000760B 48FFC1                  DL0454:	inc rcx
  8653 0000760E E8(00000000)            	call cTop
  8654 00007613 E8(00000000)            	call pIn
  8655 00007618 0433373032              	 db 0x0004, "3702"
  8656 0000761D 4809C9                  	or rPOk, rPOk
  8657 00007620 7502                    	jnz SD0455
  8658 00007622 EB34                    	jmp SDEnd0455
  8659                                  SD0455:
  8660 00007624 E8(00000000)            	call pOut
  8661 00007629 2E416476696365206F-     	 db 0x2E, "Advice of invalid PIN used  Private use in [1]"
  8661 00007632 6620696E76616C6964-
  8661 0000763B 2050494E2075736564-
  8661 00007644 202050726976617465-
  8661 0000764D 2075736520696E205B-
  8661 00007656 315D               
  8662                                  SDEnd0455:
  8663 00007658 E305                    	jrcxz DL0456
  8664 0000765A E966030000              	jmp DLEnd0424
  8665 0000765F 48FFC1                  DL0456:	inc rcx
  8666 00007662 E8(00000000)            	call cTop
  8667 00007667 E8(00000000)            	call pIn
  8668 0000766C 0434303030              	 db 0x0004, "4000"
  8669 00007671 4809C9                  	or rPOk, rPOk
  8670 00007674 7502                    	jnz SD0457
  8671 00007676 EB1B                    	jmp SDEnd0457
  8672                                  SD0457:
  8673 00007678 E8(00000000)            	call pOut
  8674 0000767D 15437573746F6D6572-     	 db 0x15, "Customer Cancellation"
  8674 00007686 2043616E63656C6C61-
  8674 0000768F 74696F6E           
  8675                                  SDEnd0457:
  8676 00007693 E305                    	jrcxz DL0458
  8677 00007695 E92B030000              	jmp DLEnd0424
  8678 0000769A 48FFC1                  DL0458:	inc rcx
  8679 0000769D E8(00000000)            	call cTop
  8680 000076A2 E8(00000000)            	call pIn
  8681 000076A7 0434303230              	 db 0x0004, "4020"
  8682 000076AC 4809C9                  	or rPOk, rPOk
  8683 000076AF 7502                    	jnz SD0459
  8684 000076B1 EB4D                    	jmp SDEnd0459
  8685                                  SD0459:
  8686 000076B3 E8(00000000)            	call pOut
  8687 000076B8 47496E76616C696420-     	 db 0x47, "Invalid Response, No action taken  Problem with the MAC on the response"
  8687 000076C1 526573706F6E73652C-
  8687 000076CA 204E6F20616374696F-
  8687 000076D3 6E2074616B656E2020-
  8687 000076DC 50726F626C656D2077-
  8687 000076E5 69746820746865204D-
  8687 000076EE 4143206F6E20746865-
  8687 000076F7 20726573706F6E7365 
  8688                                  SDEnd0459:
  8689 00007700 E305                    	jrcxz DL045A
  8690 00007702 E9BE020000              	jmp DLEnd0424
  8691 00007707 48FFC1                  DL045A:	inc rcx
  8692 0000770A E8(00000000)            	call cTop
  8693 0000770F E8(00000000)            	call pIn
  8694 00007714 0434303231              	 db 0x0004, "4021"
  8695 00007719 4809C9                  	or rPOk, rPOk
  8696 0000771C 7502                    	jnz SD045B
  8697 0000771E EB22                    	jmp SDEnd045B
  8698                                  SD045B:
  8699 00007720 E8(00000000)            	call pOut
  8700 00007725 1C54696D656F757420-     	 db 0x1C, "Timeout Waiting for response"
  8700 0000772E 57616974696E672066-
  8700 00007737 6F7220726573706F6E-
  8700 00007740 7365               
  8701                                  SDEnd045B:
  8702 00007742 E305                    	jrcxz DL045C
  8703 00007744 E97C020000              	jmp DLEnd0424
  8704 00007749 48FFC1                  DL045C:	inc rcx
  8705 0000774C E8(00000000)            	call cTop
  8706 00007751 E8(00000000)            	call pIn
  8707 00007756 0434333531              	 db 0x0004, "4351"
  8708 0000775B 4809C9                  	or rPOk, rPOk
  8709 0000775E 7502                    	jnz SD045D
  8710 00007760 EB3E                    	jmp SDEnd045D
  8711                                  SD045D:
  8712 00007762 E8(00000000)            	call pOut
  8713 00007767 3843616E63656C6C61-     	 db 0x38, "Cancellation  unmatched signature  Private use in [1]"
  8713 00007770 74696F6E20E2809320-
  8713 00007779 756E6D617463686564-
  8713 00007782 207369676E61747572-
  8713 0000778B 652020507269766174-
  8713 00007794 652075736520696E20-
  8713 0000779D 5B315D             
  8714                                  SDEnd045D:
  8715 000077A0 E305                    	jrcxz DL045E
  8716 000077A2 E91E020000              	jmp DLEnd0424
  8717 000077A7 48FFC1                  DL045E:	inc rcx
  8718 000077AA E8(00000000)            	call cTop
  8719 000077AF E8(00000000)            	call pIn
  8720 000077B4 0434333532              	 db 0x0004, "4352"
  8721 000077B9 4809C9                  	or rPOk, rPOk
  8722 000077BC 7502                    	jnz SD045F
  8723 000077BE EB33                    	jmp SDEnd045F
  8724                                  SD045F:
  8725 000077C0 E8(00000000)            	call pOut
  8726 000077C5 2D4361726420646563-     	 db 0x2D, "Card declined transaction  Private use in [1]"
  8726 000077CE 6C696E656420747261-
  8726 000077D7 6E73616374696F6E20-
  8726 000077E0 205072697661746520-
  8726 000077E9 75736520696E205B31-
  8726 000077F2 5D                 
  8727                                  SDEnd045F:
  8728 000077F3 E305                    	jrcxz DL0460
  8729 000077F5 E9CB010000              	jmp DLEnd0424
  8730 000077FA 48FFC1                  DL0460:	inc rcx
  8731 000077FD E8(00000000)            	call cTop
  8732 00007802 E8(00000000)            	call pIn
  8733 00007807 0434333533              	 db 0x0004, "4353"
  8734 0000780C 4809C9                  	or rPOk, rPOk
  8735 0000780F 7502                    	jnz SD0461
  8736 00007811 EB1E                    	jmp SDEnd0461
  8737                                  SD0461:
  8738 00007813 E8(00000000)            	call pOut
  8739 00007818 184572726F7220696E-     	 db 0x18, "Error in chip processing"
  8739 00007821 20636869702070726F-
  8739 0000782A 63657373696E67     
  8740                                  SDEnd0461:
  8741 00007831 E305                    	jrcxz DL0462
  8742 00007833 E98D010000              	jmp DLEnd0424
  8743 00007838 48FFC1                  DL0462:	inc rcx
  8744 0000783B E8(00000000)            	call cTop
  8745 00007840 E8(00000000)            	call pIn
  8746 00007845 0434333534              	 db 0x0004, "4354"
  8747 0000784A 4809C9                  	or rPOk, rPOk
  8748 0000784D 7502                    	jnz SD0463
  8749 0000784F EB12                    	jmp SDEnd0463
  8750                                  SD0463:
  8751 00007851 E8(00000000)            	call pOut
  8752 00007856 0C53797374656D2065-     	 db 0x0C, "System error"
  8752 0000785F 72726F72           
  8753                                  SDEnd0463:
  8754 00007863 E305                    	jrcxz DL0464
  8755 00007865 E95B010000              	jmp DLEnd0424
  8756 0000786A 48FFC1                  DL0464:	inc rcx
  8757 0000786D E8(00000000)            	call cTop
  8758 00007872 E8(00000000)            	call pIn
  8759 00007877 0438363031              	 db 0x0004, "8601"
  8760 0000787C 4809C9                  	or rPOk, rPOk
  8761 0000787F 7502                    	jnz SD0465
  8762 00007881 EB2D                    	jmp SDEnd0465
  8763                                  SD0465:
  8764 00007883 E8(00000000)            	call pOut
  8765 00007888 27436F6D6D756E6963-     	 db 0x27, "Communications Test  Private use in [1]"
  8765 00007891 6174696F6E73205465-
  8765 0000789A 737420205072697661-
  8765 000078A3 74652075736520696E-
  8765 000078AC 205B315D           
  8766                                  SDEnd0465:
  8767 000078B0 E305                    	jrcxz DL0466
  8768 000078B2 E90E010000              	jmp DLEnd0424
  8769 000078B7 48FFC1                  DL0466:	inc rcx
  8770 000078BA E8(00000000)            	call cTop
  8771 000078BF E8(00000000)            	call pIn
  8772 000078C4 0438363032              	 db 0x0004, "8602"
  8773 000078C9 4809C9                  	or rPOk, rPOk
  8774 000078CC 7502                    	jnz SD0467
  8775 000078CE EB26                    	jmp SDEnd0467
  8776                                  SD0467:
  8777 000078D0 E8(00000000)            	call pOut
  8778 000078D5 204B65792045786368-     	 db 0x20, "Key Exchange  Private use in [1]"
  8778 000078DE 616E67652020507269-
  8778 000078E7 766174652075736520-
  8778 000078F0 696E205B315D       
  8779                                  SDEnd0467:
  8780 000078F6 E305                    	jrcxz DL0468
  8781 000078F8 E9C8000000              	jmp DLEnd0424
  8782 000078FD 48FFC1                  DL0468:	inc rcx
  8783 00007900 E8(00000000)            	call cTop
  8784 00007905 E8(00000000)            	call pIn
  8785 0000790A 0438363033              	 db 0x0004, "8603"
  8786 0000790F 4809C9                  	or rPOk, rPOk
  8787 00007912 7502                    	jnz SD0469
  8788 00007914 EB20                    	jmp SDEnd0469
  8789                                  SD0469:
  8790 00007916 E8(00000000)            	call pOut
  8791 0000791B 1A4C6F67206F6E2020-     	 db 0x1A, "Log on  Private use in [1]"
  8791 00007924 507269766174652075-
  8791 0000792D 736520696E205B315D 
  8792                                  SDEnd0469:
  8793 00007936 E305                    	jrcxz DL046A
  8794 00007938 E988000000              	jmp DLEnd0424
  8795 0000793D 48FFC1                  DL046A:	inc rcx
  8796 00007940 E8(00000000)            	call cTop
  8797 00007945 E8(00000000)            	call pIn
  8798 0000794A 0438363034              	 db 0x0004, "8604"
  8799 0000794F 4809C9                  	or rPOk, rPOk
  8800 00007952 7502                    	jnz SD046B
  8801 00007954 EB21                    	jmp SDEnd046B
  8802                                  SD046B:
  8803 00007956 E8(00000000)            	call pOut
  8804 0000795B 1B4C6F67206F666620-     	 db 0x1B, "Log off  Private use in [1]"
  8804 00007964 205072697661746520-
  8804 0000796D 75736520696E205B31-
  8804 00007976 5D                 
  8805                                  SDEnd046B:
  8806 00007977 E302                    	jrcxz DL046C
  8807 00007979 EB4A                    	jmp DLEnd0424
  8808 0000797B 48FFC1                  DL046C:	inc rcx
  8809 0000797E E8(00000000)            	call cTop
  8810 00007983 E8(00000000)            	call cPush
  8811 00007988 41BD04000000            	mov rFactCnt, 4
  8812 0000798E 4D09ED                  	or rFactCnt, rFactCnt
  8813 00007991 740E                    	jz FacEnd046D
  8814                                  FacRep046D:
  8815 00007993 E8(00000000)            	call b
  8816 00007998 49FFCD                  	dec rFactCnt
  8817 0000799B E304                    	jrcxz FacEnd046D
  8818 0000799D 7402                    	jz FacEnd046D
  8819 0000799F EBF2                    	jmp FacRep046D
  8820                                  FacEnd046D:
  8821 000079A1 E8(00000000)            	call cDrop
  8822 000079A6 4809C9                  	or rPOk, rPOk
  8823 000079A9 7502                    	jnz SD046E
  8824 000079AB EB18                    	jmp SDEnd046E
  8825                                  SD046E:
  8826 000079AD E8(00000000)            	call pOut
  8827 000079B2 12556E6B6E6F776E20-     	 db 0x12, "Unknown IFSF code!"
  8827 000079BB 4946534620636F6465-
  8827 000079C4 21                 
  8828                                  SDEnd046E:
  8829                                  DLEnd0424:
  8830 000079C5 E8(00000000)            	call cDrop
  8831 000079CA C3                      	ret
  8832                                  
  8833                                  ;Bit25 = 	"1003", pOut("Card Issuer unavailable (Use for FEP unavailable)")|
  8834                                  ;		"1004", pOut("Terminal Processed")|
  8835                                  ;		"1005", pOut("ICC Processed")|
  8836                                  ;		"1006", pOut("Under floor limit")|
  8837                                  ;		"1007", pOut("Stand-in processing at the acquirer's option")|
  8838                                  ;		"1376", pOut("Reversal from previous batch (Sent as refund because reversal from previous batch rejected)")|
  8839                                  ;		"1377", pOut("Manual voucher processed (Punch bureau)")|
  8840                                  ;		"3700", pOut("Customer PIN Change  Private use in [1]")|
  8841                                  ;		"3701", pOut("Loyalty Link  Private use in [1]")|
  8842                                  ;		"3702", pOut("Advice of invalid PIN used  Private use in [1]")|
  8843                                  ;		"1500", pOut("ICC application,common data file unable to process")|
  8844                                  ;		"1501", pOut("ICC application,application data file unable to process")|
  8845                                  ;		"1502", pOut("ICC random selection")|
  8846                                  ;		"1503", pOut("Terminal random selection")|
  8847                                  ;		"1504", pOut("Terminal unable to process ICC")|
  8848                                  ;		"1505", pOut("On-line forced by ICC")|
  8849                                  ;		"1506", pOut("Online forced by card aceptor")|
  8850                                  ;		"1507", pOut("Online forced by CAD to be updated")|
  8851                                  ;		"1508", pOut("On-line forced by terminal")|
  8852                                  ;		"1509", pOut("Online forced by card issuer")|
  8853                                  ;		"1510", pOut("Over floor limit")|
  8854                                  ;		"1511", pOut("Merchant suspicious")|
  8855                                  ;		"1776", pOut("POS offline voice auth  Indicates request comes from Oil FEP and resulting approval codes will be used in separate 1220 transaction from the POS")|
  8856                                  ;		"3700", pOut("Customer PIN Change  Private use in [1]")|
  8857                                  ;		"3701", pOut("Loyalty Link  Private use in [1]")|
  8858                                  ;		"3702", pOut("Advice of invalid PIN used  Private use in [1]")|
  8859                                  ;		"4000", pOut("Customer Cancellation")|
  8860                                  ;		"4020", pOut("Invalid Response, No action taken  Problem with the MAC on the response")|
  8861                                  ;		"4021", pOut("Timeout Waiting for response")|
  8862                                  ;		"4351", pOut("Cancellation  unmatched signature  Private use in [1]")|
  8863                                  ;		"4352", pOut("Card declined transaction  Private use in [1]")|
  8864                                  ;		"4353", pOut("Error in chip processing")|
  8865                                  ;		"4354", pOut("System error")|
  8866                                  ;		"8601", pOut("Communications Test  Private use in [1]")|
  8867                                  ;		"8602", pOut("Key Exchange  Private use in [1]")|
  8868                                  ;		"8603", pOut("Log on  Private use in [1]")|
  8869                                  ;		"8604", pOut("Log off  Private use in [1]")|
  8870                                  ;		(4*b), pOut("Unknown IFSF code!");
  8871                                  ;
  8872                                  
  8873                                  ;xxxxxxxxxxxxxxxxxxxxxxxxxxxxxxxxxxxxxxxxxxxxxxxxxxxxxxxxxxxxxxxxxxxxxxxxxxxxxx
  8874                                  Bit26:
  8875 000079CB E8(00000000)            	call cPush
  8876 000079D0 E8(00000000)            	call pIn
  8877 000079D5 0435313433              	 db 0x0004, "5143"
  8878 000079DA 4809C9                  	or rPOk, rPOk
  8879 000079DD 7502                    	jnz SD046F
  8880 000079DF EB2A                    	jmp SDEnd046F
  8881                                  SD046F:
  8882 000079E1 E8(00000000)            	call pOut
  8883 000079E6 244D6F746F72207665-     	 db 0x24, "Motor vehicle supplies and new parts"
  8883 000079EF 6869636C6520737570-
  8883 000079F8 706C69657320616E64-
  8883 00007A01 206E65772070617274-
  8883 00007A0A 73                 
  8884                                  SDEnd046F:
  8885 00007A0B E305                    	jrcxz DL0470
  8886 00007A0D E96E040000              	jmp DLEnd0470
  8887 00007A12 48FFC1                  DL0470:	inc rcx
  8888 00007A15 E8(00000000)            	call cTop
  8889 00007A1A E8(00000000)            	call pIn
  8890 00007A1F 0435313732              	 db 0x0004, "5172"
  8891 00007A24 4809C9                  	or rPOk, rPOk
  8892 00007A27 7502                    	jnz SD0471
  8893 00007A29 EB26                    	jmp SDEnd0471
  8894                                  SD0471:
  8895 00007A2B E8(00000000)            	call pOut
  8896 00007A30 20506574726F6C6575-     	 db 0x20, "Petroleum and petroleum products"
  8896 00007A39 6D20616E6420706574-
  8896 00007A42 726F6C65756D207072-
  8896 00007A4B 6F6475637473       
  8897                                  SDEnd0471:
  8898 00007A51 E305                    	jrcxz DL0472
  8899 00007A53 E928040000              	jmp DLEnd0470
  8900 00007A58 48FFC1                  DL0472:	inc rcx
  8901 00007A5B E8(00000000)            	call cTop
  8902 00007A60 E8(00000000)            	call pIn
  8903 00007A65 0435343939              	 db 0x0004, "5499"
  8904 00007A6A 4809C9                  	or rPOk, rPOk
  8905 00007A6D 7502                    	jnz SD0473
  8906 00007A6F EB18                    	jmp SDEnd0473
  8907                                  SD0473:
  8908 00007A71 E8(00000000)            	call pOut
  8909 00007A76 12436F6E76656E6965-     	 db 0x12, "Convenience stores"
  8909 00007A7F 6E63652073746F7265-
  8909 00007A88 73                 
  8910                                  SDEnd0473:
  8911 00007A89 E305                    	jrcxz DL0474
  8912 00007A8B E9F0030000              	jmp DLEnd0470
  8913 00007A90 48FFC1                  DL0474:	inc rcx
  8914 00007A93 E8(00000000)            	call cTop
  8915 00007A98 E8(00000000)            	call pIn
  8916 00007A9D 0435353431              	 db 0x0004, "5541"
  8917 00007AA2 4809C9                  	or rPOk, rPOk
  8918 00007AA5 7502                    	jnz SD0475
  8919 00007AA7 EB15                    	jmp SDEnd0475
  8920                                  SD0475:
  8921 00007AA9 E8(00000000)            	call pOut
  8922 00007AAE 0F5365727669636520-     	 db 0x0F, "Service station"
  8922 00007AB7 73746174696F6E     
  8923                                  SDEnd0475:
  8924 00007ABE E305                    	jrcxz DL0476
  8925 00007AC0 E9BB030000              	jmp DLEnd0470
  8926 00007AC5 48FFC1                  DL0476:	inc rcx
  8927 00007AC8 E8(00000000)            	call cTop
  8928 00007ACD E8(00000000)            	call pIn
  8929 00007AD2 0435353432              	 db 0x0004, "5542"
  8930 00007AD7 4809C9                  	or rPOk, rPOk
  8931 00007ADA 7502                    	jnz SD0477
  8932 00007ADC EB36                    	jmp SDEnd0477
  8933                                  SD0477:
  8934 00007ADE E8(00000000)            	call pOut
  8935 00007AE3 305365727669636520-     	 db 0x30, "Service station outdoor (Worldline WAP protocol)"
  8935 00007AEC 73746174696F6E206F-
  8935 00007AF5 7574646F6F72202857-
  8935 00007AFE 6F726C646C696E6520-
  8935 00007B07 5741502070726F746F-
  8935 00007B10 636F6C29           
  8936                                  SDEnd0477:
  8937 00007B14 E305                    	jrcxz DL0478
  8938 00007B16 E965030000              	jmp DLEnd0470
  8939 00007B1B 48FFC1                  DL0478:	inc rcx
  8940 00007B1E E8(00000000)            	call cTop
  8941 00007B23 E8(00000000)            	call pIn
  8942 00007B28 0434343638              	 db 0x0004, "4468"
  8943 00007B2D 4809C9                  	or rPOk, rPOk
  8944 00007B30 7502                    	jnz SD0479
  8945 00007B32 EB26                    	jmp SDEnd0479
  8946                                  SD0479:
  8947 00007B34 E8(00000000)            	call pOut
  8948 00007B39 204D6172696E61732C-     	 db 0x20, "Marinas, marine service-supplies"
  8948 00007B42 206D6172696E652073-
  8948 00007B4B 6572766963652D7375-
  8948 00007B54 70706C696573       
  8949                                  SDEnd0479:
  8950 00007B5A E305                    	jrcxz DL047A
  8951 00007B5C E91F030000              	jmp DLEnd0470
  8952 00007B61 48FFC1                  DL047A:	inc rcx
  8953 00007B64 E8(00000000)            	call cTop
  8954 00007B69 E8(00000000)            	call pIn
  8955 00007B6E 0434353832              	 db 0x0004, "4582"
  8956 00007B73 4809C9                  	or rPOk, rPOk
  8957 00007B76 7502                    	jnz SD047B
  8958 00007B78 EB30                    	jmp SDEnd047B
  8959                                  SD047B:
  8960 00007B7A E8(00000000)            	call pOut
  8961 00007B7F 2A416972706F727473-     	 db 0x2A, "Airports, flying fields, airport terminals"
  8961 00007B88 2C20666C79696E6720-
  8961 00007B91 6669656C64732C2061-
  8961 00007B9A 6972706F7274207465-
  8961 00007BA3 726D696E616C73     
  8962                                  SDEnd047B:
  8963 00007BAA E305                    	jrcxz DL047C
  8964 00007BAC E9CF020000              	jmp DLEnd0470
  8965 00007BB1 48FFC1                  DL047C:	inc rcx
  8966 00007BB4 E8(00000000)            	call cTop
  8967 00007BB9 E8(00000000)            	call pIn
  8968 00007BBE 0434373834              	 db 0x0004, "4784"
  8969 00007BC3 4809C9                  	or rPOk, rPOk
  8970 00007BC6 7502                    	jnz SD047D
  8971 00007BC8 EB18                    	jmp SDEnd047D
  8972                                  SD047D:
  8973 00007BCA E8(00000000)            	call pOut
  8974 00007BCF 12546F6C6C732C2062-     	 db 0x12, "Tolls, bridge fees"
  8974 00007BD8 726964676520666565-
  8974 00007BE1 73                 
  8975                                  SDEnd047D:
  8976 00007BE2 E305                    	jrcxz DL047E
  8977 00007BE4 E997020000              	jmp DLEnd0470
  8978 00007BE9 48FFC1                  DL047E:	inc rcx
  8979 00007BEC E8(00000000)            	call cTop
  8980 00007BF1 E8(00000000)            	call pIn
  8981 00007BF6 0435353332              	 db 0x0004, "5532"
  8982 00007BFB 4809C9                  	or rPOk, rPOk
  8983 00007BFE 7502                    	jnz SD047F
  8984 00007C00 EB1C                    	jmp SDEnd047F
  8985                                  SD047F:
  8986 00007C02 E8(00000000)            	call pOut
  8987 00007C07 164175746F6D6F7469-     	 db 0x16, "Automotive tyre stores"
  8987 00007C10 766520747972652073-
  8987 00007C19 746F726573         
  8988                                  SDEnd047F:
  8989 00007C1E E305                    	jrcxz DL0480
  8990 00007C20 E95B020000              	jmp DLEnd0470
  8991 00007C25 48FFC1                  DL0480:	inc rcx
  8992 00007C28 E8(00000000)            	call cTop
  8993 00007C2D E8(00000000)            	call pIn
  8994 00007C32 0435353333              	 db 0x0004, "5533"
  8995 00007C37 4809C9                  	or rPOk, rPOk
  8996 00007C3A 7502                    	jnz SD0481
  8997 00007C3C EB2A                    	jmp SDEnd0481
  8998                                  SD0481:
  8999 00007C3E E8(00000000)            	call pOut
  9000 00007C43 244175746F6D6F7469-     	 db 0x24, "Automotive parts, accessories stores"
  9000 00007C4C 76652070617274732C-
  9000 00007C55 206163636573736F72-
  9000 00007C5E 6965732073746F7265-
  9000 00007C67 73                 
  9001                                  SDEnd0481:
  9002 00007C68 E305                    	jrcxz DL0482
  9003 00007C6A E911020000              	jmp DLEnd0470
  9004 00007C6F 48FFC1                  DL0482:	inc rcx
  9005 00007C72 E8(00000000)            	call cTop
  9006 00007C77 E8(00000000)            	call pIn
  9007 00007C7C 0435353432              	 db 0x0004, "5542"
  9008 00007C81 4809C9                  	or rPOk, rPOk
  9009 00007C84 7502                    	jnz SD0483
  9010 00007C86 EB22                    	jmp SDEnd0483
  9011                                  SD0483:
  9012 00007C88 E8(00000000)            	call pOut
  9013 00007C8D 1C4175746F6D617465-     	 db 0x1C, "Automated gasoline dispenser"
  9013 00007C96 64206761736F6C696E-
  9013 00007C9F 652064697370656E73-
  9013 00007CA8 6572               
  9014                                  SDEnd0483:
  9015 00007CAA E305                    	jrcxz DL0484
  9016 00007CAC E9CF010000              	jmp DLEnd0470
  9017 00007CB1 48FFC1                  DL0484:	inc rcx
  9018 00007CB4 E8(00000000)            	call cTop
  9019 00007CB9 E8(00000000)            	call pIn
  9020 00007CBE 0435383132              	 db 0x0004, "5812"
  9021 00007CC3 4809C9                  	or rPOk, rPOk
  9022 00007CC6 7502                    	jnz SD0485
  9023 00007CC8 EB20                    	jmp SDEnd0485
  9024                                  SD0485:
  9025 00007CCA E8(00000000)            	call pOut
  9026 00007CCF 1A456174696E672070-     	 db 0x1A, "Eating places, restaurants"
  9026 00007CD8 6C616365732C207265-
  9026 00007CE1 7374617572616E7473 
  9027                                  SDEnd0485:
  9028 00007CEA E305                    	jrcxz DL0486
  9029 00007CEC E98F010000              	jmp DLEnd0470
  9030 00007CF1 48FFC1                  DL0486:	inc rcx
  9031 00007CF4 E8(00000000)            	call cTop
  9032 00007CF9 E8(00000000)            	call pIn
  9033 00007CFE 0435383134              	 db 0x0004, "5814"
  9034 00007D03 4809C9                  	or rPOk, rPOk
  9035 00007D06 7502                    	jnz SD0487
  9036 00007D08 EB1B                    	jmp SDEnd0487
  9037                                  SD0487:
  9038 00007D0A E8(00000000)            	call pOut
  9039 00007D0F 154661737420666F6F-     	 db 0x15, "Fast food restaurants"
  9039 00007D18 642072657374617572-
  9039 00007D21 616E7473           
  9040                                  SDEnd0487:
  9041 00007D25 E305                    	jrcxz DL0488
  9042 00007D27 E954010000              	jmp DLEnd0470
  9043 00007D2C 48FFC1                  DL0488:	inc rcx
  9044 00007D2F E8(00000000)            	call cTop
  9045 00007D34 E8(00000000)            	call pIn
  9046 00007D39 0435393833              	 db 0x0004, "5983"
  9047 00007D3E 4809C9                  	or rPOk, rPOk
  9048 00007D41 7502                    	jnz SD0489
  9049 00007D43 EB3E                    	jmp SDEnd0489
  9050                                  SD0489:
  9051 00007D45 E8(00000000)            	call pOut
  9052 00007D4A 384675656C20446561-     	 db 0x38, "Fuel Dealers - Coal, Fuel Oil, Liquefied Petroleum, Wood"
  9052 00007D53 6C657273202D20436F-
  9052 00007D5C 616C2C204675656C20-
  9052 00007D65 4F696C2C204C697175-
  9052 00007D6E 656669656420506574-
  9052 00007D77 726F6C65756D2C2057-
  9052 00007D80 6F6F64             
  9053                                  SDEnd0489:
  9054 00007D83 E305                    	jrcxz DL048A
  9055 00007D85 E9F6000000              	jmp DLEnd0470
  9056 00007D8A 48FFC1                  DL048A:	inc rcx
  9057 00007D8D E8(00000000)            	call cTop
  9058 00007D92 E8(00000000)            	call pIn
  9059 00007D97 0437353233              	 db 0x0004, "7523"
  9060 00007D9C 4809C9                  	or rPOk, rPOk
  9061 00007D9F 7502                    	jnz SD048B
  9062 00007DA1 EB29                    	jmp SDEnd048B
  9063                                  SD048B:
  9064 00007DA3 E8(00000000)            	call pOut
  9065 00007DA8 234175746F6D6F6269-     	 db 0x23, "Automobile parking lots and garages"
  9065 00007DB1 6C65207061726B696E-
  9065 00007DBA 67206C6F747320616E-
  9065 00007DC3 642067617261676573 
  9066                                  SDEnd048B:
  9067 00007DCC E305                    	jrcxz DL048C
  9068 00007DCE E9AD000000              	jmp DLEnd0470
  9069 00007DD3 48FFC1                  DL048C:	inc rcx
  9070 00007DD6 E8(00000000)            	call cTop
  9071 00007DDB E8(00000000)            	call pIn
  9072 00007DE0 0437383431              	 db 0x0004, "7841"
  9073 00007DE5 4809C9                  	or rPOk, rPOk
  9074 00007DE8 7502                    	jnz SD048D
  9075 00007DEA EB19                    	jmp SDEnd048D
  9076                                  SD048D:
  9077 00007DEC E8(00000000)            	call pOut
  9078 00007DF1 13566964656F207265-     	 db 0x13, "Video rental stores"
  9078 00007DFA 6E74616C2073746F72-
  9078 00007E03 6573               
  9079                                  SDEnd048D:
  9080 00007E05 E302                    	jrcxz DL048E
  9081 00007E07 EB77                    	jmp DLEnd0470
  9082 00007E09 48FFC1                  DL048E:	inc rcx
  9083 00007E0C E8(00000000)            	call cTop
  9084 00007E11 E8(00000000)            	call pIn
  9085 00007E16 0437353432              	 db 0x0004, "7542"
  9086 00007E1B 4809C9                  	or rPOk, rPOk
  9087 00007E1E 7502                    	jnz SD048F
  9088 00007E20 EB10                    	jmp SDEnd048F
  9089                                  SD048F:
  9090 00007E22 E8(00000000)            	call pOut
  9091 00007E27 0A4361722077617368-     	 db 0x0A, "Car washes"
  9091 00007E30 6573               
  9092                                  SDEnd048F:
  9093 00007E32 E302                    	jrcxz DL0490
  9094 00007E34 EB4A                    	jmp DLEnd0470
  9095 00007E36 48FFC1                  DL0490:	inc rcx
  9096 00007E39 E8(00000000)            	call cTop
  9097 00007E3E E8(00000000)            	call cPush
  9098 00007E43 41BD04000000            	mov rFactCnt, 4
  9099 00007E49 4D09ED                  	or rFactCnt, rFactCnt
  9100 00007E4C 740E                    	jz FacEnd0491
  9101                                  FacRep0491:
  9102 00007E4E E8(00000000)            	call b
  9103 00007E53 49FFCD                  	dec rFactCnt
  9104 00007E56 E304                    	jrcxz FacEnd0491
  9105 00007E58 7402                    	jz FacEnd0491
  9106 00007E5A EBF2                    	jmp FacRep0491
  9107                                  FacEnd0491:
  9108 00007E5C E8(00000000)            	call cDrop
  9109 00007E61 4809C9                  	or rPOk, rPOk
  9110 00007E64 7502                    	jnz SD0492
  9111 00007E66 EB18                    	jmp SDEnd0492
  9112                                  SD0492:
  9113 00007E68 E8(00000000)            	call pOut
  9114 00007E6D 12556E6B6E6F776E20-     	 db 0x12, "Unknown IFSF code!"
  9114 00007E76 4946534620636F6465-
  9114 00007E7F 21                 
  9115                                  SDEnd0492:
  9116                                  DLEnd0470:
  9117 00007E80 E8(00000000)            	call cDrop
  9118 00007E85 C3                      	ret
  9119                                  
  9120                                  ;Bit26 = 	"5143", pOut("Motor vehicle supplies and new parts")|
  9121                                  ;		"5172", pOut("Petroleum and petroleum products")|
  9122                                  ;		"5499", pOut("Convenience stores")|
  9123                                  ;		"5541", pOut("Service station")|
  9124                                  ;		"5542", pOut("Service station outdoor (Worldline WAP protocol)")|
  9125                                  ;		"4468", pOut("Marinas, marine service-supplies")|
  9126                                  ;		"4582", pOut("Airports, flying fields, airport terminals")|
  9127                                  ;		"4784", pOut("Tolls, bridge fees")|
  9128                                  ;		"5532", pOut("Automotive tyre stores")|
  9129                                  ;		"5533", pOut("Automotive parts, accessories stores")|
  9130                                  ;		"5542", pOut("Automated gasoline dispenser")|
  9131                                  ;		"5812", pOut("Eating places, restaurants")|
  9132                                  ;		"5814", pOut("Fast food restaurants")|
  9133                                  ;		"5983", pOut("Fuel Dealers - Coal, Fuel Oil, Liquefied Petroleum, Wood")|
  9134                                  ;		"7523", pOut("Automobile parking lots and garages")|
  9135                                  ;		"7841", pOut("Video rental stores")|
  9136                                  ;		"7542", pOut("Car washes")|
  9137                                  ;		(4*b), pOut("Unknown IFSF code!");
  9138                                  ;
  9139                                  
  9140                                  ;xxxxxxxxxxxxxxxxxxxxxxxxxxxxxxxxxxxxxxxxxxxxxxxxxxxxxxxxxxxxxxxxxxxxxxxxxxxxxx
  9141                                  Bit39:
  9142 00007E86 E8(00000000)            	call cPush
  9143 00007E8B E8(00000000)            	call pIn
  9144 00007E90 03303030                	 db 0x0003, "000"
  9145 00007E94 4809C9                  	or rPOk, rPOk
  9146 00007E97 7502                    	jnz SD0493
  9147 00007E99 EB0E                    	jmp SDEnd0493
  9148                                  SD0493:
  9149 00007E9B E8(00000000)            	call pOut
  9150 00007EA0 08417070726F766564      	 db 0x08, "Approved"
  9151                                  SDEnd0493:
  9152 00007EA9 E305                    	jrcxz DL0494
  9153 00007EAB E9E6160000              	jmp DLEnd0494
  9154 00007EB0 48FFC1                  DL0494:	inc rcx
  9155 00007EB3 E8(00000000)            	call cTop
  9156 00007EB8 E8(00000000)            	call pIn
  9157 00007EBD 03303031                	 db 0x0003, "001"
  9158 00007EC1 4809C9                  	or rPOk, rPOk
  9159 00007EC4 7502                    	jnz SD0495
  9160 00007EC6 EB2A                    	jmp SDEnd0495
  9161                                  SD0495:
  9162 00007EC8 E8(00000000)            	call pOut
  9163 00007ECD 24417070726F766564-     	 db 0x24, "Approved, honour with Identification"
  9163 00007ED6 2C20686F6E6F757220-
  9163 00007EDF 77697468204964656E-
  9163 00007EE8 74696669636174696F-
  9163 00007EF1 6E                 
  9164                                  SDEnd0495:
  9165 00007EF2 E305                    	jrcxz DL0496
  9166 00007EF4 E99D160000              	jmp DLEnd0494
  9167 00007EF9 48FFC1                  DL0496:	inc rcx
  9168 00007EFC E8(00000000)            	call cTop
  9169 00007F01 E8(00000000)            	call pIn
  9170 00007F06 03303032                	 db 0x0003, "002"
  9171 00007F0A 4809C9                  	or rPOk, rPOk
  9172 00007F0D 7502                    	jnz SD0497
  9173 00007F0F EB22                    	jmp SDEnd0497
  9174                                  SD0497:
  9175 00007F11 E8(00000000)            	call pOut
  9176 00007F16 1C417070726F766564-     	 db 0x1C, "Approved, for partial amount"
  9176 00007F1F 2C20666F7220706172-
  9176 00007F28 7469616C20616D6F75-
  9176 00007F31 6E74               
  9177                                  SDEnd0497:
  9178 00007F33 E305                    	jrcxz DL0498
  9179 00007F35 E95C160000              	jmp DLEnd0494
  9180 00007F3A 48FFC1                  DL0498:	inc rcx
  9181 00007F3D E8(00000000)            	call cTop
  9182 00007F42 E8(00000000)            	call pIn
  9183 00007F47 03303033                	 db 0x0003, "003"
  9184 00007F4B 4809C9                  	or rPOk, rPOk
  9185 00007F4E 7502                    	jnz SD0499
  9186 00007F50 EB13                    	jmp SDEnd0499
  9187                                  SD0499:
  9188 00007F52 E8(00000000)            	call pOut
  9189 00007F57 0D417070726F766564-     	 db 0x0D, "Approved, VIP"
  9189 00007F60 2C20564950         
  9190                                  SDEnd0499:
  9191 00007F65 E305                    	jrcxz DL049A
  9192 00007F67 E92A160000              	jmp DLEnd0494
  9193 00007F6C 48FFC1                  DL049A:	inc rcx
  9194 00007F6F E8(00000000)            	call cTop
  9195 00007F74 E8(00000000)            	call pIn
  9196 00007F79 03303035                	 db 0x0003, "005"
  9197 00007F7D 4809C9                  	or rPOk, rPOk
  9198 00007F80 7502                    	jnz SD049B
  9199 00007F82 EB35                    	jmp SDEnd049B
  9200                                  SD049B:
  9201 00007F84 E8(00000000)            	call pOut
  9202 00007F89 2F417070726F766564-     	 db 0x2F, "Approved, account type specified by card issuer"
  9202 00007F92 2C206163636F756E74-
  9202 00007F9B 207479706520737065-
  9202 00007FA4 636966696564206279-
  9202 00007FAD 206361726420697373-
  9202 00007FB6 756572             
  9203                                  SDEnd049B:
  9204 00007FB9 E305                    	jrcxz DL049C
  9205 00007FBB E9D6150000              	jmp DLEnd0494
  9206 00007FC0 48FFC1                  DL049C:	inc rcx
  9207 00007FC3 E8(00000000)            	call cTop
  9208 00007FC8 E8(00000000)            	call pIn
  9209 00007FCD 03303036                	 db 0x0003, "006"
  9210 00007FD1 4809C9                  	or rPOk, rPOk
  9211 00007FD4 7502                    	jnz SD049D
  9212 00007FD6 EB49                    	jmp SDEnd049D
  9213                                  SD049D:
  9214 00007FD8 E8(00000000)            	call pOut
  9215 00007FDD 43417070726F766564-     	 db 0x43, "Approved, for partial amount, account type specified by card issuer"
  9215 00007FE6 2C20666F7220706172-
  9215 00007FEF 7469616C20616D6F75-
  9215 00007FF8 6E742C206163636F75-
  9215 00008001 6E7420747970652073-
  9215 0000800A 706563696669656420-
  9215 00008013 627920636172642069-
  9215 0000801C 7373756572         
  9216                                  SDEnd049D:
  9217 00008021 E305                    	jrcxz DL049E
  9218 00008023 E96E150000              	jmp DLEnd0494
  9219 00008028 48FFC1                  DL049E:	inc rcx
  9220 0000802B E8(00000000)            	call cTop
  9221 00008030 E8(00000000)            	call pIn
  9222 00008035 03303037                	 db 0x0003, "007"
  9223 00008039 4809C9                  	or rPOk, rPOk
  9224 0000803C 7502                    	jnz SD049F
  9225 0000803E EB1A                    	jmp SDEnd049F
  9226                                  SD049F:
  9227 00008040 E8(00000000)            	call pOut
  9228 00008045 14417070726F766564-     	 db 0x14, "Approved, update ICC"
  9228 0000804E 2C2075706461746520-
  9228 00008057 494343             
  9229                                  SDEnd049F:
  9230 0000805A E305                    	jrcxz DL04A0
  9231 0000805C E935150000              	jmp DLEnd0494
  9232 00008061 48FFC1                  DL04A0:	inc rcx
  9233 00008064 E8(00000000)            	call cTop
  9234 00008069 E8(00000000)            	call pIn
  9235 0000806E 03303830                	 db 0x0003, "080"
  9236 00008072 4809C9                  	or rPOk, rPOk
  9237 00008075 7502                    	jnz SD04A1
  9238 00008077 EB28                    	jmp SDEnd04A1
  9239                                  SD04A1:
  9240 00008079 E8(00000000)            	call pOut
  9241 0000807E 22417070726F766564-     	 db 0x22, "Approved, (liability not accepted)"
  9241 00008087 2C20286C696162696C-
  9241 00008090 697479206E6F742061-
  9241 00008099 6363657074656429   
  9242                                  SDEnd04A1:
  9243 000080A1 E305                    	jrcxz DL04A2
  9244 000080A3 E9EE140000              	jmp DLEnd0494
  9245 000080A8 48FFC1                  DL04A2:	inc rcx
  9246 000080AB E8(00000000)            	call cTop
  9247 000080B0 E8(00000000)            	call pIn
  9248 000080B5 03303831                	 db 0x0003, "081"
  9249 000080B9 4809C9                  	or rPOk, rPOk
  9250 000080BC 7502                    	jnz SD04A3
  9251 000080BE EB42                    	jmp SDEnd04A3
  9252                                  SD04A3:
  9253 000080C0 E8(00000000)            	call pOut
  9254 000080C5 3C4465636C696E6564-     	 db 0x3C, "Declined, honor with Identification (liability not accepted)"
  9254 000080CE 2C20686F6E6F722077-
  9254 000080D7 697468204964656E74-
  9254 000080E0 696669636174696F6E-
  9254 000080E9 20286C696162696C69-
  9254 000080F2 7479206E6F74206163-
  9254 000080FB 63657074656429     
  9255                                  SDEnd04A3:
  9256 00008102 E305                    	jrcxz DL04A4
  9257 00008104 E98D140000              	jmp DLEnd0494
  9258 00008109 48FFC1                  DL04A4:	inc rcx
  9259 0000810C E8(00000000)            	call cTop
  9260 00008111 E8(00000000)            	call pIn
  9261 00008116 03313030                	 db 0x0003, "100"
  9262 0000811A 4809C9                  	or rPOk, rPOk
  9263 0000811D 7502                    	jnz SD04A5
  9264 0000811F EB1D                    	jmp SDEnd04A5
  9265                                  SD04A5:
  9266 00008121 E8(00000000)            	call pOut
  9267 00008126 174465636C696E6564-     	 db 0x17, "Declined, do not honour"
  9267 0000812F 2C20646F206E6F7420-
  9267 00008138 686F6E6F7572       
  9268                                  SDEnd04A5:
  9269 0000813E E305                    	jrcxz DL04A6
  9270 00008140 E951140000              	jmp DLEnd0494
  9271 00008145 48FFC1                  DL04A6:	inc rcx
  9272 00008148 E8(00000000)            	call cTop
  9273 0000814D E8(00000000)            	call pIn
  9274 00008152 03313031                	 db 0x0003, "101"
  9275 00008156 4809C9                  	or rPOk, rPOk
  9276 00008159 7502                    	jnz SD04A7
  9277 0000815B EB1C                    	jmp SDEnd04A7
  9278                                  SD04A7:
  9279 0000815D E8(00000000)            	call pOut
  9280 00008162 164465636C696E6564-     	 db 0x16, "Declined, expired card"
  9280 0000816B 2C2065787069726564-
  9280 00008174 2063617264         
  9281                                  SDEnd04A7:
  9282 00008179 E305                    	jrcxz DL04A8
  9283 0000817B E916140000              	jmp DLEnd0494
  9284 00008180 48FFC1                  DL04A8:	inc rcx
  9285 00008183 E8(00000000)            	call cTop
  9286 00008188 E8(00000000)            	call pIn
  9287 0000818D 03313032                	 db 0x0003, "102"
  9288 00008191 4809C9                  	or rPOk, rPOk
  9289 00008194 7502                    	jnz SD04A9
  9290 00008196 EB1F                    	jmp SDEnd04A9
  9291                                  SD04A9:
  9292 00008198 E8(00000000)            	call pOut
  9293 0000819D 194465636C696E6564-     	 db 0x19, "Declined, suspected fraud"
  9293 000081A6 2C2073757370656374-
  9293 000081AF 6564206672617564   
  9294                                  SDEnd04A9:
  9295 000081B7 E305                    	jrcxz DL04AA
  9296 000081B9 E9D8130000              	jmp DLEnd0494
  9297 000081BE 48FFC1                  DL04AA:	inc rcx
  9298 000081C1 E8(00000000)            	call cTop
  9299 000081C6 E8(00000000)            	call pIn
  9300 000081CB 03313033                	 db 0x0003, "103"
  9301 000081CF 4809C9                  	or rPOk, rPOk
  9302 000081D2 7502                    	jnz SD04AB
  9303 000081D4 EB2E                    	jmp SDEnd04AB
  9304                                  SD04AB:
  9305 000081D6 E8(00000000)            	call pOut
  9306 000081DB 284465636C696E6564-     	 db 0x28, "Declined, card Acceptor contact acquirer"
  9306 000081E4 2C2063617264204163-
  9306 000081ED 636570746F7220636F-
  9306 000081F6 6E7461637420616371-
  9306 000081FF 7569726572         
  9307                                  SDEnd04AB:
  9308 00008204 E305                    	jrcxz DL04AC
  9309 00008206 E98B130000              	jmp DLEnd0494
  9310 0000820B 48FFC1                  DL04AC:	inc rcx
  9311 0000820E E8(00000000)            	call cTop
  9312 00008213 E8(00000000)            	call pIn
  9313 00008218 03313034                	 db 0x0003, "104"
  9314 0000821C 4809C9                  	or rPOk, rPOk
  9315 0000821F 7502                    	jnz SD04AD
  9316 00008221 EB1F                    	jmp SDEnd04AD
  9317                                  SD04AD:
  9318 00008223 E8(00000000)            	call pOut
  9319 00008228 194465636C696E6564-     	 db 0x19, "Declined, restricted card"
  9319 00008231 2C2072657374726963-
  9319 0000823A 7465642063617264   
  9320                                  SDEnd04AD:
  9321 00008242 E305                    	jrcxz DL04AE
  9322 00008244 E94D130000              	jmp DLEnd0494
  9323 00008249 48FFC1                  DL04AE:	inc rcx
  9324 0000824C E8(00000000)            	call cTop
  9325 00008251 E8(00000000)            	call pIn
  9326 00008256 03313036                	 db 0x0003, "106"
  9327 0000825A 4809C9                  	or rPOk, rPOk
  9328 0000825D 7502                    	jnz SD04AF
  9329 0000825F EB2C                    	jmp SDEnd04AF
  9330                                  SD04AF:
  9331 00008261 E8(00000000)            	call pOut
  9332 00008266 264465636C696E6564-     	 db 0x26, "Declined, allowable PIN tries exceeded"
  9332 0000826F 2C20616C6C6F776162-
  9332 00008278 6C652050494E207472-
  9332 00008281 696573206578636565-
  9332 0000828A 646564             
  9333                                  SDEnd04AF:
  9334 0000828D E305                    	jrcxz DL04B0
  9335 0000828F E902130000              	jmp DLEnd0494
  9336 00008294 48FFC1                  DL04B0:	inc rcx
  9337 00008297 E8(00000000)            	call cTop
  9338 0000829C E8(00000000)            	call pIn
  9339 000082A1 03313037                	 db 0x0003, "107"
  9340 000082A5 4809C9                  	or rPOk, rPOk
  9341 000082A8 7502                    	jnz SD04B1
  9342 000082AA EB24                    	jmp SDEnd04B1
  9343                                  SD04B1:
  9344 000082AC E8(00000000)            	call pOut
  9345 000082B1 1E4465636C696E6564-     	 db 0x1E, "Declined, refer to Card Issuer"
  9345 000082BA 2C2072656665722074-
  9345 000082C3 6F2043617264204973-
  9345 000082CC 73756572           
  9346                                  SDEnd04B1:
  9347 000082D0 E305                    	jrcxz DL04B2
  9348 000082D2 E9BF120000              	jmp DLEnd0494
  9349 000082D7 48FFC1                  DL04B2:	inc rcx
  9350 000082DA E8(00000000)            	call cTop
  9351 000082DF E8(00000000)            	call pIn
  9352 000082E4 03313038                	 db 0x0003, "108"
  9353 000082E8 4809C9                  	or rPOk, rPOk
  9354 000082EB 7502                    	jnz SD04B3
  9355 000082ED EB65                    	jmp SDEnd04B3
  9356                                  SD04B3:
  9357 000082EF E8(00000000)            	call pOut
  9358 000082F4 5F4465636C696E6564-     	 db 0x5F, "Declined, refer to card issuers special conditions for use May be combined with message in 62-3"
  9358 000082FD 2C2072656665722074-
  9358 00008306 6F2063617264206973-
  9358 0000830F 737565727320737065-
  9358 00008318 6369616C20636F6E64-
  9358 00008321 6974696F6E7320666F-
  9358 0000832A 7220757365204D6179-
  9358 00008333 20626520636F6D6269-
  9358 0000833C 6E6564207769746820-
  9358 00008345 6D6573736167652069-
  9358 0000834E 6E2036322D33       
  9359                                  SDEnd04B3:
  9360 00008354 E305                    	jrcxz DL04B4
  9361 00008356 E93B120000              	jmp DLEnd0494
  9362 0000835B 48FFC1                  DL04B4:	inc rcx
  9363 0000835E E8(00000000)            	call cTop
  9364 00008363 E8(00000000)            	call pIn
  9365 00008368 03313039                	 db 0x0003, "109"
  9366 0000836C 4809C9                  	or rPOk, rPOk
  9367 0000836F 7502                    	jnz SD04B5
  9368 00008371 EB20                    	jmp SDEnd04B5
  9369                                  SD04B5:
  9370 00008373 E8(00000000)            	call pOut
  9371 00008378 1A4465636C696E6564-     	 db 0x1A, "Declined, invalid merchant"
  9371 00008381 2C20696E76616C6964-
  9371 0000838A 206D65726368616E74 
  9372                                  SDEnd04B5:
  9373 00008393 E305                    	jrcxz DL04B6
  9374 00008395 E9FC110000              	jmp DLEnd0494
  9375 0000839A 48FFC1                  DL04B6:	inc rcx
  9376 0000839D E8(00000000)            	call cTop
  9377 000083A2 E8(00000000)            	call pIn
  9378 000083A7 03313130                	 db 0x0003, "110"
  9379 000083AB 4809C9                  	or rPOk, rPOk
  9380 000083AE 7502                    	jnz SD04B7
  9381 000083B0 EB1E                    	jmp SDEnd04B7
  9382                                  SD04B7:
  9383 000083B2 E8(00000000)            	call pOut
  9384 000083B7 184465636C696E6564-     	 db 0x18, "Declined, invalid Amount"
  9384 000083C0 2C20696E76616C6964-
  9384 000083C9 20416D6F756E74     
  9385                                  SDEnd04B7:
  9386 000083D0 E305                    	jrcxz DL04B8
  9387 000083D2 E9BF110000              	jmp DLEnd0494
  9388 000083D7 48FFC1                  DL04B8:	inc rcx
  9389 000083DA E8(00000000)            	call cTop
  9390 000083DF E8(00000000)            	call pIn
  9391 000083E4 03313131                	 db 0x0003, "111"
  9392 000083E8 4809C9                  	or rPOk, rPOk
  9393 000083EB 7502                    	jnz SD04B9
  9394 000083ED EB23                    	jmp SDEnd04B9
  9395                                  SD04B9:
  9396 000083EF E8(00000000)            	call pOut
  9397 000083F4 1D4465636C696E6564-     	 db 0x1D, "Declined, invalid Card Number"
  9397 000083FD 2C20696E76616C6964-
  9397 00008406 2043617264204E756D-
  9397 0000840F 626572             
  9398                                  SDEnd04B9:
  9399 00008412 E305                    	jrcxz DL04BA
  9400 00008414 E97D110000              	jmp DLEnd0494
  9401 00008419 48FFC1                  DL04BA:	inc rcx
  9402 0000841C E8(00000000)            	call cTop
  9403 00008421 E8(00000000)            	call pIn
  9404 00008426 03313132                	 db 0x0003, "112"
  9405 0000842A 4809C9                  	or rPOk, rPOk
  9406 0000842D 7502                    	jnz SD04BB
  9407 0000842F EB21                    	jmp SDEnd04BB
  9408                                  SD04BB:
  9409 00008431 E8(00000000)            	call pOut
  9410 00008436 1B4465636C696E6564-     	 db 0x1B, "Declined, PIN data required"
  9410 0000843F 2C2050494E20646174-
  9410 00008448 612072657175697265-
  9410 00008451 64                 
  9411                                  SDEnd04BB:
  9412 00008452 E305                    	jrcxz DL04BC
  9413 00008454 E93D110000              	jmp DLEnd0494
  9414 00008459 48FFC1                  DL04BC:	inc rcx
  9415 0000845C E8(00000000)            	call cTop
  9416 00008461 E8(00000000)            	call pIn
  9417 00008466 03313134                	 db 0x0003, "114"
  9418 0000846A 4809C9                  	or rPOk, rPOk
  9419 0000846D 7502                    	jnz SD04BD
  9420 0000846F EB2C                    	jmp SDEnd04BD
  9421                                  SD04BD:
  9422 00008471 E8(00000000)            	call pOut
  9423 00008476 264465636C696E6564-     	 db 0x26, "Declined, no account of type requested"
  9423 0000847F 2C206E6F206163636F-
  9423 00008488 756E74206F66207479-
  9423 00008491 706520726571756573-
  9423 0000849A 746564             
  9424                                  SDEnd04BD:
  9425 0000849D E305                    	jrcxz DL04BE
  9426 0000849F E9F2100000              	jmp DLEnd0494
  9427 000084A4 48FFC1                  DL04BE:	inc rcx
  9428 000084A7 E8(00000000)            	call cTop
  9429 000084AC E8(00000000)            	call pIn
  9430 000084B1 03313135                	 db 0x0003, "115"
  9431 000084B5 4809C9                  	or rPOk, rPOk
  9432 000084B8 7502                    	jnz SD04BF
  9433 000084BA EB30                    	jmp SDEnd04BF
  9434                                  SD04BF:
  9435 000084BC E8(00000000)            	call pOut
  9436 000084C1 2A4465636C696E6564-     	 db 0x2A, "Declined, requested Function not supported"
  9436 000084CA 2C2072657175657374-
  9436 000084D3 65642046756E637469-
  9436 000084DC 6F6E206E6F74207375-
  9436 000084E5 70706F72746564     
  9437                                  SDEnd04BF:
  9438 000084EC E305                    	jrcxz DL04C0
  9439 000084EE E9A3100000              	jmp DLEnd0494
  9440 000084F3 48FFC1                  DL04C0:	inc rcx
  9441 000084F6 E8(00000000)            	call cTop
  9442 000084FB E8(00000000)            	call pIn
  9443 00008500 03313136                	 db 0x0003, "116"
  9444 00008504 4809C9                  	or rPOk, rPOk
  9445 00008507 7502                    	jnz SD04C1
  9446 00008509 EB24                    	jmp SDEnd04C1
  9447                                  SD04C1:
  9448 0000850B E8(00000000)            	call pOut
  9449 00008510 1E4465636C696E6564-     	 db 0x1E, "Declined, not sufficient funds"
  9449 00008519 2C206E6F7420737566-
  9449 00008522 66696369656E742066-
  9449 0000852B 756E6473           
  9450                                  SDEnd04C1:
  9451 0000852F E305                    	jrcxz DL04C2
  9452 00008531 E960100000              	jmp DLEnd0494
  9453 00008536 48FFC1                  DL04C2:	inc rcx
  9454 00008539 E8(00000000)            	call cTop
  9455 0000853E E8(00000000)            	call pIn
  9456 00008543 03313137                	 db 0x0003, "117"
  9457 00008547 4809C9                  	or rPOk, rPOk
  9458 0000854A 7502                    	jnz SD04C3
  9459 0000854C EB1D                    	jmp SDEnd04C3
  9460                                  SD04C3:
  9461 0000854E E8(00000000)            	call pOut
  9462 00008553 174465636C696E6564-     	 db 0x17, "Declined, incorrect PIN"
  9462 0000855C 2C20696E636F727265-
  9462 00008565 63742050494E       
  9463                                  SDEnd04C3:
  9464 0000856B E305                    	jrcxz DL04C4
  9465 0000856D E924100000              	jmp DLEnd0494
  9466 00008572 48FFC1                  DL04C4:	inc rcx
  9467 00008575 E8(00000000)            	call cTop
  9468 0000857A E8(00000000)            	call pIn
  9469 0000857F 03313138                	 db 0x0003, "118"
  9470 00008583 4809C9                  	or rPOk, rPOk
  9471 00008586 7502                    	jnz SD04C5
  9472 00008588 EB1E                    	jmp SDEnd04C5
  9473                                  SD04C5:
  9474 0000858A E8(00000000)            	call pOut
  9475 0000858F 184465636C696E6564-     	 db 0x18, "Declined, no card record"
  9475 00008598 2C206E6F2063617264-
  9475 000085A1 207265636F7264     
  9476                                  SDEnd04C5:
  9477 000085A8 E305                    	jrcxz DL04C6
  9478 000085AA E9E70F0000              	jmp DLEnd0494
  9479 000085AF 48FFC1                  DL04C6:	inc rcx
  9480 000085B2 E8(00000000)            	call cTop
  9481 000085B7 E8(00000000)            	call pIn
  9482 000085BC 03313139                	 db 0x0003, "119"
  9483 000085C0 4809C9                  	or rPOk, rPOk
  9484 000085C3 7502                    	jnz SD04C7
  9485 000085C5 EB39                    	jmp SDEnd04C7
  9486                                  SD04C7:
  9487 000085C7 E8(00000000)            	call pOut
  9488 000085CC 334465636C696E6564-     	 db 0x33, "Declined, transaction not permitted to the customer"
  9488 000085D5 2C207472616E736163-
  9488 000085DE 74696F6E206E6F7420-
  9488 000085E7 7065726D6974746564-
  9488 000085F0 20746F207468652063-
  9488 000085F9 7573746F6D6572     
  9489                                  SDEnd04C7:
  9490 00008600 E305                    	jrcxz DL04C8
  9491 00008602 E98F0F0000              	jmp DLEnd0494
  9492 00008607 48FFC1                  DL04C8:	inc rcx
  9493 0000860A E8(00000000)            	call cTop
  9494 0000860F E8(00000000)            	call pIn
  9495 00008614 03313230                	 db 0x0003, "120"
  9496 00008618 4809C9                  	or rPOk, rPOk
  9497 0000861B 7502                    	jnz SD04C9
  9498 0000861D EB39                    	jmp SDEnd04C9
  9499                                  SD04C9:
  9500 0000861F E8(00000000)            	call pOut
  9501 00008624 334465636C696E6564-     	 db 0x33, "Declined, transaction not permitted to the terminal"
  9501 0000862D 2C207472616E736163-
  9501 00008636 74696F6E206E6F7420-
  9501 0000863F 7065726D6974746564-
  9501 00008648 20746F207468652074-
  9501 00008651 65726D696E616C     
  9502                                  SDEnd04C9:
  9503 00008658 E305                    	jrcxz DL04CA
  9504 0000865A E9370F0000              	jmp DLEnd0494
  9505 0000865F 48FFC1                  DL04CA:	inc rcx
  9506 00008662 E8(00000000)            	call cTop
  9507 00008667 E8(00000000)            	call pIn
  9508 0000866C 03313231                	 db 0x0003, "121"
  9509 00008670 4809C9                  	or rPOk, rPOk
  9510 00008673 7502                    	jnz SD04CB
  9511 00008675 EB2F                    	jmp SDEnd04CB
  9512                                  SD04CB:
  9513 00008677 E8(00000000)            	call pOut
  9514 0000867C 294465636C696E6564-     	 db 0x29, "Declined, exceeds withdrawal amount limit"
  9514 00008685 2C2065786365656473-
  9514 0000868E 207769746864726177-
  9514 00008697 616C20616D6F756E74-
  9514 000086A0 206C696D6974       
  9515                                  SDEnd04CB:
  9516 000086A6 E305                    	jrcxz DL04CC
  9517 000086A8 E9E90E0000              	jmp DLEnd0494
  9518 000086AD 48FFC1                  DL04CC:	inc rcx
  9519 000086B0 E8(00000000)            	call cTop
  9520 000086B5 E8(00000000)            	call pIn
  9521 000086BA 03313232                	 db 0x0003, "122"
  9522 000086BE 4809C9                  	or rPOk, rPOk
  9523 000086C1 7502                    	jnz SD04CD
  9524 000086C3 EB22                    	jmp SDEnd04CD
  9525                                  SD04CD:
  9526 000086C5 E8(00000000)            	call pOut
  9527 000086CA 1C4465636C696E6564-     	 db 0x1C, "Declined, security violation"
  9527 000086D3 2C2073656375726974-
  9527 000086DC 792076696F6C617469-
  9527 000086E5 6F6E               
  9528                                  SDEnd04CD:
  9529 000086E7 E305                    	jrcxz DL04CE
  9530 000086E9 E9A80E0000              	jmp DLEnd0494
  9531 000086EE 48FFC1                  DL04CE:	inc rcx
  9532 000086F1 E8(00000000)            	call cTop
  9533 000086F6 E8(00000000)            	call pIn
  9534 000086FB 03313233                	 db 0x0003, "123"
  9535 000086FF 4809C9                  	or rPOk, rPOk
  9536 00008702 7502                    	jnz SD04CF
  9537 00008704 EB32                    	jmp SDEnd04CF
  9538                                  SD04CF:
  9539 00008706 E8(00000000)            	call pOut
  9540 0000870B 2C4465636C696E6564-     	 db 0x2C, "Declined, exceeds withdrawal frequency limit"
  9540 00008714 2C2065786365656473-
  9540 0000871D 207769746864726177-
  9540 00008726 616C20667265717565-
  9540 0000872F 6E6379206C696D6974 
  9541                                  SDEnd04CF:
  9542 00008738 E305                    	jrcxz DL04D0
  9543 0000873A E9570E0000              	jmp DLEnd0494
  9544 0000873F 48FFC1                  DL04D0:	inc rcx
  9545 00008742 E8(00000000)            	call cTop
  9546 00008747 E8(00000000)            	call pIn
  9547 0000874C 03313235                	 db 0x0003, "125"
  9548 00008750 4809C9                  	or rPOk, rPOk
  9549 00008753 7502                    	jnz SD04D1
  9550 00008755 EB22                    	jmp SDEnd04D1
  9551                                  SD04D1:
  9552 00008757 E8(00000000)            	call pOut
  9553 0000875C 1C4465636C696E6564-     	 db 0x1C, "Declined, card not effective"
  9553 00008765 2C2063617264206E6F-
  9553 0000876E 742065666665637469-
  9553 00008777 7665               
  9554                                  SDEnd04D1:
  9555 00008779 E305                    	jrcxz DL04D2
  9556 0000877B E9160E0000              	jmp DLEnd0494
  9557 00008780 48FFC1                  DL04D2:	inc rcx
  9558 00008783 E8(00000000)            	call cTop
  9559 00008788 E8(00000000)            	call pIn
  9560 0000878D 03313236                	 db 0x0003, "126"
  9561 00008791 4809C9                  	or rPOk, rPOk
  9562 00008794 7502                    	jnz SD04D3
  9563 00008796 EB21                    	jmp SDEnd04D3
  9564                                  SD04D3:
  9565 00008798 E8(00000000)            	call pOut
  9566 0000879D 1B4465636C696E6564-     	 db 0x1B, "Declined, invalid PIN block"
  9566 000087A6 2C20696E76616C6964-
  9566 000087AF 2050494E20626C6F63-
  9566 000087B8 6B                 
  9567                                  SDEnd04D3:
  9568 000087B9 E305                    	jrcxz DL04D4
  9569 000087BB E9D60D0000              	jmp DLEnd0494
  9570 000087C0 48FFC1                  DL04D4:	inc rcx
  9571 000087C3 E8(00000000)            	call cTop
  9572 000087C8 E8(00000000)            	call pIn
  9573 000087CD 03313237                	 db 0x0003, "127"
  9574 000087D1 4809C9                  	or rPOk, rPOk
  9575 000087D4 7502                    	jnz SD04D5
  9576 000087D6 EB20                    	jmp SDEnd04D5
  9577                                  SD04D5:
  9578 000087D8 E8(00000000)            	call pOut
  9579 000087DD 1A4465636C696E6564-     	 db 0x1A, "Declined, PIN length error"
  9579 000087E6 2C2050494E206C656E-
  9579 000087EF 677468206572726F72 
  9580                                  SDEnd04D5:
  9581 000087F8 E305                    	jrcxz DL04D6
  9582 000087FA E9970D0000              	jmp DLEnd0494
  9583 000087FF 48FFC1                  DL04D6:	inc rcx
  9584 00008802 E8(00000000)            	call cTop
  9585 00008807 E8(00000000)            	call pIn
  9586 0000880C 03313238                	 db 0x0003, "128"
  9587 00008810 4809C9                  	or rPOk, rPOk
  9588 00008813 7502                    	jnz SD04D7
  9589 00008815 EB22                    	jmp SDEnd04D7
  9590                                  SD04D7:
  9591 00008817 E8(00000000)            	call pOut
  9592 0000881C 1C4465636C696E6564-     	 db 0x1C, "Declined, PIN key sync error"
  9592 00008825 2C2050494E206B6579-
  9592 0000882E 2073796E6320657272-
  9592 00008837 6F72               
  9593                                  SDEnd04D7:
  9594 00008839 E305                    	jrcxz DL04D8
  9595 0000883B E9560D0000              	jmp DLEnd0494
  9596 00008840 48FFC1                  DL04D8:	inc rcx
  9597 00008843 E8(00000000)            	call cTop
  9598 00008848 E8(00000000)            	call pIn
  9599 0000884D 03313830                	 db 0x0003, "180"
  9600 00008851 4809C9                  	or rPOk, rPOk
  9601 00008854 7502                    	jnz SD04D9
  9602 00008856 EB3F                    	jmp SDEnd04D9
  9603                                  SD04D9:
  9604 00008858 E8(00000000)            	call pOut
  9605 0000885D 394465636C696E6564-     	 db 0x39, "Declined, redemption denied/mismatch by 2nd card mismatch"
  9605 00008866 2C20726564656D7074-
  9605 0000886F 696F6E2064656E6965-
  9605 00008878 642F6D69736D617463-
  9605 00008881 6820627920326E6420-
  9605 0000888A 63617264206D69736D-
  9605 00008893 61746368           
  9606                                  SDEnd04D9:
  9607 00008897 E305                    	jrcxz DL04DA
  9608 00008899 E9F80C0000              	jmp DLEnd0494
  9609 0000889E 48FFC1                  DL04DA:	inc rcx
  9610 000088A1 E8(00000000)            	call cTop
  9611 000088A6 E8(00000000)            	call pIn
  9612 000088AB 03313831                	 db 0x0003, "181"
  9613 000088AF 4809C9                  	or rPOk, rPOk
  9614 000088B2 7502                    	jnz SD04DB
  9615 000088B4 EB1C                    	jmp SDEnd04DB
  9616                                  SD04DB:
  9617 000088B6 E8(00000000)            	call pOut
  9618 000088BB 164465636C696E6564-     	 db 0x16, "Declined, card blocked"
  9618 000088C4 2C206361726420626C-
  9618 000088CD 6F636B6564         
  9619                                  SDEnd04DB:
  9620 000088D2 E305                    	jrcxz DL04DC
  9621 000088D4 E9BD0C0000              	jmp DLEnd0494
  9622 000088D9 48FFC1                  DL04DC:	inc rcx
  9623 000088DC E8(00000000)            	call cTop
  9624 000088E1 E8(00000000)            	call pIn
  9625 000088E6 03313832                	 db 0x0003, "182"
  9626 000088EA 4809C9                  	or rPOk, rPOk
  9627 000088ED 7502                    	jnz SD04DD
  9628 000088EF EB1F                    	jmp SDEnd04DD
  9629                                  SD04DD:
  9630 000088F1 E8(00000000)            	call pOut
  9631 000088F6 194465636C696E6564-     	 db 0x19, "Declined, account blocked"
  9631 000088FF 2C206163636F756E74-
  9631 00008908 20626C6F636B6564   
  9632                                  SDEnd04DD:
  9633 00008910 E305                    	jrcxz DL04DE
  9634 00008912 E97F0C0000              	jmp DLEnd0494
  9635 00008917 48FFC1                  DL04DE:	inc rcx
  9636 0000891A E8(00000000)            	call cTop
  9637 0000891F E8(00000000)            	call pIn
  9638 00008924 03313833                	 db 0x0003, "183"
  9639 00008928 4809C9                  	or rPOk, rPOk
  9640 0000892B 7502                    	jnz SD04DF
  9641 0000892D EB2A                    	jmp SDEnd04DF
  9642                                  SD04DF:
  9643 0000892F E8(00000000)            	call pOut
  9644 00008934 244465636C696E6564-     	 db 0x24, "Declined, incorrect odometer reading"
  9644 0000893D 2C20696E636F727265-
  9644 00008946 6374206F646F6D6574-
  9644 0000894F 65722072656164696E-
  9644 00008958 67                 
  9645                                  SDEnd04DF:
  9646 00008959 E305                    	jrcxz DL04E0
  9647 0000895B E9360C0000              	jmp DLEnd0494
  9648 00008960 48FFC1                  DL04E0:	inc rcx
  9649 00008963 E8(00000000)            	call cTop
  9650 00008968 E8(00000000)            	call pIn
  9651 0000896D 03313835                	 db 0x0003, "185"
  9652 00008971 4809C9                  	or rPOk, rPOk
  9653 00008974 7502                    	jnz SD04E1
  9654 00008976 EB26                    	jmp SDEnd04E1
  9655                                  SD04E1:
  9656 00008978 E8(00000000)            	call pOut
  9657 0000897D 204465636C696E6564-     	 db 0x20, "Declined, product(s) not allowed"
  9657 00008986 2C2070726F64756374-
  9657 0000898F 287329206E6F742061-
  9657 00008998 6C6C6F776564       
  9658                                  SDEnd04E1:
  9659 0000899E E305                    	jrcxz DL04E2
  9660 000089A0 E9F10B0000              	jmp DLEnd0494
  9661 000089A5 48FFC1                  DL04E2:	inc rcx
  9662 000089A8 E8(00000000)            	call cTop
  9663 000089AD E8(00000000)            	call pIn
  9664 000089B2 03313836                	 db 0x0003, "186"
  9665 000089B6 4809C9                  	or rPOk, rPOk
  9666 000089B9 7502                    	jnz SD04E3
  9667 000089BB EB2C                    	jmp SDEnd04E3
  9668                                  SD04E3:
  9669 000089BD E8(00000000)            	call pOut
  9670 000089C2 264465636C696E6564-     	 db 0x26, "Declined, allowable PIN tries exceeded"
  9670 000089CB 2C20616C6C6F776162-
  9670 000089D4 6C652050494E207472-
  9670 000089DD 696573206578636565-
  9670 000089E6 646564             
  9671                                  SDEnd04E3:
  9672 000089E9 E305                    	jrcxz DL04E4
  9673 000089EB E9A60B0000              	jmp DLEnd0494
  9674 000089F0 48FFC1                  DL04E4:	inc rcx
  9675 000089F3 E8(00000000)            	call cTop
  9676 000089F8 E8(00000000)            	call pIn
  9677 000089FD 03313837                	 db 0x0003, "187"
  9678 00008A01 4809C9                  	or rPOk, rPOk
  9679 00008A04 7502                    	jnz SD04E5
  9680 00008A06 EB21                    	jmp SDEnd04E5
  9681                                  SD04E5:
  9682 00008A08 E8(00000000)            	call pOut
  9683 00008A0D 1B4465636C696E6564-     	 db 0x1B, "Declined, previous PIN used"
  9683 00008A16 2C2070726576696F75-
  9683 00008A1F 732050494E20757365-
  9683 00008A28 64                 
  9684                                  SDEnd04E5:
  9685 00008A29 E305                    	jrcxz DL04E6
  9686 00008A2B E9660B0000              	jmp DLEnd0494
  9687 00008A30 48FFC1                  DL04E6:	inc rcx
  9688 00008A33 E8(00000000)            	call cTop
  9689 00008A38 E8(00000000)            	call pIn
  9690 00008A3D 03313838                	 db 0x0003, "188"
  9691 00008A41 4809C9                  	or rPOk, rPOk
  9692 00008A44 7502                    	jnz SD04E7
  9693 00008A46 EB23                    	jmp SDEnd04E7
  9694                                  SD04E7:
  9695 00008A48 E8(00000000)            	call pOut
  9696 00008A4D 1D4465636C696E6564-     	 db 0x1D, "Declined, PIN change required"
  9696 00008A56 2C2050494E20636861-
  9696 00008A5F 6E6765207265717569-
  9696 00008A68 726564             
  9697                                  SDEnd04E7:
  9698 00008A6B E305                    	jrcxz DL04E8
  9699 00008A6D E9240B0000              	jmp DLEnd0494
  9700 00008A72 48FFC1                  DL04E8:	inc rcx
  9701 00008A75 E8(00000000)            	call cTop
  9702 00008A7A E8(00000000)            	call pIn
  9703 00008A7F 03313930                	 db 0x0003, "190"
  9704 00008A83 4809C9                  	or rPOk, rPOk
  9705 00008A86 7502                    	jnz SD04E9
  9706 00008A88 EB2C                    	jmp SDEnd04E9
  9707                                  SD04E9:
  9708 00008A8A E8(00000000)            	call pOut
  9709 00008A8F 264465636C696E6564-     	 db 0x26, "Declined, RFID: Transponder is blocked"
  9709 00008A98 2C20524649443A2054-
  9709 00008AA1 72616E73706F6E6465-
  9709 00008AAA 7220697320626C6F63-
  9709 00008AB3 6B6564             
  9710                                  SDEnd04E9:
  9711 00008AB6 E305                    	jrcxz DL04EA
  9712 00008AB8 E9D90A0000              	jmp DLEnd0494
  9713 00008ABD 48FFC1                  DL04EA:	inc rcx
  9714 00008AC0 E8(00000000)            	call cTop
  9715 00008AC5 E8(00000000)            	call pIn
  9716 00008ACA 03313931                	 db 0x0003, "191"
  9717 00008ACE 4809C9                  	or rPOk, rPOk
  9718 00008AD1 7502                    	jnz SD04EB
  9719 00008AD3 EB29                    	jmp SDEnd04EB
  9720                                  SD04EB:
  9721 00008AD5 E8(00000000)            	call pOut
  9722 00008ADA 234465636C696E6564-     	 db 0x23, "Declined, RFID: Unknown transponder"
  9722 00008AE3 2C20524649443A2055-
  9722 00008AEC 6E6B6E6F776E207472-
  9722 00008AF5 616E73706F6E646572 
  9723                                  SDEnd04EB:
  9724 00008AFE E305                    	jrcxz DL04EC
  9725 00008B00 E9910A0000              	jmp DLEnd0494
  9726 00008B05 48FFC1                  DL04EC:	inc rcx
  9727 00008B08 E8(00000000)            	call cTop
  9728 00008B0D E8(00000000)            	call pIn
  9729 00008B12 03313932                	 db 0x0003, "192"
  9730 00008B16 4809C9                  	or rPOk, rPOk
  9731 00008B19 7502                    	jnz SD04ED
  9732 00008B1B EB30                    	jmp SDEnd04ED
  9733                                  SD04ED:
  9734 00008B1D E8(00000000)            	call pOut
  9735 00008B22 2A4465636C696E6564-     	 db 0x2A, "Declined, RFID: Illegal challenge response"
  9735 00008B2B 2C20524649443A2049-
  9735 00008B34 6C6C6567616C206368-
  9735 00008B3D 616C6C656E67652072-
  9735 00008B46 6573706F6E7365     
  9736                                  SDEnd04ED:
  9737 00008B4D E305                    	jrcxz DL04EE
  9738 00008B4F E9420A0000              	jmp DLEnd0494
  9739 00008B54 48FFC1                  DL04EE:	inc rcx
  9740 00008B57 E8(00000000)            	call cTop
  9741 00008B5C E8(00000000)            	call pIn
  9742 00008B61 03323030                	 db 0x0003, "200"
  9743 00008B65 4809C9                  	or rPOk, rPOk
  9744 00008B68 7502                    	jnz SD04EF
  9745 00008B6A EB28                    	jmp SDEnd04EF
  9746                                  SD04EF:
  9747 00008B6C E8(00000000)            	call pOut
  9748 00008B71 224465636C696E6564-     	 db 0x22, "Declined, do not honor  Capture"
  9748 00008B7A 2C20646F206E6F7420-
  9748 00008B83 686F6E6F7220E28093-
  9748 00008B8C 2043617074757265   
  9749                                  SDEnd04EF:
  9750 00008B94 E305                    	jrcxz DL04F0
  9751 00008B96 E9FB090000              	jmp DLEnd0494
  9752 00008B9B 48FFC1                  DL04F0:	inc rcx
  9753 00008B9E E8(00000000)            	call cTop
  9754 00008BA3 E8(00000000)            	call pIn
  9755 00008BA8 03323031                	 db 0x0003, "201"
  9756 00008BAC 4809C9                  	or rPOk, rPOk
  9757 00008BAF 7502                    	jnz SD04F1
  9758 00008BB1 EB28                    	jmp SDEnd04F1
  9759                                  SD04F1:
  9760 00008BB3 E8(00000000)            	call pOut
  9761 00008BB8 224465636C696E6564-     	 db 0x22, "Declined, expired card  Capture"
  9761 00008BC1 2C2065787069726564-
  9761 00008BCA 206361726420E28093-
  9761 00008BD3 2043617074757265   
  9762                                  SDEnd04F1:
  9763 00008BDB E305                    	jrcxz DL04F2
  9764 00008BDD E9B4090000              	jmp DLEnd0494
  9765 00008BE2 48FFC1                  DL04F2:	inc rcx
  9766 00008BE5 E8(00000000)            	call cTop
  9767 00008BEA E8(00000000)            	call pIn
  9768 00008BEF 03323032                	 db 0x0003, "202"
  9769 00008BF3 4809C9                  	or rPOk, rPOk
  9770 00008BF6 7502                    	jnz SD04F3
  9771 00008BF8 EB2B                    	jmp SDEnd04F3
  9772                                  SD04F3:
  9773 00008BFA E8(00000000)            	call pOut
  9774 00008BFF 254465636C696E6564-     	 db 0x25, "Declined, suspected fraud  Capture"
  9774 00008C08 2C2073757370656374-
  9774 00008C11 656420667261756420-
  9774 00008C1A E28093204361707475-
  9774 00008C23 7265               
  9775                                  SDEnd04F3:
  9776 00008C25 E305                    	jrcxz DL04F4
  9777 00008C27 E96A090000              	jmp DLEnd0494
  9778 00008C2C 48FFC1                  DL04F4:	inc rcx
  9779 00008C2F E8(00000000)            	call cTop
  9780 00008C34 E8(00000000)            	call pIn
  9781 00008C39 03323033                	 db 0x0003, "203"
  9782 00008C3D 4809C9                  	or rPOk, rPOk
  9783 00008C40 7502                    	jnz SD04F5
  9784 00008C42 EB3A                    	jmp SDEnd04F5
  9785                                  SD04F5:
  9786 00008C44 E8(00000000)            	call pOut
  9787 00008C49 344465636C696E6564-     	 db 0x34, "Declined, card acceptor contact acquirer  Capture"
  9787 00008C52 2C2063617264206163-
  9787 00008C5B 636570746F7220636F-
  9787 00008C64 6E7461637420616371-
  9787 00008C6D 756972657220E28093-
  9787 00008C76 2043617074757265   
  9788                                  SDEnd04F5:
  9789 00008C7E E305                    	jrcxz DL04F6
  9790 00008C80 E911090000              	jmp DLEnd0494
  9791 00008C85 48FFC1                  DL04F6:	inc rcx
  9792 00008C88 E8(00000000)            	call cTop
  9793 00008C8D E8(00000000)            	call pIn
  9794 00008C92 03323034                	 db 0x0003, "204"
  9795 00008C96 4809C9                  	or rPOk, rPOk
  9796 00008C99 7502                    	jnz SD04F7
  9797 00008C9B EB2B                    	jmp SDEnd04F7
  9798                                  SD04F7:
  9799 00008C9D E8(00000000)            	call pOut
  9800 00008CA2 254465636C696E6564-     	 db 0x25, "Declined, restricted card  Capture"
  9800 00008CAB 2C2072657374726963-
  9800 00008CB4 746564206361726420-
  9800 00008CBD E28093204361707475-
  9800 00008CC6 7265               
  9801                                  SDEnd04F7:
  9802 00008CC8 E305                    	jrcxz DL04F8
  9803 00008CCA E9C7080000              	jmp DLEnd0494
  9804 00008CCF 48FFC1                  DL04F8:	inc rcx
  9805 00008CD2 E8(00000000)            	call cTop
  9806 00008CD7 E8(00000000)            	call pIn
  9807 00008CDC 03323036                	 db 0x0003, "206"
  9808 00008CE0 4809C9                  	or rPOk, rPOk
  9809 00008CE3 7502                    	jnz SD04F9
  9810 00008CE5 EB38                    	jmp SDEnd04F9
  9811                                  SD04F9:
  9812 00008CE7 E8(00000000)            	call pOut
  9813 00008CEC 324465636C696E6564-     	 db 0x32, "Declined, allowable PIN tries exceeded  Capture"
  9813 00008CF5 2C20616C6C6F776162-
  9813 00008CFE 6C652050494E207472-
  9813 00008D07 696573206578636565-
  9813 00008D10 64656420E280932043-
  9813 00008D19 617074757265       
  9814                                  SDEnd04F9:
  9815 00008D1F E305                    	jrcxz DL04FA
  9816 00008D21 E970080000              	jmp DLEnd0494
  9817 00008D26 48FFC1                  DL04FA:	inc rcx
  9818 00008D29 E8(00000000)            	call cTop
  9819 00008D2E E8(00000000)            	call pIn
  9820 00008D33 03323038                	 db 0x0003, "208"
  9821 00008D37 4809C9                  	or rPOk, rPOk
  9822 00008D3A 7502                    	jnz SD04FB
  9823 00008D3C EB25                    	jmp SDEnd04FB
  9824                                  SD04FB:
  9825 00008D3E E8(00000000)            	call pOut
  9826 00008D43 1F4465636C696E6564-     	 db 0x1F, "Declined, lost card  Capture"
  9826 00008D4C 2C206C6F7374206361-
  9826 00008D55 726420E28093204361-
  9826 00008D5E 7074757265         
  9827                                  SDEnd04FB:
  9828 00008D63 E305                    	jrcxz DL04FC
  9829 00008D65 E92C080000              	jmp DLEnd0494
  9830 00008D6A 48FFC1                  DL04FC:	inc rcx
  9831 00008D6D E8(00000000)            	call cTop
  9832 00008D72 E8(00000000)            	call pIn
  9833 00008D77 03323039                	 db 0x0003, "209"
  9834 00008D7B 4809C9                  	or rPOk, rPOk
  9835 00008D7E 7502                    	jnz SD04FD
  9836 00008D80 EB28                    	jmp SDEnd04FD
  9837                                  SD04FD:
  9838 00008D82 E8(00000000)            	call pOut
  9839 00008D87 224465636C696E6564-     	 db 0x22, "Declined, stolen card  Capture "
  9839 00008D90 2C2073746F6C656E20-
  9839 00008D99 6361726420E2809320-
  9839 00008DA2 4361707475726520   
  9840                                  SDEnd04FD:
  9841 00008DAA E305                    	jrcxz DL04FE
  9842 00008DAC E9E5070000              	jmp DLEnd0494
  9843 00008DB1 48FFC1                  DL04FE:	inc rcx
  9844 00008DB4 E8(00000000)            	call cTop
  9845 00008DB9 E8(00000000)            	call pIn
  9846 00008DBE 03333030                	 db 0x0003, "300"
  9847 00008DC2 4809C9                  	or rPOk, rPOk
  9848 00008DC5 7502                    	jnz SD04FF
  9849 00008DC7 EB10                    	jmp SDEnd04FF
  9850                                  SD04FF:
  9851 00008DC9 E8(00000000)            	call pOut
  9852 00008DCE 0A5375636365737366-     	 db 0x0A, "Successful"
  9852 00008DD7 756C               
  9853                                  SDEnd04FF:
  9854 00008DD9 E305                    	jrcxz DL0500
  9855 00008DDB E9B6070000              	jmp DLEnd0494
  9856 00008DE0 48FFC1                  DL0500:	inc rcx
  9857 00008DE3 E8(00000000)            	call cTop
  9858 00008DE8 E8(00000000)            	call pIn
  9859 00008DED 03333032                	 db 0x0003, "302"
  9860 00008DF1 4809C9                  	or rPOk, rPOk
  9861 00008DF4 7502                    	jnz SD0501
  9862 00008DF6 EB25                    	jmp SDEnd0501
  9863                                  SD0501:
  9864 00008DF8 E8(00000000)            	call pOut
  9865 00008DFD 1F556E61626C652074-     	 db 0x1F, "Unable to locate record on file"
  9865 00008E06 6F206C6F6361746520-
  9865 00008E0F 7265636F7264206F6E-
  9865 00008E18 2066696C65         
  9866                                  SDEnd0501:
  9867 00008E1D E305                    	jrcxz DL0502
  9868 00008E1F E972070000              	jmp DLEnd0494
  9869 00008E24 48FFC1                  DL0502:	inc rcx
  9870 00008E27 E8(00000000)            	call cTop
  9871 00008E2C E8(00000000)            	call pIn
  9872 00008E31 03333036                	 db 0x0003, "306"
  9873 00008E35 4809C9                  	or rPOk, rPOk
  9874 00008E38 7502                    	jnz SD0503
  9875 00008E3A EB14                    	jmp SDEnd0503
  9876                                  SD0503:
  9877 00008E3C E8(00000000)            	call pOut
  9878 00008E41 0E4E6F742073756363-     	 db 0x0E, "Not successful"
  9878 00008E4A 65737366756C       
  9879                                  SDEnd0503:
  9880 00008E50 E305                    	jrcxz DL0504
  9881 00008E52 E93F070000              	jmp DLEnd0494
  9882 00008E57 48FFC1                  DL0504:	inc rcx
  9883 00008E5A E8(00000000)            	call cTop
  9884 00008E5F E8(00000000)            	call pIn
  9885 00008E64 03333039                	 db 0x0003, "309"
  9886 00008E68 4809C9                  	or rPOk, rPOk
  9887 00008E6B 7502                    	jnz SD0505
  9888 00008E6D EB12                    	jmp SDEnd0505
  9889                                  SD0505:
  9890 00008E6F E8(00000000)            	call pOut
  9891 00008E74 0C556E6B6E6F776E20-     	 db 0x0C, "Unknown file"
  9891 00008E7D 66696C65           
  9892                                  SDEnd0505:
  9893 00008E81 E305                    	jrcxz DL0506
  9894 00008E83 E90E070000              	jmp DLEnd0494
  9895 00008E88 48FFC1                  DL0506:	inc rcx
  9896 00008E8B E8(00000000)            	call cTop
  9897 00008E90 E8(00000000)            	call pIn
  9898 00008E95 03333830                	 db 0x0003, "380"
  9899 00008E99 4809C9                  	or rPOk, rPOk
  9900 00008E9C 7502                    	jnz SD0507
  9901 00008E9E EB26                    	jmp SDEnd0507
  9902                                  SD0507:
  9903 00008EA0 E8(00000000)            	call pOut
  9904 00008EA5 204465636C696E6564-     	 db 0x20, "Declined, Original PIN incorrect"
  9904 00008EAE 2C204F726967696E61-
  9904 00008EB7 6C2050494E20696E63-
  9904 00008EC0 6F7272656374       
  9905                                  SDEnd0507:
  9906 00008EC6 E305                    	jrcxz DL0508
  9907 00008EC8 E9C9060000              	jmp DLEnd0494
  9908 00008ECD 48FFC1                  DL0508:	inc rcx
  9909 00008ED0 E8(00000000)            	call cTop
  9910 00008ED5 E8(00000000)            	call pIn
  9911 00008EDA 03333831                	 db 0x0003, "381"
  9912 00008EDE 4809C9                  	or rPOk, rPOk
  9913 00008EE1 7502                    	jnz SD0509
  9914 00008EE3 EB2C                    	jmp SDEnd0509
  9915                                  SD0509:
  9916 00008EE5 E8(00000000)            	call pOut
  9917 00008EEA 264465636C696E6564-     	 db 0x26, "Declined, Allowable PIN tries exceeded"
  9917 00008EF3 2C20416C6C6F776162-
  9917 00008EFC 6C652050494E207472-
  9917 00008F05 696573206578636565-
  9917 00008F0E 646564             
  9918                                  SDEnd0509:
  9919 00008F11 E305                    	jrcxz DL050A
  9920 00008F13 E97E060000              	jmp DLEnd0494
  9921 00008F18 48FFC1                  DL050A:	inc rcx
  9922 00008F1B E8(00000000)            	call cTop
  9923 00008F20 E8(00000000)            	call pIn
  9924 00008F25 03333832                	 db 0x0003, "382"
  9925 00008F29 4809C9                  	or rPOk, rPOk
  9926 00008F2C 7502                    	jnz SD050B
  9927 00008F2E EB21                    	jmp SDEnd050B
  9928                                  SD050B:
  9929 00008F30 E8(00000000)            	call pOut
  9930 00008F35 1B4465636C696E6564-     	 db 0x1B, "Declined, PIN data required"
  9930 00008F3E 2C2050494E20646174-
  9930 00008F47 612072657175697265-
  9930 00008F50 64                 
  9931                                  SDEnd050B:
  9932 00008F51 E305                    	jrcxz DL050C
  9933 00008F53 E93E060000              	jmp DLEnd0494
  9934 00008F58 48FFC1                  DL050C:	inc rcx
  9935 00008F5B E8(00000000)            	call cTop
  9936 00008F60 E8(00000000)            	call pIn
  9937 00008F65 03333833                	 db 0x0003, "383"
  9938 00008F69 4809C9                  	or rPOk, rPOk
  9939 00008F6C 7502                    	jnz SD050D
  9940 00008F6E EB21                    	jmp SDEnd050D
  9941                                  SD050D:
  9942 00008F70 E8(00000000)            	call pOut
  9943 00008F75 1B4465636C696E6564-     	 db 0x1B, "Declined, Invalid PIN block"
  9943 00008F7E 2C20496E76616C6964-
  9943 00008F87 2050494E20626C6F63-
  9943 00008F90 6B                 
  9944                                  SDEnd050D:
  9945 00008F91 E305                    	jrcxz DL050E
  9946 00008F93 E9FE050000              	jmp DLEnd0494
  9947 00008F98 48FFC1                  DL050E:	inc rcx
  9948 00008F9B E8(00000000)            	call cTop
  9949 00008FA0 E8(00000000)            	call pIn
  9950 00008FA5 03333834                	 db 0x0003, "384"
  9951 00008FA9 4809C9                  	or rPOk, rPOk
  9952 00008FAC 7502                    	jnz SD050F
  9953 00008FAE EB20                    	jmp SDEnd050F
  9954                                  SD050F:
  9955 00008FB0 E8(00000000)            	call pOut
  9956 00008FB5 1A4465636C696E6564-     	 db 0x1A, "Declined, PIN length error"
  9956 00008FBE 2C2050494E206C656E-
  9956 00008FC7 677468206572726F72 
  9957                                  SDEnd050F:
  9958 00008FD0 E305                    	jrcxz DL0510
  9959 00008FD2 E9BF050000              	jmp DLEnd0494
  9960 00008FD7 48FFC1                  DL0510:	inc rcx
  9961 00008FDA E8(00000000)            	call cTop
  9962 00008FDF E8(00000000)            	call pIn
  9963 00008FE4 03333835                	 db 0x0003, "385"
  9964 00008FE8 4809C9                  	or rPOk, rPOk
  9965 00008FEB 7502                    	jnz SD0511
  9966 00008FED EB3A                    	jmp SDEnd0511
  9967                                  SD0511:
  9968 00008FEF E8(00000000)            	call pOut
  9969 00008FF4 344465636C696E6564-     	 db 0x34, "Declined, Allowable PIN retries exceeded  Capture"
  9969 00008FFD 2C20416C6C6F776162-
  9969 00009006 6C652050494E207265-
  9969 0000900F 747269657320657863-
  9969 00009018 656564656420E28093-
  9969 00009021 2043617074757265   
  9970                                  SDEnd0511:
  9971 00009029 E305                    	jrcxz DL0512
  9972 0000902B E966050000              	jmp DLEnd0494
  9973 00009030 48FFC1                  DL0512:	inc rcx
  9974 00009033 E8(00000000)            	call cTop
  9975 00009038 E8(00000000)            	call pIn
  9976 0000903D 03343030                	 db 0x0003, "400"
  9977 00009041 4809C9                  	or rPOk, rPOk
  9978 00009044 7502                    	jnz SD0513
  9979 00009046 EB14                    	jmp SDEnd0513
  9980                                  SD0513:
  9981 00009048 E8(00000000)            	call pOut
  9982 0000904D 0E4163636570746564-     	 db 0x0E, "Accepted (400)"
  9982 00009056 202834303029       
  9983                                  SDEnd0513:
  9984 0000905C E305                    	jrcxz DL0514
  9985 0000905E E933050000              	jmp DLEnd0494
  9986 00009063 48FFC1                  DL0514:	inc rcx
  9987 00009066 E8(00000000)            	call cTop
  9988 0000906B E8(00000000)            	call pIn
  9989 00009070 03343830                	 db 0x0003, "480"
  9990 00009074 4809C9                  	or rPOk, rPOk
  9991 00009077 7502                    	jnz SD0515
  9992 00009079 EB37                    	jmp SDEnd0515
  9993                                  SD0515:
  9994 0000907B E8(00000000)            	call pOut
  9995 00009080 314163636570746564-     	 db 0x31, "Accepted but not matched against previous request"
  9995 00009089 20627574206E6F7420-
  9995 00009092 6D6174636865642061-
  9995 0000909B 6761696E7374207072-
  9995 000090A4 6576696F7573207265-
  9995 000090AD 7175657374         
  9996                                  SDEnd0515:
  9997 000090B2 E305                    	jrcxz DL0516
  9998 000090B4 E9DD040000              	jmp DLEnd0494
  9999 000090B9 48FFC1                  DL0516:	inc rcx
 10000 000090BC E8(00000000)            	call cTop
 10001 000090C1 E8(00000000)            	call pIn
 10002 000090C6 03353030                	 db 0x0003, "500"
 10003 000090CA 4809C9                  	or rPOk, rPOk
 10004 000090CD 7502                    	jnz SD0517
 10005 000090CF EB36                    	jmp SDEnd0517
 10006                                  SD0517:
 10007 000090D1 E8(00000000)            	call pOut
 10008 000090D6 305265636F6E63696C-     	 db 0x30, "Reconciled: In balance. Always return successful"
 10008 000090DF 65643A20496E206261-
 10008 000090E8 6C616E63652E20416C-
 10008 000090F1 776179732072657475-
 10008 000090FA 726E20737563636573-
 10008 00009103 7366756C           
 10009                                  SDEnd0517:
 10010 00009107 E305                    	jrcxz DL0518
 10011 00009109 E988040000              	jmp DLEnd0494
 10012 0000910E 48FFC1                  DL0518:	inc rcx
 10013 00009111 E8(00000000)            	call cTop
 10014 00009116 E8(00000000)            	call pIn
 10015 0000911B 03353031                	 db 0x0003, "501"
 10016 0000911F 4809C9                  	or rPOk, rPOk
 10017 00009122 7502                    	jnz SD0519
 10018 00009124 EB20                    	jmp SDEnd0519
 10019                                  SD0519:
 10020 00009126 E8(00000000)            	call pOut
 10021 0000912B 1A5265636F6E63696C-     	 db 0x1A, "Reconciled: Out of balance"
 10021 00009134 65643A204F7574206F-
 10021 0000913D 662062616C616E6365 
 10022                                  SDEnd0519:
 10023 00009146 E305                    	jrcxz DL051A
 10024 00009148 E949040000              	jmp DLEnd0494
 10025 0000914D 48FFC1                  DL051A:	inc rcx
 10026 00009150 E8(00000000)            	call cTop
 10027 00009155 E8(00000000)            	call pIn
 10028 0000915A 03353830                	 db 0x0003, "580"
 10029 0000915E 4809C9                  	or rPOk, rPOk
 10030 00009161 7502                    	jnz SD051B
 10031 00009163 EB3E                    	jmp SDEnd051B
 10032                                  SD051B:
 10033 00009165 E8(00000000)            	call pOut
 10034 0000916A 385265636F6E63696C-     	 db 0x38, "Reconciled; Out of balance do not attempt error recovery"
 10034 00009173 65643B204F7574206F-
 10034 0000917C 662062616C616E6365-
 10034 00009185 20646F206E6F742061-
 10034 0000918E 7474656D7074206572-
 10034 00009197 726F72207265636F76-
 10034 000091A0 657279             
 10035                                  SDEnd051B:
 10036 000091A3 E305                    	jrcxz DL051C
 10037 000091A5 E9EC030000              	jmp DLEnd0494
 10038 000091AA 48FFC1                  DL051C:	inc rcx
 10039 000091AD E8(00000000)            	call cTop
 10040 000091B2 E8(00000000)            	call pIn
 10041 000091B7 03383030                	 db 0x0003, "800"
 10042 000091BB 4809C9                  	or rPOk, rPOk
 10043 000091BE 7502                    	jnz SD051D
 10044 000091C0 EB14                    	jmp SDEnd051D
 10045                                  SD051D:
 10046 000091C2 E8(00000000)            	call pOut
 10047 000091C7 0E4163636570746564-     	 db 0x0E, "Accepted (800)"
 10047 000091D0 202838303029       
 10048                                  SDEnd051D:
 10049 000091D6 E305                    	jrcxz DL051E
 10050 000091D8 E9B9030000              	jmp DLEnd0494
 10051 000091DD 48FFC1                  DL051E:	inc rcx
 10052 000091E0 E8(00000000)            	call cTop
 10053 000091E5 E8(00000000)            	call pIn
 10054 000091EA 03393030                	 db 0x0003, "900"
 10055 000091EE 4809C9                  	or rPOk, rPOk
 10056 000091F1 7502                    	jnz SD051F
 10057 000091F3 EB6D                    	jmp SDEnd051F
 10058                                  SD051F:
 10059 000091F5 E8(00000000)            	call pOut
 10060 000091FA 674164766963652061-     	 db 0x67, "Advice acknowledged - no financial liability accepted  transactions, which are settled by another means"
 10060 00009203 636B6E6F776C656467-
 10060 0000920C 6564202D206E6F2066-
 10060 00009215 696E616E6369616C20-
 10060 0000921E 6C696162696C697479-
 10060 00009227 206163636570746564-
 10060 00009230 20207472616E736163-
 10060 00009239 74696F6E732C207768-
 10060 00009242 696368206172652073-
 10060 0000924B 6574746C6564206279-
 10060 00009254 20616E6F7468657220-
 10060 0000925D 6D65616E73         
 10061                                  SDEnd051F:
 10062 00009262 E305                    	jrcxz DL0520
 10063 00009264 E92D030000              	jmp DLEnd0494
 10064 00009269 48FFC1                  DL0520:	inc rcx
 10065 0000926C E8(00000000)            	call cTop
 10066 00009271 E8(00000000)            	call pIn
 10067 00009276 03393031                	 db 0x0003, "901"
 10068 0000927A 4809C9                  	or rPOk, rPOk
 10069 0000927D 7502                    	jnz SD0521
 10070 0000927F EB68                    	jmp SDEnd0521
 10071                                  SD0521:
 10072 00009281 E8(00000000)            	call pOut
 10073 00009286 624164766963652061-     	 db 0x62, "Advice acknowledged - financial liability accepted =. OLTC transactions, which are settled on line"
 10073 0000928F 636B6E6F776C656467-
 10073 00009298 6564202D2066696E61-
 10073 000092A1 6E6369616C206C6961-
 10073 000092AA 62696C697479206163-
 10073 000092B3 636570746564203D2E-
 10073 000092BC 204F4C544320747261-
 10073 000092C5 6E73616374696F6E73-
 10073 000092CE 2C2077686963682061-
 10073 000092D7 726520736574746C65-
 10073 000092E0 64206F6E206C696E65 
 10074                                  SDEnd0521:
 10075 000092E9 E305                    	jrcxz DL0522
 10076 000092EB E9A6020000              	jmp DLEnd0494
 10077 000092F0 48FFC1                  DL0522:	inc rcx
 10078 000092F3 E8(00000000)            	call cTop
 10079 000092F8 E8(00000000)            	call pIn
 10080 000092FD 03393034                	 db 0x0003, "904"
 10081 00009301 4809C9                  	or rPOk, rPOk
 10082 00009304 7502                    	jnz SD0523
 10083 00009306 EB1C                    	jmp SDEnd0523
 10084                                  SD0523:
 10085 00009308 E8(00000000)            	call pOut
 10086 0000930D 164465636C696E6564-     	 db 0x16, "Declined, format error"
 10086 00009316 2C20666F726D617420-
 10086 0000931F 6572726F72         
 10087                                  SDEnd0523:
 10088 00009324 E305                    	jrcxz DL0524
 10089 00009326 E96B020000              	jmp DLEnd0494
 10090 0000932B 48FFC1                  DL0524:	inc rcx
 10091 0000932E E8(00000000)            	call cTop
 10092 00009333 E8(00000000)            	call pIn
 10093 00009338 03393036                	 db 0x0003, "906"
 10094 0000933C 4809C9                  	or rPOk, rPOk
 10095 0000933F 7502                    	jnz SD0525
 10096 00009341 EB22                    	jmp SDEnd0525
 10097                                  SD0525:
 10098 00009343 E8(00000000)            	call pOut
 10099 00009348 1C4465636C696E6564-     	 db 0x1C, "Declined, utover in progress"
 10099 00009351 2C2075746F76657220-
 10099 0000935A 696E2070726F677265-
 10099 00009363 7373               
 10100                                  SDEnd0525:
 10101 00009365 E305                    	jrcxz DL0526
 10102 00009367 E92A020000              	jmp DLEnd0494
 10103 0000936C 48FFC1                  DL0526:	inc rcx
 10104 0000936F E8(00000000)            	call cTop
 10105 00009374 E8(00000000)            	call pIn
 10106 00009379 03393037                	 db 0x0003, "907"
 10107 0000937D 4809C9                  	or rPOk, rPOk
 10108 00009380 7502                    	jnz SD0527
 10109 00009382 EB31                    	jmp SDEnd0527
 10110                                  SD0527:
 10111 00009384 E8(00000000)            	call pOut
 10112 00009389 2B4465636C696E6564-     	 db 0x2B, "Declined, card issuer or switch inoperative"
 10112 00009392 2C2063617264206973-
 10112 0000939B 73756572206F722073-
 10112 000093A4 776974636820696E6F-
 10112 000093AD 7065726174697665   
 10113                                  SDEnd0527:
 10114 000093B5 E305                    	jrcxz DL0528
 10115 000093B7 E9DA010000              	jmp DLEnd0494
 10116 000093BC 48FFC1                  DL0528:	inc rcx
 10117 000093BF E8(00000000)            	call cTop
 10118 000093C4 E8(00000000)            	call pIn
 10119 000093C9 03393039                	 db 0x0003, "909"
 10120 000093CD 4809C9                  	or rPOk, rPOk
 10121 000093D0 7502                    	jnz SD0529
 10122 000093D2 EB22                    	jmp SDEnd0529
 10123                                  SD0529:
 10124 000093D4 E8(00000000)            	call pOut
 10125 000093D9 1C4465636C696E6564-     	 db 0x1C, "Declined, system malfunction"
 10125 000093E2 2C2073797374656D20-
 10125 000093EB 6D616C66756E637469-
 10125 000093F4 6F6E               
 10126                                  SDEnd0529:
 10127 000093F6 E305                    	jrcxz DL052A
 10128 000093F8 E999010000              	jmp DLEnd0494
 10129 000093FD 48FFC1                  DL052A:	inc rcx
 10130 00009400 E8(00000000)            	call cTop
 10131 00009405 E8(00000000)            	call pIn
 10132 0000940A 03393131                	 db 0x0003, "911"
 10133 0000940E 4809C9                  	or rPOk, rPOk
 10134 00009411 7502                    	jnz SD052B
 10135 00009413 EB25                    	jmp SDEnd052B
 10136                                  SD052B:
 10137 00009415 E8(00000000)            	call pOut
 10138 0000941A 1F4465636C696E6564-     	 db 0x1F, "Declined, card issuer timed out"
 10138 00009423 2C2063617264206973-
 10138 0000942C 737565722074696D65-
 10138 00009435 64206F7574         
 10139                                  SDEnd052B:
 10140 0000943A E305                    	jrcxz DL052C
 10141 0000943C E955010000              	jmp DLEnd0494
 10142 00009441 48FFC1                  DL052C:	inc rcx
 10143 00009444 E8(00000000)            	call cTop
 10144 00009449 E8(00000000)            	call pIn
 10145 0000944E 03393132                	 db 0x0003, "912"
 10146 00009452 4809C9                  	or rPOk, rPOk
 10147 00009455 7502                    	jnz SD052D
 10148 00009457 EB27                    	jmp SDEnd052D
 10149                                  SD052D:
 10150 00009459 E8(00000000)            	call pOut
 10151 0000945E 214465636C696E6564-     	 db 0x21, "Declined, card issuer unavailable"
 10151 00009467 2C2063617264206973-
 10151 00009470 7375657220756E6176-
 10151 00009479 61696C61626C65     
 10152                                  SDEnd052D:
 10153 00009480 E305                    	jrcxz DL052E
 10154 00009482 E90F010000              	jmp DLEnd0494
 10155 00009487 48FFC1                  DL052E:	inc rcx
 10156 0000948A E8(00000000)            	call cTop
 10157 0000948F E8(00000000)            	call pIn
 10158 00009494 03393136                	 db 0x0003, "916"
 10159 00009498 4809C9                  	or rPOk, rPOk
 10160 0000949B 7502                    	jnz SD052F
 10161 0000949D EB1D                    	jmp SDEnd052F
 10162                                  SD052F:
 10163 0000949F E8(00000000)            	call pOut
 10164 000094A4 174465636C696E6564-     	 db 0x17, "Declined, MAC incorrect"
 10164 000094AD 2C204D414320696E63-
 10164 000094B6 6F7272656374       
 10165                                  SDEnd052F:
 10166 000094BC E305                    	jrcxz DL0530
 10167 000094BE E9D3000000              	jmp DLEnd0494
 10168 000094C3 48FFC1                  DL0530:	inc rcx
 10169 000094C6 E8(00000000)            	call cTop
 10170 000094CB E8(00000000)            	call pIn
 10171 000094D0 03393137                	 db 0x0003, "917"
 10172 000094D4 4809C9                  	or rPOk, rPOk
 10173 000094D7 7502                    	jnz SD0531
 10174 000094D9 EB23                    	jmp SDEnd0531
 10175                                  SD0531:
 10176 000094DB E8(00000000)            	call pOut
 10177 000094E0 1D4465636C696E6564-     	 db 0x1D, "Declined, MAC key synch error"
 10177 000094E9 2C204D4143206B6579-
 10177 000094F2 2073796E6368206572-
 10177 000094FB 726F72             
 10178                                  SDEnd0531:
 10179 000094FE E305                    	jrcxz DL0532
 10180 00009500 E991000000              	jmp DLEnd0494
 10181 00009505 48FFC1                  DL0532:	inc rcx
 10182 00009508 E8(00000000)            	call cTop
 10183 0000950D E8(00000000)            	call pIn
 10184 00009512 03393231                	 db 0x0003, "921"
 10185 00009516 4809C9                  	or rPOk, rPOk
 10186 00009519 7502                    	jnz SD0533
 10187 0000951B EB2F                    	jmp SDEnd0533
 10188                                  SD0533:
 10189 0000951D E8(00000000)            	call pOut
 10190 00009522 295365637572697479-     	 db 0x29, "Security, soft/hardware error - no action"
 10190 0000952B 2C20736F66742F6861-
 10190 00009534 726477617265206572-
 10190 0000953D 726F72202D206E6F20-
 10190 00009546 616374696F6E       
 10191                                  SDEnd0533:
 10192 0000954C E302                    	jrcxz DL0534
 10193 0000954E EB46                    	jmp DLEnd0494
 10194 00009550 48FFC1                  DL0534:	inc rcx
 10195 00009553 E8(00000000)            	call cTop
 10196 00009558 E8(00000000)            	call pIn
 10197 0000955D 03393232                	 db 0x0003, "922"
 10198 00009561 4809C9                  	or rPOk, rPOk
 10199 00009564 7502                    	jnz SD0535
 10200 00009566 EB2E                    	jmp SDEnd0535
 10201                                  SD0535:
 10202 00009568 E8(00000000)            	call pOut
 10203 0000956D 284465636C696E6564-     	 db 0x28, "Declined, message number out of sequence"
 10203 00009576 2C206D657373616765-
 10203 0000957F 206E756D626572206F-
 10203 00009588 7574206F6620736571-
 10203 00009591 75656E6365         
 10204                                  SDEnd0535:
 10205                                  DLEnd0494:
 10206 00009596 E8(00000000)            	call cDrop
 10207 0000959B C3                      	ret
 10208                                  
 10209                                  ;Bit39 =	"000", pOut("Approved")|
 10210                                  ;	"001", pOut("Approved, honour with Identification")|
 10211                                  ;	"002", pOut("Approved, for partial amount")|
 10212                                  ;	"003", pOut("Approved, VIP")|
 10213                                  ;	"005", pOut("Approved, account type specified by card issuer")|
 10214                                  ;	"006", pOut("Approved, for partial amount, account type specified by card issuer")|
 10215                                  ;	"007", pOut("Approved, update ICC")|
 10216                                  ;	"080", pOut("Approved, (liability not accepted)")|
 10217                                  ;	"081", pOut("Declined, honor with Identification (liability not accepted)")|
 10218                                  ;	"100", pOut("Declined, do not honour")|
 10219                                  ;	"101", pOut("Declined, expired card")|
 10220                                  ;	"102", pOut("Declined, suspected fraud")|
 10221                                  ;	"103", pOut("Declined, card Acceptor contact acquirer")|
 10222                                  ;	"104", pOut("Declined, restricted card")|
 10223                                  ;	"106", pOut("Declined, allowable PIN tries exceeded")|
 10224                                  ;	"107", pOut("Declined, refer to Card Issuer")|
 10225                                  ;	"108", pOut("Declined, refer to card issuers special conditions for use May be combined with message in 62-3")|
 10226                                  ;	"109", pOut("Declined, invalid merchant")|
 10227                                  ;	"110", pOut("Declined, invalid Amount")|
 10228                                  ;	"111", pOut("Declined, invalid Card Number")|
 10229                                  ;	"112", pOut("Declined, PIN data required")|
 10230                                  ;	"114", pOut("Declined, no account of type requested")|
 10231                                  ;	"115", pOut("Declined, requested Function not supported")|
 10232                                  ;	"116", pOut("Declined, not sufficient funds")|
 10233                                  ;	"117", pOut("Declined, incorrect PIN")|
 10234                                  ;	"118", pOut("Declined, no card record")|
 10235                                  ;	"119", pOut("Declined, transaction not permitted to the customer")|
 10236                                  ;	"120", pOut("Declined, transaction not permitted to the terminal")|
 10237                                  ;	"121", pOut("Declined, exceeds withdrawal amount limit")|
 10238                                  ;	"122", pOut("Declined, security violation")|
 10239                                  ;	"123", pOut("Declined, exceeds withdrawal frequency limit")|
 10240                                  ;	"125", pOut("Declined, card not effective")|
 10241                                  ;	"126", pOut("Declined, invalid PIN block")|
 10242                                  ;	"127", pOut("Declined, PIN length error")|
 10243                                  ;	"128", pOut("Declined, PIN key sync error")|
 10244                                  ;	"180", pOut("Declined, redemption denied/mismatch by 2nd card mismatch")|
 10245                                  ;	"181", pOut("Declined, card blocked")|
 10246                                  ;	"182", pOut("Declined, account blocked")|
 10247                                  ;	"183", pOut("Declined, incorrect odometer reading")|
 10248                                  ;	"185", pOut("Declined, product(s) not allowed")|
 10249                                  ;	"186", pOut("Declined, allowable PIN tries exceeded")|
 10250                                  ;	"187", pOut("Declined, previous PIN used")|
 10251                                  ;	"188", pOut("Declined, PIN change required")|
 10252                                  ;	"190", pOut("Declined, RFID: Transponder is blocked")|
 10253                                  ;	"191", pOut("Declined, RFID: Unknown transponder")|
 10254                                  ;	"192", pOut("Declined, RFID: Illegal challenge response")|
 10255                                  ;	"200", pOut("Declined, do not honor  Capture")|
 10256                                  ;	"201", pOut("Declined, expired card  Capture")|
 10257                                  ;	"202", pOut("Declined, suspected fraud  Capture")|
 10258                                  ;	"203", pOut("Declined, card acceptor contact acquirer  Capture")|
 10259                                  ;	"204", pOut("Declined, restricted card  Capture")|
 10260                                  ;	"206", pOut("Declined, allowable PIN tries exceeded  Capture")|
 10261                                  ;	"208", pOut("Declined, lost card  Capture")|
 10262                                  ;	"209", pOut("Declined, stolen card  Capture ")|
 10263                                  ;	"300", pOut("Successful")|
 10264                                  ;	"302", pOut("Unable to locate record on file")|
 10265                                  ;	"306", pOut("Not successful")|
 10266                                  ;	"309", pOut("Unknown file")|
 10267                                  ;  	"380", pOut("Declined, Original PIN incorrect")|   
 10268                                  ;	"381", pOut("Declined, Allowable PIN tries exceeded")|   
 10269                                  ;	"382", pOut("Declined, PIN data required")|   
 10270                                  ;	"383", pOut("Declined, Invalid PIN block")|   
 10271                                  ;	"384", pOut("Declined, PIN length error")|   
 10272                                  ;	"385", pOut("Declined, Allowable PIN retries exceeded  Capture")| 
 10273                                  ;	"400", pOut("Accepted (400)")|
 10274                                  ;	"480", pOut("Accepted but not matched against previous request")|
 10275                                  ;	"500", pOut("Reconciled: In balance. Always return successful")| 
 10276                                  ;	"501", pOut("Reconciled: Out of balance")|
 10277                                  ;	"580", pOut("Reconciled; Out of balance do not attempt error recovery")|
 10278                                  ;	"800", pOut("Accepted (800)")|
 10279                                  ;	"900", pOut("Advice acknowledged - no financial liability accepted  transactions, which are settled by another means")|
 10280                                  ;	"901", pOut("Advice acknowledged - financial liability accepted =. OLTC transactions, which are settled on line")|
 10281                                  ;	"904", pOut("Declined, format error")|
 10282                                  ;	"906", pOut("Declined, utover in progress")| 
 10283                                  ;	"907", pOut("Declined, card issuer or switch inoperative")|
 10284                                  ;	"909", pOut("Declined, system malfunction")|
 10285                                  ;	"911", pOut("Declined, card issuer timed out")|
 10286                                  ;	"912", pOut("Declined, card issuer unavailable")|
 10287                                  ;	"916", pOut("Declined, MAC incorrect")|
 10288                                  ;	"917", pOut("Declined, MAC key synch error")|
 10289                                  ;	"921", pOut("Security, soft/hardware error - no action")|
 10290                                  ;	"922", pOut("Declined, message number out of sequence");
 10291                                  ;
 10292                                  
 10293                                  ;xxxxxxxxxxxxxxxxxxxxxxxxxxxxxxxxxxxxxxxxxxxxxxxxxxxxxxxxxxxxxxxxxxxxxxxxxxxxxx
 10294                                  Bit49:
 10295 0000959C E8(00000000)            	call cPush
 10296 000095A1 E8(00000000)            	call pIn
 10297 000095A6 03393939                	 db 0x0003, "999"
 10298 000095AA 4809C9                  	or rPOk, rPOk
 10299 000095AD 7502                    	jnz SD0536
 10300 000095AF EB0F                    	jmp SDEnd0536
 10301                                  SD0536:
 10302 000095B1 E8(00000000)            	call pOut
 10303 000095B6 094C69746572204944-     	 db 0x09, "Liter IDS"
 10303 000095BF 53                 
 10304                                  SDEnd0536:
 10305 000095C0 E305                    	jrcxz DL0537
 10306 000095C2 E9B9020000              	jmp DLEnd0537
 10307 000095C7 48FFC1                  DL0537:	inc rcx
 10308 000095CA E8(00000000)            	call cTop
 10309 000095CF E8(00000000)            	call pIn
 10310 000095D4 03393738                	 db 0x0003, "978"
 10311 000095D8 4809C9                  	or rPOk, rPOk
 10312 000095DB 7502                    	jnz SD0538
 10313 000095DD EB0E                    	jmp SDEnd0538
 10314                                  SD0538:
 10315 000095DF E8(00000000)            	call pOut
 10316 000095E4 08455552204575726F      	 db 0x08, "EUR Euro"
 10317                                  SDEnd0538:
 10318 000095ED E305                    	jrcxz DL0539
 10319 000095EF E98C020000              	jmp DLEnd0537
 10320 000095F4 48FFC1                  DL0539:	inc rcx
 10321 000095F7 E8(00000000)            	call cTop
 10322 000095FC E8(00000000)            	call pIn
 10323 00009601 03383236                	 db 0x0003, "826"
 10324 00009605 4809C9                  	or rPOk, rPOk
 10325 00009608 7502                    	jnz SD053A
 10326 0000960A EB18                    	jmp SDEnd053A
 10327                                  SD053A:
 10328 0000960C E8(00000000)            	call pOut
 10329 00009611 1247425020506F756E-     	 db 0x12, "GBP Pound Sterling"
 10329 0000961A 6420537465726C696E-
 10329 00009623 67                 
 10330                                  SDEnd053A:
 10331 00009624 E305                    	jrcxz DL053B
 10332 00009626 E955020000              	jmp DLEnd0537
 10333 0000962B 48FFC1                  DL053B:	inc rcx
 10334 0000962E E8(00000000)            	call cTop
 10335 00009633 E8(00000000)            	call pIn
 10336 00009638 03323033                	 db 0x0003, "203"
 10337 0000963C 4809C9                  	or rPOk, rPOk
 10338 0000963F 7502                    	jnz SD053C
 10339 00009641 EB16                    	jmp SDEnd053C
 10340                                  SD053C:
 10341 00009643 E8(00000000)            	call pOut
 10342 00009648 10435A4B20437A6563-     	 db 0x10, "CZK Czech Koruna"
 10342 00009651 68204B6F72756E61   
 10343                                  SDEnd053C:
 10344 00009659 E305                    	jrcxz DL053D
 10345 0000965B E920020000              	jmp DLEnd0537
 10346 00009660 48FFC1                  DL053D:	inc rcx
 10347 00009663 E8(00000000)            	call cTop
 10348 00009668 E8(00000000)            	call pIn
 10349 0000966D 03353738                	 db 0x0003, "578"
 10350 00009671 4809C9                  	or rPOk, rPOk
 10351 00009674 7502                    	jnz SD053E
 10352 00009676 EB19                    	jmp SDEnd053E
 10353                                  SD053E:
 10354 00009678 E8(00000000)            	call pOut
 10355 0000967D 134E4F4B204E6F7277-     	 db 0x13, "NOK Norwegian Krone"
 10355 00009686 656769616E204B726F-
 10355 0000968F 6E65               
 10356                                  SDEnd053E:
 10357 00009691 E305                    	jrcxz DL053F
 10358 00009693 E9E8010000              	jmp DLEnd0537
 10359 00009698 48FFC1                  DL053F:	inc rcx
 10360 0000969B E8(00000000)            	call cTop
 10361 000096A0 E8(00000000)            	call pIn
 10362 000096A5 03373532                	 db 0x0003, "752"
 10363 000096A9 4809C9                  	or rPOk, rPOk
 10364 000096AC 7502                    	jnz SD0540
 10365 000096AE EB17                    	jmp SDEnd0540
 10366                                  SD0540:
 10367 000096B0 E8(00000000)            	call pOut
 10368 000096B5 1153454B2053776564-     	 db 0x11, "SEK Swedish Krona"
 10368 000096BE 697368204B726F6E61 
 10369                                  SDEnd0540:
 10370 000096C7 E305                    	jrcxz DL0541
 10371 000096C9 E9B2010000              	jmp DLEnd0537
 10372 000096CE 48FFC1                  DL0541:	inc rcx
 10373 000096D1 E8(00000000)            	call cTop
 10374 000096D6 E8(00000000)            	call pIn
 10375 000096DB 03323038                	 db 0x0003, "208"
 10376 000096DF 4809C9                  	or rPOk, rPOk
 10377 000096E2 7502                    	jnz SD0542
 10378 000096E4 EB16                    	jmp SDEnd0542
 10379                                  SD0542:
 10380 000096E6 E8(00000000)            	call pOut
 10381 000096EB 10444B4B2044616E69-     	 db 0x10, "DKK Danish Krone"
 10381 000096F4 7368204B726F6E65   
 10382                                  SDEnd0542:
 10383 000096FC E305                    	jrcxz DL0543
 10384 000096FE E97D010000              	jmp DLEnd0537
 10385 00009703 48FFC1                  DL0543:	inc rcx
 10386 00009706 E8(00000000)            	call cTop
 10387 0000970B E8(00000000)            	call pIn
 10388 00009710 03383130                	 db 0x0003, "810"
 10389 00009714 4809C9                  	or rPOk, rPOk
 10390 00009717 7502                    	jnz SD0544
 10391 00009719 EB17                    	jmp SDEnd0544
 10392                                  SD0544:
 10393 0000971B E8(00000000)            	call pOut
 10394 00009720 115255522052757373-     	 db 0x11, "RUR Russian Ruble"
 10394 00009729 69616E205275626C65 
 10395                                  SDEnd0544:
 10396 00009732 E305                    	jrcxz DL0545
 10397 00009734 E947010000              	jmp DLEnd0537
 10398 00009739 48FFC1                  DL0545:	inc rcx
 10399 0000973C E8(00000000)            	call cTop
 10400 00009741 E8(00000000)            	call pIn
 10401 00009746 03363433                	 db 0x0003, "643"
 10402 0000974A 4809C9                  	or rPOk, rPOk
 10403 0000974D 7502                    	jnz SD0546
 10404 0000974F EB17                    	jmp SDEnd0546
 10405                                  SD0546:
 10406 00009751 E8(00000000)            	call pOut
 10407 00009756 115255422052757373-     	 db 0x11, "RUB Russian Ruble"
 10407 0000975F 69616E205275626C65 
 10408                                  SDEnd0546:
 10409 00009768 E305                    	jrcxz DL0547
 10410 0000976A E911010000              	jmp DLEnd0537
 10411 0000976F 48FFC1                  DL0547:	inc rcx
 10412 00009772 E8(00000000)            	call cTop
 10413 00009777 E8(00000000)            	call pIn
 10414 0000977C 03363432                	 db 0x0003, "642"
 10415 00009780 4809C9                  	or rPOk, rPOk
 10416 00009783 7502                    	jnz SD0548
 10417 00009785 EB0D                    	jmp SDEnd0548
 10418                                  SD0548:
 10419 00009787 E8(00000000)            	call pOut
 10420 0000978C 07524F4C204C6575        	 db 0x07, "ROL Leu"
 10421                                  SDEnd0548:
 10422 00009794 E305                    	jrcxz DL0549
 10423 00009796 E9E5000000              	jmp DLEnd0537
 10424 0000979B 48FFC1                  DL0549:	inc rcx
 10425 0000979E E8(00000000)            	call cTop
 10426 000097A3 E8(00000000)            	call pIn
 10427 000097A8 03333438                	 db 0x0003, "348"
 10428 000097AC 4809C9                  	or rPOk, rPOk
 10429 000097AF 7502                    	jnz SD054A
 10430 000097B1 EB10                    	jmp SDEnd054A
 10431                                  SD054A:
 10432 000097B3 E8(00000000)            	call pOut
 10433 000097B8 0A48554620466F7269-     	 db 0x0A, "HUF Forint"
 10433 000097C1 6E74               
 10434                                  SDEnd054A:
 10435 000097C3 E305                    	jrcxz DL054B
 10436 000097C5 E9B6000000              	jmp DLEnd0537
 10437 000097CA 48FFC1                  DL054B:	inc rcx
 10438 000097CD E8(00000000)            	call cTop
 10439 000097D2 E8(00000000)            	call pIn
 10440 000097D7 03373033                	 db 0x0003, "703"
 10441 000097DB 4809C9                  	or rPOk, rPOk
 10442 000097DE 7502                    	jnz SD054C
 10443 000097E0 EB17                    	jmp SDEnd054C
 10444                                  SD054C:
 10445 000097E2 E8(00000000)            	call pOut
 10446 000097E7 11534B4B20536C6F76-     	 db 0x11, "SKK Slovak Koruna"
 10446 000097F0 616B204B6F72756E61 
 10447                                  SDEnd054C:
 10448 000097F9 E305                    	jrcxz DL054D
 10449 000097FB E980000000              	jmp DLEnd0537
 10450 00009800 48FFC1                  DL054D:	inc rcx
 10451 00009803 E8(00000000)            	call cTop
 10452 00009808 E8(00000000)            	call pIn
 10453 0000980D 03373932                	 db 0x0003, "792"
 10454 00009811 4809C9                  	or rPOk, rPOk
 10455 00009814 7502                    	jnz SD054E
 10456 00009816 EB16                    	jmp SDEnd054E
 10457                                  SD054E:
 10458 00009818 E8(00000000)            	call pOut
 10459 0000981D 1054524C205475726B-     	 db 0x10, "TRL Turkish Lira"
 10459 00009826 697368204C697261   
 10460                                  SDEnd054E:
 10461 0000982E E302                    	jrcxz DL054F
 10462 00009830 EB4E                    	jmp DLEnd0537
 10463 00009832 48FFC1                  DL054F:	inc rcx
 10464 00009835 E8(00000000)            	call cTop
 10465 0000983A E8(00000000)            	call cPush
 10466 0000983F 41BD03000000            	mov rFactCnt, 3
 10467 00009845 4D09ED                  	or rFactCnt, rFactCnt
 10468 00009848 740E                    	jz FacEnd0550
 10469                                  FacRep0550:
 10470 0000984A E8(00000000)            	call b
 10471 0000984F 49FFCD                  	dec rFactCnt
 10472 00009852 E304                    	jrcxz FacEnd0550
 10473 00009854 7402                    	jz FacEnd0550
 10474 00009856 EBF2                    	jmp FacRep0550
 10475                                  FacEnd0550:
 10476 00009858 E8(00000000)            	call cDrop
 10477 0000985D 4809C9                  	or rPOk, rPOk
 10478 00009860 7502                    	jnz SD0551
 10479 00009862 EB1C                    	jmp SDEnd0551
 10480                                  SD0551:
 10481 00009864 E8(00000000)            	call pOut
 10482 00009869 165761726E696E6720-     	 db 0x16, "Warning unknown valuta"
 10482 00009872 756E6B6E6F776E2076-
 10482 0000987B 616C757461         
 10483                                  SDEnd0551:
 10484                                  DLEnd0537:
 10485 00009880 E8(00000000)            	call cDrop
 10486 00009885 C3                      	ret
 10487                                  
 10488                                  ;Bit49 =	"999", pOut("Liter IDS")|
 10489                                  ;	"978", pOut("EUR Euro")|
 10490                                  ;	"826", pOut("GBP Pound Sterling")|
 10491                                  ;	"203", pOut("CZK Czech Koruna")|
 10492                                  ;	"578", pOut("NOK Norwegian Krone")|
 10493                                  ;	"752", pOut("SEK Swedish Krona")|
 10494                                  ;	"208", pOut("DKK Danish Krone")|
 10495                                  ;	"810", pOut("RUR Russian Ruble")|
 10496                                  ;	"643", pOut("RUB Russian Ruble")|
 10497                                  ;	"642", pOut("ROL Leu")|
 10498                                  ;	"348", pOut("HUF Forint")|
 10499                                  ;	"703", pOut("SKK Slovak Koruna")|
 10500                                  ;	"792", pOut("TRL Turkish Lira")|
 10501                                  ;	(3*b), pOut("Warning unknown valuta");
 10502                                  ;
 10503                                  
 10504                                  ;xxxxxxxxxxxxxxxxxxxxxxxxxxxxxxxxxxxxxxxxxxxxxxxxxxxxxxxxxxxxxxxxxxxxxxxxxxxxxx
 10505                                  Bit53H2H:
 10506 00009886 E8(00000000)            	call cPush
 10507 0000988B E8426AFFFF              	call LLVAR
 10508 00009890 4809C9                  	or rPOk, rPOk
 10509 00009893 7505                    	jnz SD0552
 10510 00009895 E9B9010000              	jmp SDEnd0552
 10511                                  SD0552:
 10512 0000989A E8(00000000)            	call b
 10513 0000989F 4809C9                  	or rPOk, rPOk
 10514 000098A2 7505                    	jnz SD0553
 10515 000098A4 E9AA010000              	jmp SDEnd0552
 10516                                  SD0553:
 10517 000098A9 E8(00000000)            	call pOut
 10518 000098AE 270A0909224235332E-     	 db 0x27, 0x0a, 0x09, 0x09, '"B53.1 Key generation master key": "'
 10518 000098B7 31204B65792067656E-
 10518 000098C0 65726174696F6E206D-
 10518 000098C9 6173746572206B6579-
 10518 000098D2 223A2022           
 10519 000098D6 4809C9                  	or rPOk, rPOk
 10520 000098D9 7505                    	jnz SD0554
 10521 000098DB E973010000              	jmp SDEnd0552
 10522                                  SD0554:
 10523 000098E0 E8(00000000)            	call pOutLIHex
 10524 000098E5 4809C9                  	or rPOk, rPOk
 10525 000098E8 7505                    	jnz SD0555
 10526 000098EA E964010000              	jmp SDEnd0552
 10527                                  SD0555:
 10528 000098EF E8(00000000)            	call pOut
 10529 000098F4 02222C                  	 db 0x02, '",'
 10530 000098F7 4809C9                  	or rPOk, rPOk
 10531 000098FA 7505                    	jnz SD0556
 10532 000098FC E952010000              	jmp SDEnd0552
 10533                                  SD0556:
 10534 00009901 E8(00000000)            	call b
 10535 00009906 4809C9                  	or rPOk, rPOk
 10536 00009909 7505                    	jnz SD0557
 10537 0000990B E943010000              	jmp SDEnd0552
 10538                                  SD0557:
 10539 00009910 E8(00000000)            	call pOut
 10540 00009915 270A0909224235332E-     	 db 0x27, 0x0a, 0x09, 0x09, '"B53.2 Key version master key"   : "'
 10540 0000991E 32204B657920766572-
 10540 00009927 73696F6E206D617374-
 10540 00009930 6572206B6579222020-
 10540 00009939 203A2022           
 10541 0000993D 4809C9                  	or rPOk, rPOk
 10542 00009940 7505                    	jnz SD0558
 10543 00009942 E90C010000              	jmp SDEnd0552
 10544                                  SD0558:
 10545 00009947 E8(00000000)            	call pOutLIHex
 10546 0000994C 4809C9                  	or rPOk, rPOk
 10547 0000994F 7505                    	jnz SD0559
 10548 00009951 E9FD000000              	jmp SDEnd0552
 10549                                  SD0559:
 10550 00009956 E8(00000000)            	call pOut
 10551 0000995B 02222C                  	 db 0x02, '",'
 10552 0000995E 4809C9                  	or rPOk, rPOk
 10553 00009961 7505                    	jnz SD055A
 10554 00009963 E9EB000000              	jmp SDEnd0552
 10555                                  SD055A:
 10556 00009968 E8(00000000)            	call cPush
 10557 0000996D 41BD10000000            	mov rFactCnt, 16
 10558 00009973 4D09ED                  	or rFactCnt, rFactCnt
 10559 00009976 740E                    	jz FacEnd055B
 10560                                  FacRep055B:
 10561 00009978 E8(00000000)            	call b
 10562 0000997D 49FFCD                  	dec rFactCnt
 10563 00009980 E304                    	jrcxz FacEnd055B
 10564 00009982 7402                    	jz FacEnd055B
 10565 00009984 EBF2                    	jmp FacRep055B
 10566                                  FacEnd055B:
 10567 00009986 E8(00000000)            	call cDrop
 10568 0000998B 4809C9                  	or rPOk, rPOk
 10569 0000998E 7505                    	jnz SD055C
 10570 00009990 E9BE000000              	jmp SDEnd0552
 10571                                  SD055C:
 10572 00009995 E8(00000000)            	call pOut
 10573 0000999A 150A0909224235332E-     	 db 0x15, 0x0a, 0x09, 0x09, '"B53.3 RNDmes" : "'
 10573 000099A3 3320524E446D657322-
 10573 000099AC 203A2022           
 10574 000099B0 4809C9                  	or rPOk, rPOk
 10575 000099B3 7505                    	jnz SD055D
 10576 000099B5 E999000000              	jmp SDEnd0552
 10577                                  SD055D:
 10578 000099BA E8(00000000)            	call pOutLIHex
 10579 000099BF 4809C9                  	or rPOk, rPOk
 10580 000099C2 7505                    	jnz SD055E
 10581 000099C4 E98A000000              	jmp SDEnd0552
 10582                                  SD055E:
 10583 000099C9 E8(00000000)            	call pOut
 10584 000099CE 02222C                  	 db 0x02, '",'
 10585 000099D1 4809C9                  	or rPOk, rPOk
 10586 000099D4 7502                    	jnz SD055F
 10587 000099D6 EB7B                    	jmp SDEnd0552
 10588                                  SD055F:
 10589 000099D8 E8(00000000)            	call cPush
 10590 000099DD 41BD10000000            	mov rFactCnt, 16
 10591 000099E3 4D09ED                  	or rFactCnt, rFactCnt
 10592 000099E6 740E                    	jz FacEnd0560
 10593                                  FacRep0560:
 10594 000099E8 E8(00000000)            	call b
 10595 000099ED 49FFCD                  	dec rFactCnt
 10596 000099F0 E304                    	jrcxz FacEnd0560
 10597 000099F2 7402                    	jz FacEnd0560
 10598 000099F4 EBF2                    	jmp FacRep0560
 10599                                  FacEnd0560:
 10600 000099F6 E8(00000000)            	call cDrop
 10601 000099FB 4809C9                  	or rPOk, rPOk
 10602 000099FE 7502                    	jnz SD0561
 10603 00009A00 EB51                    	jmp SDEnd0552
 10604                                  SD0561:
 10605 00009A02 E8(00000000)            	call pOut
 10606 00009A07 150A0909224235332E-     	 db 0x15, 0x0a, 0x09, 0x09, '"B53.4 RNDpac" : "'
 10606 00009A10 3420524E4470616322-
 10606 00009A19 203A2022           
 10607 00009A1D 4809C9                  	or rPOk, rPOk
 10608 00009A20 7502                    	jnz SD0562
 10609 00009A22 EB2F                    	jmp SDEnd0552
 10610                                  SD0562:
 10611 00009A24 E8(00000000)            	call pOutLIHex
 10612 00009A29 4809C9                  	or rPOk, rPOk
 10613 00009A2C 7502                    	jnz SD0563
 10614 00009A2E EB23                    	jmp SDEnd0552
 10615                                  SD0563:
 10616 00009A30 E8(00000000)            	call pOut
 10617 00009A35 02222C                  	 db 0x02, '",'
 10618 00009A38 4809C9                  	or rPOk, rPOk
 10619 00009A3B 7502                    	jnz SD0564
 10620 00009A3D EB14                    	jmp SDEnd0552
 10621                                  SD0564:
 10622 00009A3F E8(00000000)            	call DropLastChar
 10623 00009A44 4809C9                  	or rPOk, rPOk
 10624 00009A47 7502                    	jnz SD0565
 10625 00009A49 EB08                    	jmp SDEnd0552
 10626                                  SD0565:
 10627 00009A4B E8(00000000)            	call pOut
 10628 00009A50 027D2C                  	 db 0x02, '},'
 10629                                  SDEnd0552:
 10630 00009A53 E8(00000000)            	call cDrop
 10631 00009A58 C3                      	ret
 10632                                  
 10633                                  ;Bit53H2H = LLVAR,
 10634                                  ;		b,	pOut(0x0a, 0x09, 0x09, '"B53.1 Key generation master key": "'), pOutLIHex, pOut('",'),		/* wrong spec in CGI spec. says n1 */
 10635                                  ;		b,	pOut(0x0a, 0x09, 0x09, '"B53.2 Key version master key"   : "'), pOutLIHex, pOut('",'),		/* wrong spec in CGI spec. says n1 */
 10636                                  ;		(16*b),	pOut(0x0a, 0x09, 0x09, '"B53.3 RNDmes" : "'), pOutLIHex, pOut('",'),
 10637                                  ;		(16*b),	pOut(0x0a, 0x09, 0x09, '"B53.4 RNDpac" : "'), pOutLIHex, pOut('",'),
 10638                                  ;	DropLastChar,
 10639                                  ;	pOut('},');
 10640                                  ;	
 10641                                  
 10642                                  ;xxxxxxxxxxxxxxxxxxxxxxxxxxxxxxxxxxxxxxxxxxxxxxxxxxxxxxxxxxxxxxxxxxxxxxxxxxxxxx
 10643                                  Bit53P2H:
 10644 00009A59 E8(00000000)            	call cPush
 10645 00009A5E E86F68FFFF              	call LLVAR
 10646 00009A63 4809C9                  	or rPOk, rPOk
 10647 00009A66 7505                    	jnz SD0566
 10648 00009A68 E99C020000              	jmp SDEnd0566
 10649                                  SD0566:
 10650 00009A6D E8(00000000)            	call cPush
 10651 00009A72 E8(00000000)            	call cPush
 10652 00009A77 41BD0A000000            	mov rFactCnt, 10
 10653 00009A7D 4D09ED                  	or rFactCnt, rFactCnt
 10654 00009A80 740E                    	jz FacEnd0567
 10655                                  FacRep0567:
 10656 00009A82 E85969FFFF              	call HexDig
 10657 00009A87 49FFCD                  	dec rFactCnt
 10658 00009A8A E304                    	jrcxz FacEnd0567
 10659 00009A8C 7402                    	jz FacEnd0567
 10660 00009A8E EBF2                    	jmp FacRep0567
 10661                                  FacEnd0567:
 10662 00009A90 E8(00000000)            	call cDrop
 10663 00009A95 4809C9                  	or rPOk, rPOk
 10664 00009A98 7502                    	jnz SD0568
 10665 00009A9A EB45                    	jmp SDEnd0568
 10666                                  SD0568:
 10667 00009A9C E8(00000000)            	call pOut
 10668 00009AA1 240A0909224235332E-     	 db 0x24, 0x0a, 0x09, 0x09, '"B53.1 BDKId BDK identifier"  : "'
 10668 00009AAA 312042444B49642042-
 10668 00009AB3 444B206964656E7469-
 10668 00009ABC 666965722220203A20-
 10668 00009AC5 22                 
 10669 00009AC6 4809C9                  	or rPOk, rPOk
 10670 00009AC9 7502                    	jnz SD0569
 10671 00009ACB EB14                    	jmp SDEnd0568
 10672                                  SD0569:
 10673 00009ACD E8(00000000)            	call pOutLI
 10674 00009AD2 4809C9                  	or rPOk, rPOk
 10675 00009AD5 7502                    	jnz SD056A
 10676 00009AD7 EB08                    	jmp SDEnd0568
 10677                                  SD056A:
 10678 00009AD9 E8(00000000)            	call pOut
 10679 00009ADE 02222C                  	 db 0x02, '",'
 10680                                  SDEnd0568:
 10681 00009AE1 E305                    	jrcxz DL056B
 10682 00009AE3 E988000000              	jmp DLEnd056B
 10683 00009AE8 48FFC1                  DL056B:	inc rcx
 10684 00009AEB E8(00000000)            	call cTop
 10685 00009AF0 E8(00000000)            	call cPush
 10686 00009AF5 41BD0A000000            	mov rFactCnt, 10
 10687 00009AFB 4D09ED                  	or rFactCnt, rFactCnt
 10688 00009AFE 740E                    	jz FacEnd056C
 10689                                  FacRep056C:
 10690 00009B00 E8(00000000)            	call b
 10691 00009B05 49FFCD                  	dec rFactCnt
 10692 00009B08 E304                    	jrcxz FacEnd056C
 10693 00009B0A 7402                    	jz FacEnd056C
 10694 00009B0C EBF2                    	jmp FacRep056C
 10695                                  FacEnd056C:
 10696 00009B0E E8(00000000)            	call cDrop
 10697 00009B13 4809C9                  	or rPOk, rPOk
 10698 00009B16 7502                    	jnz SD056D
 10699 00009B18 EB56                    	jmp SDEnd056D
 10700                                  SD056D:
 10701 00009B1A E8(00000000)            	call pOut
 10702 00009B1F 350A0909224235332E-     	 db 0x35, 0x0a, 0x09, 0x09, '"B53.1 Warning BDK identifier expected in hex" : "'
 10702 00009B28 31205761726E696E67-
 10702 00009B31 2042444B206964656E-
 10702 00009B3A 746966696572206578-
 10702 00009B43 70656374656420696E-
 10702 00009B4C 2068657822203A2022 
 10703 00009B55 4809C9                  	or rPOk, rPOk
 10704 00009B58 7502                    	jnz SD056E
 10705 00009B5A EB14                    	jmp SDEnd056D
 10706                                  SD056E:
 10707 00009B5C E8(00000000)            	call pOutLIHex
 10708 00009B61 4809C9                  	or rPOk, rPOk
 10709 00009B64 7502                    	jnz SD056F
 10710 00009B66 EB08                    	jmp SDEnd056D
 10711                                  SD056F:
 10712 00009B68 E8(00000000)            	call pOut
 10713 00009B6D 02222C                  	 db 0x02, '",'
 10714                                  SDEnd056D:
 10715                                  DLEnd056B:
 10716 00009B70 E8(00000000)            	call cDrop
 10717 00009B75 4809C9                  	or rPOk, rPOk
 10718 00009B78 7505                    	jnz SD0570
 10719 00009B7A E98A010000              	jmp SDEnd0566
 10720                                  SD0570:
 10721 00009B7F E8(00000000)            	call cPush
 10722 00009B84 E8(00000000)            	call cPush
 10723 00009B89 41BD0A000000            	mov rFactCnt, 10
 10724 00009B8F 4D09ED                  	or rFactCnt, rFactCnt
 10725 00009B92 740E                    	jz FacEnd0571
 10726                                  FacRep0571:
 10727 00009B94 E84768FFFF              	call HexDig
 10728 00009B99 49FFCD                  	dec rFactCnt
 10729 00009B9C E304                    	jrcxz FacEnd0571
 10730 00009B9E 7402                    	jz FacEnd0571
 10731 00009BA0 EBF2                    	jmp FacRep0571
 10732                                  FacEnd0571:
 10733 00009BA2 E8(00000000)            	call cDrop
 10734 00009BA7 4809C9                  	or rPOk, rPOk
 10735 00009BAA 7502                    	jnz SD0572
 10736 00009BAC EB46                    	jmp SDEnd0572
 10737                                  SD0572:
 10738 00009BAE E8(00000000)            	call pOut
 10739 00009BB3 250A0909224235332E-     	 db 0x25, 0x0a, 0x09, 0x09, '"B53.2 KSN   Key Serial Number": "'
 10739 00009BBC 32204B534E2020204B-
 10739 00009BC5 65792053657269616C-
 10739 00009BCE 204E756D626572223A-
 10739 00009BD7 2022               
 10740 00009BD9 4809C9                  	or rPOk, rPOk
 10741 00009BDC 7502                    	jnz SD0573
 10742 00009BDE EB14                    	jmp SDEnd0572
 10743                                  SD0573:
 10744 00009BE0 E8(00000000)            	call pOutLI
 10745 00009BE5 4809C9                  	or rPOk, rPOk
 10746 00009BE8 7502                    	jnz SD0574
 10747 00009BEA EB08                    	jmp SDEnd0572
 10748                                  SD0574:
 10749 00009BEC E8(00000000)            	call pOut
 10750 00009BF1 02222C                  	 db 0x02, '",'
 10751                                  SDEnd0572:
 10752 00009BF4 E302                    	jrcxz DL0575
 10753 00009BF6 EB78                    	jmp DLEnd0575
 10754 00009BF8 48FFC1                  DL0575:	inc rcx
 10755 00009BFB E8(00000000)            	call cTop
 10756 00009C00 E8(00000000)            	call cPush
 10757 00009C05 41BD0A000000            	mov rFactCnt, 10
 10758 00009C0B 4D09ED                  	or rFactCnt, rFactCnt
 10759 00009C0E 740E                    	jz FacEnd0576
 10760                                  FacRep0576:
 10761 00009C10 E8(00000000)            	call b
 10762 00009C15 49FFCD                  	dec rFactCnt
 10763 00009C18 E304                    	jrcxz FacEnd0576
 10764 00009C1A 7402                    	jz FacEnd0576
 10765 00009C1C EBF2                    	jmp FacRep0576
 10766                                  FacEnd0576:
 10767 00009C1E E8(00000000)            	call cDrop
 10768 00009C23 4809C9                  	or rPOk, rPOk
 10769 00009C26 7502                    	jnz SD0577
 10770 00009C28 EB46                    	jmp SDEnd0577
 10771                                  SD0577:
 10772 00009C2A E8(00000000)            	call pOut
 10773 00009C2F 250A0909224235332E-     	 db 0x25, 0x0a, 0x09, 0x09, '"B53.1 KSN   Key Serial Number": "'
 10773 00009C38 31204B534E2020204B-
 10773 00009C41 65792053657269616C-
 10773 00009C4A 204E756D626572223A-
 10773 00009C53 2022               
 10774 00009C55 4809C9                  	or rPOk, rPOk
 10775 00009C58 7502                    	jnz SD0578
 10776 00009C5A EB14                    	jmp SDEnd0577
 10777                                  SD0578:
 10778 00009C5C E8(00000000)            	call pOutLIHex
 10779 00009C61 4809C9                  	or rPOk, rPOk
 10780 00009C64 7502                    	jnz SD0579
 10781 00009C66 EB08                    	jmp SDEnd0577
 10782                                  SD0579:
 10783 00009C68 E8(00000000)            	call pOut
 10784 00009C6D 02222C                  	 db 0x02, '",'
 10785                                  SDEnd0577:
 10786                                  DLEnd0575:
 10787 00009C70 E8(00000000)            	call cDrop
 10788 00009C75 4809C9                  	or rPOk, rPOk
 10789 00009C78 7505                    	jnz SD057A
 10790 00009C7A E98A000000              	jmp SDEnd0566
 10791                                  SD057A:
 10792 00009C7F E8(00000000)            	call cPush
 10793 00009C84 41BD03000000            	mov rFactCnt, 3
 10794 00009C8A 4D09ED                  	or rFactCnt, rFactCnt
 10795 00009C8D 740E                    	jz FacEnd057B
 10796                                  FacRep057B:
 10797 00009C8F E8(00000000)            	call n
 10798 00009C94 49FFCD                  	dec rFactCnt
 10799 00009C97 E304                    	jrcxz FacEnd057B
 10800 00009C99 7402                    	jz FacEnd057B
 10801 00009C9B EBF2                    	jmp FacRep057B
 10802                                  FacEnd057B:
 10803 00009C9D E8(00000000)            	call cDrop
 10804 00009CA2 4809C9                  	or rPOk, rPOk
 10805 00009CA5 7502                    	jnz SD057C
 10806 00009CA7 EB60                    	jmp SDEnd0566
 10807                                  SD057C:
 10808 00009CA9 E8(00000000)            	call pOut
 10809 00009CAE 240A0909224235332E-     	 db 0x24, 0x0a, 0x09, 0x09, '"B53.3 KSN   Descriptor"      : "'
 10809 00009CB7 33204B534E20202044-
 10809 00009CC0 657363726970746F72-
 10809 00009CC9 222020202020203A20-
 10809 00009CD2 22                 
 10810 00009CD3 4809C9                  	or rPOk, rPOk
 10811 00009CD6 7502                    	jnz SD057D
 10812 00009CD8 EB2F                    	jmp SDEnd0566
 10813                                  SD057D:
 10814 00009CDA E8(00000000)            	call pOutLI
 10815 00009CDF 4809C9                  	or rPOk, rPOk
 10816 00009CE2 7502                    	jnz SD057E
 10817 00009CE4 EB23                    	jmp SDEnd0566
 10818                                  SD057E:
 10819 00009CE6 E8(00000000)            	call pOut
 10820 00009CEB 02222C                  	 db 0x02, '",'
 10821 00009CEE 4809C9                  	or rPOk, rPOk
 10822 00009CF1 7502                    	jnz SD057F
 10823 00009CF3 EB14                    	jmp SDEnd0566
 10824                                  SD057F:
 10825 00009CF5 E8(00000000)            	call DropLastChar
 10826 00009CFA 4809C9                  	or rPOk, rPOk
 10827 00009CFD 7502                    	jnz SD0580
 10828 00009CFF EB08                    	jmp SDEnd0566
 10829                                  SD0580:
 10830 00009D01 E8(00000000)            	call pOut
 10831 00009D06 027D2C                  	 db 0x02, '},'
 10832                                  SDEnd0566:
 10833 00009D09 E8(00000000)            	call cDrop
 10834 00009D0E C3                      	ret
 10835                                  
 10836                                  ;Bit53P2H= LLVAR,
 10837                                  ;		((10*HexDig),	pOut(0x0a, 0x09, 0x09, '"B53.1 BDKId BDK identifier"  : "'), pOutLI, pOut('",')
 10838                                  ;		|(10*b),	pOut(0x0a, 0x09, 0x09, '"B53.1 Warning BDK identifier expected in hex" : "'), pOutLIHex, pOut('",')
 10839                                  ;		),
 10840                                  ;		((10*HexDig),	pOut(0x0a, 0x09, 0x09, '"B53.2 KSN   Key Serial Number": "'), pOutLI, pOut('",')	/* wrong spec in CGI spec. says n1 */
 10841                                  ;		|(10*b),	pOut(0x0a, 0x09, 0x09, '"B53.1 KSN   Key Serial Number": "'), pOutLIHex, pOut('",')	/* this is correct */
 10842                                  ;		),	
 10843                                  ;		(3*n),		pOut(0x0a, 0x09, 0x09, '"B53.3 KSN   Descriptor"      : "'), pOutLI, pOut('",'),
 10844                                  ;	DropLastChar,
 10845                                  ;	pOut('},');
 10846                                  ;	
 10847                                  ;
 10848                                  ;
 10849                                  
 10850                                  ;xxxxxxxxxxxxxxxxxxxxxxxxxxxxxxxxxxxxxxxxxxxxxxxxxxxxxxxxxxxxxxxxxxxxxxxxxxxxxx
 10851                                  IDSProduct:
 10852 00009D0F E8(00000000)            	call cPush
 10853 00009D14 E8(00000000)            	call pIn
 10854 00009D19 03303030                	 db 0x0003, "000"
 10855 00009D1D 4809C9                  	or rPOk, rPOk
 10856 00009D20 7502                    	jnz SD0581
 10857 00009D22 EB10                    	jmp SDEnd0581
 10858                                  SD0581:
 10859 00009D24 E8(00000000)            	call pOut
 10860 00009D29 0A303030204164426C-     	 db 0x0A, "000 AdBlue"
 10860 00009D32 7565               
 10861                                  SDEnd0581:
 10862 00009D34 E305                    	jrcxz DL0582
 10863 00009D36 E9ED030000              	jmp DLEnd0582
 10864 00009D3B 48FFC1                  DL0582:	inc rcx
 10865 00009D3E E8(00000000)            	call cTop
 10866 00009D43 E8(00000000)            	call pIn
 10867 00009D48 03303031                	 db 0x0003, "001"
 10868 00009D4C 4809C9                  	or rPOk, rPOk
 10869 00009D4F 7502                    	jnz SD0583
 10870 00009D51 EB10                    	jmp SDEnd0583
 10871                                  SD0583:
 10872 00009D53 E8(00000000)            	call pOut
 10873 00009D58 0A3030312044696573-     	 db 0x0A, "001 Diesel"
 10873 00009D61 656C               
 10874                                  SDEnd0583:
 10875 00009D63 E305                    	jrcxz DL0584
 10876 00009D65 E9BE030000              	jmp DLEnd0582
 10877 00009D6A 48FFC1                  DL0584:	inc rcx
 10878 00009D6D E8(00000000)            	call cTop
 10879 00009D72 E8(00000000)            	call pIn
 10880 00009D77 03303033                	 db 0x0003, "003"
 10881 00009D7B 4809C9                  	or rPOk, rPOk
 10882 00009D7E 7502                    	jnz SD0585
 10883 00009D80 EB1B                    	jmp SDEnd0585
 10884                                  SD0585:
 10885 00009D82 E8(00000000)            	call pOut
 10886 00009D87 15303033204761736F-     	 db 0x15, "003 Gasoil Industrial"
 10886 00009D90 696C20496E64757374-
 10886 00009D99 7269616C           
 10887                                  SDEnd0585:
 10888 00009D9D E305                    	jrcxz DL0586
 10889 00009D9F E984030000              	jmp DLEnd0582
 10890 00009DA4 48FFC1                  DL0586:	inc rcx
 10891 00009DA7 E8(00000000)            	call cTop
 10892 00009DAC E8(00000000)            	call pIn
 10893 00009DB1 03303035                	 db 0x0003, "005"
 10894 00009DB5 4809C9                  	or rPOk, rPOk
 10895 00009DB8 7502                    	jnz SD0587
 10896 00009DBA EB25                    	jmp SDEnd0587
 10897                                  SD0587:
 10898 00009DBC E8(00000000)            	call pOut
 10899 00009DC1 1F303035204C494320-     	 db 0x1F, "005 LIC (Liquid Carbon Dioxide)"
 10899 00009DCA 284C69717569642043-
 10899 00009DD3 6172626F6E2044696F-
 10899 00009DDC 7869646529         
 10900                                  SDEnd0587:
 10901 00009DE1 E305                    	jrcxz DL0588
 10902 00009DE3 E940030000              	jmp DLEnd0582
 10903 00009DE8 48FFC1                  DL0588:	inc rcx
 10904 00009DEB E8(00000000)            	call cTop
 10905 00009DF0 E8(00000000)            	call pIn
 10906 00009DF5 03303039                	 db 0x0003, "009"
 10907 00009DF9 4809C9                  	or rPOk, rPOk
 10908 00009DFC 7502                    	jnz SD0589
 10909 00009DFE EB28                    	jmp SDEnd0589
 10910                                  SD0589:
 10911 00009E00 E8(00000000)            	call pOut
 10912 00009E05 22303039204C504720-     	 db 0x22, "009 LPG (Liquidfied Petroleum Gas)"
 10912 00009E0E 284C69717569646669-
 10912 00009E17 656420506574726F6C-
 10912 00009E20 65756D2047617329   
 10913                                  SDEnd0589:
 10914 00009E28 E305                    	jrcxz DL058A
 10915 00009E2A E9F9020000              	jmp DLEnd0582
 10916 00009E2F 48FFC1                  DL058A:	inc rcx
 10917 00009E32 E8(00000000)            	call cTop
 10918 00009E37 E8(00000000)            	call pIn
 10919 00009E3C 03303130                	 db 0x0003, "010"
 10920 00009E40 4809C9                  	or rPOk, rPOk
 10921 00009E43 7502                    	jnz SD058B
 10922 00009E45 EB18                    	jmp SDEnd058B
 10923                                  SD058B:
 10924 00009E47 E8(00000000)            	call pOut
 10925 00009E4C 12303130204C4E4720-     	 db 0x12, "010 LNG Restricted"
 10925 00009E55 526573747269637465-
 10925 00009E5E 64                 
 10926                                  SDEnd058B:
 10927 00009E5F E305                    	jrcxz DL058C
 10928 00009E61 E9C2020000              	jmp DLEnd0582
 10929 00009E66 48FFC1                  DL058C:	inc rcx
 10930 00009E69 E8(00000000)            	call cTop
 10931 00009E6E E8(00000000)            	call pIn
 10932 00009E73 03303131                	 db 0x0003, "011"
 10933 00009E77 4809C9                  	or rPOk, rPOk
 10934 00009E7A 7502                    	jnz SD058D
 10935 00009E7C EB2D                    	jmp SDEnd058D
 10936                                  SD058D:
 10937 00009E7E E8(00000000)            	call pOut
 10938 00009E83 273031312045443935-     	 db 0x27, "011 ED95 (Green Biofuel Heavy Transport"
 10938 00009E8C 2028477265656E2042-
 10938 00009E95 696F6675656C204865-
 10938 00009E9E 617679205472616E73-
 10938 00009EA7 706F7274           
 10939                                  SDEnd058D:
 10940 00009EAB E305                    	jrcxz DL058E
 10941 00009EAD E976020000              	jmp DLEnd0582
 10942 00009EB2 48FFC1                  DL058E:	inc rcx
 10943 00009EB5 E8(00000000)            	call cTop
 10944 00009EBA E8(00000000)            	call pIn
 10945 00009EBF 03303132                	 db 0x0003, "012"
 10946 00009EC3 4809C9                  	or rPOk, rPOk
 10947 00009EC6 7502                    	jnz SD058F
 10948 00009EC8 EB2A                    	jmp SDEnd058F
 10949                                  SD058F:
 10950 00009ECA E8(00000000)            	call pOut
 10951 00009ECF 2430313220434E472F-     	 db 0x24, "012 CNG/CBG (Compressed Natural Gas)"
 10951 00009ED8 4342472028436F6D70-
 10951 00009EE1 726573736564204E61-
 10951 00009EEA 747572616C20476173-
 10951 00009EF3 29                 
 10952                                  SDEnd058F:
 10953 00009EF4 E305                    	jrcxz DL0590
 10954 00009EF6 E92D020000              	jmp DLEnd0582
 10955 00009EFB 48FFC1                  DL0590:	inc rcx
 10956 00009EFE E8(00000000)            	call cTop
 10957 00009F03 E8(00000000)            	call pIn
 10958 00009F08 03303135                	 db 0x0003, "015"
 10959 00009F0C 4809C9                  	or rPOk, rPOk
 10960 00009F0F 7502                    	jnz SD0591
 10961 00009F11 EB14                    	jmp SDEnd0591
 10962                                  SD0591:
 10963 00009F13 E8(00000000)            	call pOut
 10964 00009F18 0E303135204761736F-     	 db 0x0E, "015 Gasoil Red"
 10964 00009F21 696C20526564       
 10965                                  SDEnd0591:
 10966 00009F27 E305                    	jrcxz DL0592
 10967 00009F29 E9FA010000              	jmp DLEnd0582
 10968 00009F2E 48FFC1                  DL0592:	inc rcx
 10969 00009F31 E8(00000000)            	call cTop
 10970 00009F36 E8(00000000)            	call pIn
 10971 00009F3B 03303136                	 db 0x0003, "016"
 10972 00009F3F 4809C9                  	or rPOk, rPOk
 10973 00009F42 7502                    	jnz SD0593
 10974 00009F44 EB1A                    	jmp SDEnd0593
 10975                                  SD0593:
 10976 00009F46 E8(00000000)            	call pOut
 10977 00009F4B 143031362053706169-     	 db 0x14, "016 Spain Red Diesel"
 10977 00009F54 6E2052656420446965-
 10977 00009F5D 73656C             
 10978                                  SDEnd0593:
 10979 00009F60 E305                    	jrcxz DL0594
 10980 00009F62 E9C1010000              	jmp DLEnd0582
 10981 00009F67 48FFC1                  DL0594:	inc rcx
 10982 00009F6A E8(00000000)            	call cTop
 10983 00009F6F E8(00000000)            	call pIn
 10984 00009F74 03303137                	 db 0x0003, "017"
 10985 00009F78 4809C9                  	or rPOk, rPOk
 10986 00009F7B 7502                    	jnz SD0595
 10987 00009F7D EB14                    	jmp SDEnd0595
 10988                                  SD0595:
 10989 00009F7F E8(00000000)            	call pOut
 10990 00009F84 0E3031372042696F20-     	 db 0x0E, "017 Bio Diesel"
 10990 00009F8D 44696573656C       
 10991                                  SDEnd0595:
 10992 00009F93 E305                    	jrcxz DL0596
 10993 00009F95 E98E010000              	jmp DLEnd0582
 10994 00009F9A 48FFC1                  DL0596:	inc rcx
 10995 00009F9D E8(00000000)            	call cTop
 10996 00009FA2 E8(00000000)            	call pIn
 10997 00009FA7 03303139                	 db 0x0003, "019"
 10998 00009FAB 4809C9                  	or rPOk, rPOk
 10999 00009FAE 7502                    	jnz SD0597
 11000 00009FB0 EB0D                    	jmp SDEnd0597
 11001                                  SD0597:
 11002 00009FB2 E8(00000000)            	call pOut
 11003 00009FB7 0730313920524D45        	 db 0x07, "019 RME"
 11004                                  SDEnd0597:
 11005 00009FBF E305                    	jrcxz DL0598
 11006 00009FC1 E962010000              	jmp DLEnd0582
 11007 00009FC6 48FFC1                  DL0598:	inc rcx
 11008 00009FC9 E8(00000000)            	call cTop
 11009 00009FCE E8(00000000)            	call pIn
 11010 00009FD3 03303230                	 db 0x0003, "020"
 11011 00009FD7 4809C9                  	or rPOk, rPOk
 11012 00009FDA 7502                    	jnz SD0599
 11013 00009FDC EB0D                    	jmp SDEnd0599
 11014                                  SD0599:
 11015 00009FDE E8(00000000)            	call pOut
 11016 00009FE3 07303230204C4E47        	 db 0x07, "020 LNG"
 11017                                  SDEnd0599:
 11018 00009FEB E305                    	jrcxz DL059A
 11019 00009FED E936010000              	jmp DLEnd0582
 11020 00009FF2 48FFC1                  DL059A:	inc rcx
 11021 00009FF5 E8(00000000)            	call cTop
 11022 00009FFA E8(00000000)            	call pIn
 11023 00009FFF 03303239                	 db 0x0003, "029"
 11024 0000A003 4809C9                  	or rPOk, rPOk
 11025 0000A006 7502                    	jnz SD059B
 11026 0000A008 EB20                    	jmp SDEnd059B
 11027                                  SD059B:
 11028 0000A00A E8(00000000)            	call pOut
 11029 0000A00F 1A3032392053757065-     	 db 0x1A, "029 Super Diesel - Q8SS DK"
 11029 0000A018 722044696573656C20-
 11029 0000A021 2D205138535320444B 
 11030                                  SDEnd059B:
 11031 0000A02A E305                    	jrcxz DL059C
 11032 0000A02C E9F7000000              	jmp DLEnd0582
 11033 0000A031 48FFC1                  DL059C:	inc rcx
 11034 0000A034 E8(00000000)            	call cTop
 11035 0000A039 E8(00000000)            	call pIn
 11036 0000A03E 03303431                	 db 0x0003, "041"
 11037 0000A042 4809C9                  	or rPOk, rPOk
 11038 0000A045 7502                    	jnz SD059D
 11039 0000A047 EB19                    	jmp SDEnd059D
 11040                                  SD059D:
 11041 0000A049 E8(00000000)            	call pOut
 11042 0000A04E 133034312051382054-     	 db 0x13, "041 Q8 T 905 10W-40"
 11042 0000A057 20393035203130572D-
 11042 0000A060 3430               
 11043                                  SDEnd059D:
 11044 0000A062 E305                    	jrcxz DL059E
 11045 0000A064 E9BF000000              	jmp DLEnd0582
 11046 0000A069 48FFC1                  DL059E:	inc rcx
 11047 0000A06C E8(00000000)            	call cTop
 11048 0000A071 E8(00000000)            	call pIn
 11049 0000A076 03303630                	 db 0x0003, "060"
 11050 0000A07A 4809C9                  	or rPOk, rPOk
 11051 0000A07D 7502                    	jnz SD059F
 11052 0000A07F EB16                    	jmp SDEnd059F
 11053                                  SD059F:
 11054 0000A081 E8(00000000)            	call pOut
 11055 0000A086 103036302057617465-     	 db 0x10, "060 Water splash"
 11055 0000A08F 722073706C617368   
 11056                                  SDEnd059F:
 11057 0000A097 E305                    	jrcxz DL05A0
 11058 0000A099 E98A000000              	jmp DLEnd0582
 11059 0000A09E 48FFC1                  DL05A0:	inc rcx
 11060 0000A0A1 E8(00000000)            	call cTop
 11061 0000A0A6 E8(00000000)            	call pIn
 11062 0000A0AB 03303830                	 db 0x0003, "080"
 11063 0000A0AF 4809C9                  	or rPOk, rPOk
 11064 0000A0B2 7502                    	jnz SD05A1
 11065 0000A0B4 EB11                    	jmp SDEnd05A1
 11066                                  SD05A1:
 11067 0000A0B6 E8(00000000)            	call pOut
 11068 0000A0BB 0B3038302043617277-     	 db 0x0B, "080 Carwash"
 11068 0000A0C4 617368             
 11069                                  SDEnd05A1:
 11070 0000A0C7 E302                    	jrcxz DL05A2
 11071 0000A0C9 EB5D                    	jmp DLEnd0582
 11072 0000A0CB 48FFC1                  DL05A2:	inc rcx
 11073 0000A0CE E8(00000000)            	call cTop
 11074 0000A0D3 E8(00000000)            	call cPush
 11075 0000A0D8 41BD03000000            	mov rFactCnt, 3
 11076 0000A0DE 4D09ED                  	or rFactCnt, rFactCnt
 11077 0000A0E1 740E                    	jz FacEnd05A3
 11078                                  FacRep05A3:
 11079 0000A0E3 E8(00000000)            	call b
 11080 0000A0E8 49FFCD                  	dec rFactCnt
 11081 0000A0EB E304                    	jrcxz FacEnd05A3
 11082 0000A0ED 7402                    	jz FacEnd05A3
 11083 0000A0EF EBF2                    	jmp FacRep05A3
 11084                                  FacEnd05A3:
 11085 0000A0F1 E8(00000000)            	call cDrop
 11086 0000A0F6 4809C9                  	or rPOk, rPOk
 11087 0000A0F9 7502                    	jnz SD05A4
 11088 0000A0FB EB2B                    	jmp SDEnd05A4
 11089                                  SD05A4:
 11090 0000A0FD E8(00000000)            	call pOutLI
 11091 0000A102 4809C9                  	or rPOk, rPOk
 11092 0000A105 7502                    	jnz SD05A5
 11093 0000A107 EB1F                    	jmp SDEnd05A4
 11094                                  SD05A5:
 11095 0000A109 E8(00000000)            	call pOut
 11096 0000A10E 19205761726E696E67-     	 db 0x19, " Warning. Unknown product"
 11096 0000A117 2E20556E6B6E6F776E-
 11096 0000A120 2070726F64756374   
 11097                                  SDEnd05A4:
 11098                                  DLEnd0582:
 11099 0000A128 E8(00000000)            	call cDrop
 11100 0000A12D C3                      	ret
 11101                                  
 11102                                  ;IDSProduct =
 11103                                  ;			 "000", pOut("000 AdBlue")
 11104                                  ;			|"001", pOut("001 Diesel")
 11105                                  ;			|"003", pOut("003 Gasoil Industrial")
 11106                                  ;			|"005", pOut("005 LIC (Liquid Carbon Dioxide)")
 11107                                  ;			|"009", pOut("009 LPG (Liquidfied Petroleum Gas)")
 11108                                  ;			|"010", pOut("010 LNG Restricted")
 11109                                  ;			|"011", pOut("011 ED95 (Green Biofuel Heavy Transport")
 11110                                  ;			|"012", pOut("012 CNG/CBG (Compressed Natural Gas)")
 11111                                  ;			|"015", pOut("015 Gasoil Red")
 11112                                  ;			|"016", pOut("016 Spain Red Diesel")
 11113                                  ;			|"017", pOut("017 Bio Diesel")
 11114                                  ;			|"019", pOut("019 RME")
 11115                                  ;			|"020", pOut("020 LNG")
 11116                                  ;			|"029", pOut("029 Super Diesel - Q8SS DK")
 11117                                  ;			|"041", pOut("041 Q8 T 905 10W-40")
 11118                                  ;			|"060", pOut("060 Water splash")
 11119                                  ;			|"080", pOut("080 Carwash")
 11120                                  ;			|(3*b),	pOutLI, pOut(" Warning. Unknown product");
 11121                                  ;
 11122                                  
 11123                                  ;xxxxxxxxxxxxxxxxxxxxxxxxxxxxxxxxxxxxxxxxxxxxxxxxxxxxxxxxxxxxxxxxxxxxxxxxxxxxxx
 11124                                  Bit62IDS:
 11125 0000A12E E8(00000000)            	call cPush
 11126 0000A133 E8BE61FFFF              	call LLLVAR
 11127 0000A138 4809C9                  	or rPOk, rPOk
 11128 0000A13B 7505                    	jnz SD05A6
 11129 0000A13D E914020000              	jmp SDEnd05A6
 11130                                  SD05A6:
 11131 0000A142 E8(00000000)            	call cPush
 11132 0000A147 E8(00000000)            	call pIn
 11133 0000A14C 023030                  	 db 0x0002, "00"
 11134 0000A14F 4809C9                  	or rPOk, rPOk
 11135 0000A152 7502                    	jnz SD05A7
 11136 0000A154 EB27                    	jmp SDEnd05A7
 11137                                  SD05A7:
 11138 0000A156 E8(00000000)            	call pOut
 11139 0000A15B 210A09092230302220-     	 db 0x21, 0x0a, 0x09, 0x09, '"00" : "All products allowed",'
 11139 0000A164 3A2022416C6C207072-
 11139 0000A16D 6F647563747320616C-
 11139 0000A176 6C6F776564222C     
 11140                                  SDEnd05A7:
 11141 0000A17D E305                    	jrcxz DL05A8
 11142 0000A17F E99B000000              	jmp DLEnd05A8
 11143 0000A184 48FFC1                  DL05A8:	inc rcx
 11144 0000A187 E8(00000000)            	call cTop
 11145 0000A18C E8(00000000)            	call pOut
 11146 0000A191 0E0A0909224236322E-     	 db 0x0E, 0x0a, 0x09, 0x09,	'"B62.1" : ['
 11146 0000A19A 3122203A205B       
 11147 0000A1A0 4809C9                  	or rPOk, rPOk
 11148 0000A1A3 7502                    	jnz SD05A9
 11149 0000A1A5 EB78                    	jmp SDEnd05A9
 11150                                  SD05A9:
 11151 0000A1A7 E8(00000000)            	call cPush
 11152 0000A1AC E82161FFFF              	call LLVAR
 11153 0000A1B1 E8(00000000)            	call Dec2Bin
 11154 0000A1B6 4989C5                  	mov rFactCnt, rax
 11155 0000A1B9 4809C0                  	or rax, rax
 11156 0000A1BC 7502                    	jnz FacRep05AA
 11157 0000A1BE EB3F                    	jmp FacEnd05AA
 11158                                  FacRep05AA:
 11159 0000A1C0 49FFCD                  	dec rFactCnt
 11160 0000A1C3 49FFCD                  	dec rFactCnt
 11161 0000A1C6 E8(00000000)            	call cPush
 11162 0000A1CB E8(00000000)            	call pOut
 11163 0000A1D0 050A09090922            	 db 0x05, 0x0a, 0x09, 0x09, 0x09,'"'
 11164 0000A1D6 4809C9                  	or rPOk, rPOk
 11165 0000A1D9 7502                    	jnz SD05AB
 11166 0000A1DB EB14                    	jmp SDEnd05AB
 11167                                  SD05AB:
 11168 0000A1DD E82DFBFFFF              	call IDSProduct
 11169 0000A1E2 4809C9                  	or rPOk, rPOk
 11170 0000A1E5 7502                    	jnz SD05AC
 11171 0000A1E7 EB08                    	jmp SDEnd05AB
 11172                                  SD05AC:
 11173 0000A1E9 E8(00000000)            	call pOut
 11174 0000A1EE 02222C                  	 db 0x02, '",'
 11175                                  SDEnd05AB:
 11176 0000A1F1 E8(00000000)            	call cDrop
 11177 0000A1F6 49FFCD                  	dec rFactCnt
 11178 0000A1F9 E304                    	jrcxz FacEnd05AA
 11179 0000A1FB 7402                    	jz FacEnd05AA
 11180 0000A1FD EBC1                    	jmp FacRep05AA
 11181                                  FacEnd05AA:
 11182 0000A1FF E8(00000000)            	call cDrop
 11183 0000A204 4809C9                  	or rPOk, rPOk
 11184 0000A207 7502                    	jnz SD05AD
 11185 0000A209 EB14                    	jmp SDEnd05A9
 11186                                  SD05AD:
 11187 0000A20B E8(00000000)            	call DropLastChar
 11188 0000A210 4809C9                  	or rPOk, rPOk
 11189 0000A213 7502                    	jnz SD05AE
 11190 0000A215 EB08                    	jmp SDEnd05A9
 11191                                  SD05AE:
 11192 0000A217 E8(00000000)            	call pOut
 11193 0000A21C 025D2C                  	 db 0x02, "],"
 11194                                  SDEnd05A9:
 11195                                  DLEnd05A8:
 11196 0000A21F E8(00000000)            	call cDrop
 11197 0000A224 4809C9                  	or rPOk, rPOk
 11198 0000A227 7505                    	jnz SD05AF
 11199 0000A229 E928010000              	jmp SDEnd05A6
 11200                                  SD05AF:
 11201 0000A22E E8(00000000)            	call cPush
 11202 0000A233 E8(00000000)            	call pIn
 11203 0000A238 0130                    	 db 0x0001, "0"
 11204 0000A23A 4809C9                  	or rPOk, rPOk
 11205 0000A23D 7502                    	jnz SD05B0
 11206 0000A23F EB2D                    	jmp SDEnd05B0
 11207                                  SD05B0:
 11208 0000A241 E8(00000000)            	call pOut
 11209 0000A246 270A0909224236322E-     	 db 0x27, 0x0a, 0x09, 0x09,	'"B62.2" : "0   Default device type",'
 11209 0000A24F 3222203A2022302020-
 11209 0000A258 2044656661756C7420-
 11209 0000A261 646576696365207479-
 11209 0000A26A 7065222C           
 11210                                  SDEnd05B0:
 11211 0000A26E E302                    	jrcxz DL05B1
 11212 0000A270 EB50                    	jmp DLEnd05B1
 11213 0000A272 48FFC1                  DL05B1:	inc rcx
 11214 0000A275 E8(00000000)            	call cTop
 11215 0000A27A E8(00000000)            	call n
 11216 0000A27F 4809C9                  	or rPOk, rPOk
 11217 0000A282 7502                    	jnz SD05B2
 11218 0000A284 EB3C                    	jmp SDEnd05B2
 11219                                  SD05B2:
 11220 0000A286 E8(00000000)            	call pOut
 11221 0000A28B 1B0A0909224236322E-     	 db 0x1B, 0x0a, 0x09, 0x09,	'"B62.2" : "Device type ('
 11221 0000A294 3222203A2022446576-
 11221 0000A29D 696365207479706520-
 11221 0000A2A6 28                 
 11222 0000A2A7 4809C9                  	or rPOk, rPOk
 11223 0000A2AA 7502                    	jnz SD05B3
 11224 0000A2AC EB14                    	jmp SDEnd05B2
 11225                                  SD05B3:
 11226 0000A2AE E8(00000000)            	call pOutLI
 11227 0000A2B3 4809C9                  	or rPOk, rPOk
 11228 0000A2B6 7502                    	jnz SD05B4
 11229 0000A2B8 EB08                    	jmp SDEnd05B2
 11230                                  SD05B4:
 11231 0000A2BA E8(00000000)            	call pOut
 11232 0000A2BF 022922                  	 db 0x02, ')"'
 11233                                  SDEnd05B2:
 11234                                  DLEnd05B1:
 11235 0000A2C2 E8(00000000)            	call cDrop
 11236 0000A2C7 4809C9                  	or rPOk, rPOk
 11237 0000A2CA 7505                    	jnz SD05B5
 11238 0000A2CC E985000000              	jmp SDEnd05A6
 11239                                  SD05B5:
 11240 0000A2D1 E8(00000000)            	call cPush
 11241 0000A2D6 E81B60FFFF              	call LLLVAR
 11242 0000A2DB E8(00000000)            	call Dec2Bin
 11243 0000A2E0 4989C5                  	mov rFactCnt, rax
 11244 0000A2E3 4809C0                  	or rax, rax
 11245 0000A2E6 7502                    	jnz FacRep05B6
 11246 0000A2E8 EB0E                    	jmp FacEnd05B6
 11247                                  FacRep05B6:
 11248 0000A2EA E8585EFFFF              	call ans
 11249 0000A2EF 49FFCD                  	dec rFactCnt
 11250 0000A2F2 E304                    	jrcxz FacEnd05B6
 11251 0000A2F4 7402                    	jz FacEnd05B6
 11252 0000A2F6 EBF2                    	jmp FacRep05B6
 11253                                  FacEnd05B6:
 11254 0000A2F8 E8(00000000)            	call cDrop
 11255 0000A2FD 4809C9                  	or rPOk, rPOk
 11256 0000A300 7502                    	jnz SD05B7
 11257 0000A302 EB52                    	jmp SDEnd05A6
 11258                                  SD05B7:
 11259 0000A304 E8(00000000)            	call pOut
 11260 0000A309 0E0A0909224236322E-     	 db 0x0E, 0x0a, 0x09, 0x09,	'"B62.3" : "'
 11260 0000A312 3322203A2022       
 11261 0000A318 4809C9                  	or rPOk, rPOk
 11262 0000A31B 7502                    	jnz SD05B8
 11263 0000A31D EB37                    	jmp SDEnd05A6
 11264                                  SD05B8:
 11265 0000A31F E8(00000000)            	call pOutLI
 11266 0000A324 4809C9                  	or rPOk, rPOk
 11267 0000A327 7502                    	jnz SD05B9
 11268 0000A329 EB2B                    	jmp SDEnd05A6
 11269                                  SD05B9:
 11270 0000A32B E8(00000000)            	call pOut
 11271 0000A330 0A204D657373616765-     	 db 0x0A, ' Message",'
 11271 0000A339 222C               
 11272 0000A33B 4809C9                  	or rPOk, rPOk
 11273 0000A33E 7502                    	jnz SD05BA
 11274 0000A340 EB14                    	jmp SDEnd05A6
 11275                                  SD05BA:
 11276 0000A342 E8(00000000)            	call DropLastChar
 11277 0000A347 4809C9                  	or rPOk, rPOk
 11278 0000A34A 7502                    	jnz SD05BB
 11279 0000A34C EB08                    	jmp SDEnd05A6
 11280                                  SD05BB:
 11281 0000A34E E8(00000000)            	call pOut
 11282 0000A353 027D2C                  	 db 0x02, '},'
 11283                                  SDEnd05A6:
 11284 0000A356 E8(00000000)            	call cDrop
 11285 0000A35B C3                      	ret
 11286                                  
 11287                                  ;Bit62IDS = LLLVAR, ( "00"		  ,pOut(0x0a, 0x09, 0x09, '"00" : "All products allowed",')	/* IFSF */
 11288                                  ;		|		   pOut(0x0a, 0x09, 0x09,	'"B62.1" : ['),
 11289                                  ;		 (LLVAR* 	 					<<	dec rFactCnt>>
 11290                                  ;		 							<<	dec rFactCnt>> 		/* curious spec: set = 3bytes */
 11291                                  ;		 	 (pOut(0x0a, 0x09, 0x09, 0x09,'"'), IDSProduct, pOut('",'))),
 11292                                  ;		DropLastChar, pOut("],")		
 11293                                  ;		),
 11294                                  ;		("0",	pOut(0x0a, 0x09, 0x09,	'"B62.2" : "0   Default device type",')
 11295                                  ;		|n,	pOut(0x0a, 0x09, 0x09,	'"B62.2" : "Device type ('), pOutLI, pOut(')"')
 11296                                  ;		),
 11297                                  ;
 11298                                  ;		(LLLVAR*ans),	pOut(0x0a, 0x09, 0x09,	'"B62.3" : "'), pOutLI, pOut(' Message",'),
 11299                                  ;		
 11300                                  ;	DropLastChar,
 11301                                  ;	pOut('},');
 11302                                  ;	
 11303                                  
 11304                                  ;xxxxxxxxxxxxxxxxxxxxxxxxxxxxxxxxxxxxxxxxxxxxxxxxxxxxxxxxxxxxxxxxxxxxxxxxxxxxxx
 11305                                  Bit62:
 11306 0000A35C E8(00000000)            	call cPush
 11307 0000A361 E8905FFFFF              	call LLLVAR
 11308 0000A366 4809C9                  	or rPOk, rPOk
 11309 0000A369 7505                    	jnz SD05BC
 11310 0000A36B E915020000              	jmp SDEnd05BC
 11311                                  SD05BC:
 11312 0000A370 E8(00000000)            	call cPush
 11313 0000A375 E8(00000000)            	call pIn
 11314 0000A37A 023030                  	 db 0x0002, "00"
 11315 0000A37D 4809C9                  	or rPOk, rPOk
 11316 0000A380 7502                    	jnz SD05BD
 11317 0000A382 EB27                    	jmp SDEnd05BD
 11318                                  SD05BD:
 11319 0000A384 E8(00000000)            	call pOut
 11320 0000A389 210A09092230302220-     	 db 0x21, 0x0a, 0x09, 0x09,	'"00" : "All products allowed",'
 11320 0000A392 3A2022416C6C207072-
 11320 0000A39B 6F647563747320616C-
 11320 0000A3A4 6C6F776564222C     
 11321                                  SDEnd05BD:
 11322 0000A3AB E305                    	jrcxz DL05BE
 11323 0000A3AD E99B000000              	jmp DLEnd05BE
 11324 0000A3B2 48FFC1                  DL05BE:	inc rcx
 11325 0000A3B5 E8(00000000)            	call cTop
 11326 0000A3BA E8(00000000)            	call pOut
 11327 0000A3BF 0E0A0909224236322E-     	 db 0x0E, 0x0a, 0x09, 0x09,	'"B62.1" : ['
 11327 0000A3C8 3122203A205B       
 11328 0000A3CE 4809C9                  	or rPOk, rPOk
 11329 0000A3D1 7502                    	jnz SD05BF
 11330 0000A3D3 EB78                    	jmp SDEnd05BF
 11331                                  SD05BF:
 11332 0000A3D5 E8(00000000)            	call cPush
 11333 0000A3DA E8F35EFFFF              	call LLVAR
 11334 0000A3DF E8(00000000)            	call Dec2Bin
 11335 0000A3E4 4989C5                  	mov rFactCnt, rax
 11336 0000A3E7 4809C0                  	or rax, rax
 11337 0000A3EA 7502                    	jnz FacRep05C0
 11338 0000A3EC EB3F                    	jmp FacEnd05C0
 11339                                  FacRep05C0:
 11340 0000A3EE 49FFCD                  	dec rFactCnt
 11341 0000A3F1 49FFCD                  	dec rFactCnt
 11342 0000A3F4 E8(00000000)            	call cPush
 11343 0000A3F9 E8(00000000)            	call pOut
 11344 0000A3FE 050A09090922            	 db 0x05, 0x0a, 0x09, 0x09, 0x09,'"'
 11345 0000A404 4809C9                  	or rPOk, rPOk
 11346 0000A407 7502                    	jnz SD05C1
 11347 0000A409 EB14                    	jmp SDEnd05C1
 11348                                  SD05C1:
 11349 0000A40B E8FFF8FFFF              	call IDSProduct
 11350 0000A410 4809C9                  	or rPOk, rPOk
 11351 0000A413 7502                    	jnz SD05C2
 11352 0000A415 EB08                    	jmp SDEnd05C1
 11353                                  SD05C2:
 11354 0000A417 E8(00000000)            	call pOut
 11355 0000A41C 02222C                  	 db 0x02, '",'
 11356                                  SDEnd05C1:
 11357 0000A41F E8(00000000)            	call cDrop
 11358 0000A424 49FFCD                  	dec rFactCnt
 11359 0000A427 E304                    	jrcxz FacEnd05C0
 11360 0000A429 7402                    	jz FacEnd05C0
 11361 0000A42B EBC1                    	jmp FacRep05C0
 11362                                  FacEnd05C0:
 11363 0000A42D E8(00000000)            	call cDrop
 11364 0000A432 4809C9                  	or rPOk, rPOk
 11365 0000A435 7502                    	jnz SD05C3
 11366 0000A437 EB14                    	jmp SDEnd05BF
 11367                                  SD05C3:
 11368 0000A439 E8(00000000)            	call DropLastChar
 11369 0000A43E 4809C9                  	or rPOk, rPOk
 11370 0000A441 7502                    	jnz SD05C4
 11371 0000A443 EB08                    	jmp SDEnd05BF
 11372                                  SD05C4:
 11373 0000A445 E8(00000000)            	call pOut
 11374 0000A44A 025D2C                  	 db 0x02, "],"
 11375                                  SDEnd05BF:
 11376                                  DLEnd05BE:
 11377 0000A44D E8(00000000)            	call cDrop
 11378 0000A452 4809C9                  	or rPOk, rPOk
 11379 0000A455 7505                    	jnz SD05C5
 11380 0000A457 E929010000              	jmp SDEnd05BC
 11381                                  SD05C5:
 11382 0000A45C E8(00000000)            	call cPush
 11383 0000A461 E8(00000000)            	call n
 11384 0000A466 4809C9                  	or rPOk, rPOk
 11385 0000A469 7502                    	jnz SD05C6
 11386 0000A46B EB3D                    	jmp SDEnd05C6
 11387                                  SD05C6:
 11388 0000A46D E8(00000000)            	call pOut
 11389 0000A472 1B0A0909224236322E-     	 db 0x1B, 0x0a, 0x09, 0x09,	'"B62.2" : "Device type ('
 11389 0000A47B 3222203A2022446576-
 11389 0000A484 696365207479706520-
 11389 0000A48D 28                 
 11390 0000A48E 4809C9                  	or rPOk, rPOk
 11391 0000A491 7502                    	jnz SD05C7
 11392 0000A493 EB15                    	jmp SDEnd05C6
 11393                                  SD05C7:
 11394 0000A495 E8(00000000)            	call pOutLI
 11395 0000A49A 4809C9                  	or rPOk, rPOk
 11396 0000A49D 7502                    	jnz SD05C8
 11397 0000A49F EB09                    	jmp SDEnd05C6
 11398                                  SD05C8:
 11399 0000A4A1 E8(00000000)            	call pOut
 11400 0000A4A6 0329222C                	 db 0x03, ')",'
 11401                                  SDEnd05C6:
 11402 0000A4AA E8(00000000)            	call cDrop
 11403 0000A4AF 4809C9                  	or rPOk, rPOk
 11404 0000A4B2 7505                    	jnz SD05C9
 11405 0000A4B4 E9CC000000              	jmp SDEnd05BC
 11406                                  SD05C9:
 11407 0000A4B9 E8(00000000)            	call cPush
 11408 0000A4BE E8(00000000)            	call pIn
 11409 0000A4C3 03303030                	 db 0x0003, "000"
 11410 0000A4C7 4809C9                  	or rPOk, rPOk
 11411 0000A4CA 7502                    	jnz SD05CA
 11412 0000A4CC EB1F                    	jmp SDEnd05CA
 11413                                  SD05CA:
 11414 0000A4CE E8(00000000)            	call pOut
 11415 0000A4D3 190A0909224236322E-     	 db 0x19, 0x0a, 0x09, 0x09,	'"B62.3" : "Message ()"'
 11415 0000A4DC 3322203A20224D6573-
 11415 0000A4E5 7361676520282922   
 11416                                  SDEnd05CA:
 11417 0000A4ED E305                    	jrcxz DL05CB
 11418 0000A4EF E97D000000              	jmp DLEnd05CB
 11419 0000A4F4 48FFC1                  DL05CB:	inc rcx
 11420 0000A4F7 E8(00000000)            	call cTop
 11421 0000A4FC E8(00000000)            	call pOut
 11422 0000A501 170A0909224236322E-     	 db 0x17, 0x0a, 0x09, 0x09,	'"B62.3" : "Message ('
 11422 0000A50A 3322203A20224D6573-
 11422 0000A513 736167652028       
 11423 0000A519 4809C9                  	or rPOk, rPOk
 11424 0000A51C 7502                    	jnz SD05CC
 11425 0000A51E EB51                    	jmp SDEnd05CC
 11426                                  SD05CC:
 11427 0000A520 E8(00000000)            	call cPush
 11428 0000A525 E8CC5DFFFF              	call LLLVAR
 11429 0000A52A E8(00000000)            	call Dec2Bin
 11430 0000A52F 4989C5                  	mov rFactCnt, rax
 11431 0000A532 4809C0                  	or rax, rax
 11432 0000A535 7502                    	jnz FacRep05CD
 11433 0000A537 EB24                    	jmp FacEnd05CD
 11434                                  FacRep05CD:
 11435 0000A539 E8(00000000)            	call cPush
 11436 0000A53E E8045CFFFF              	call ans
 11437 0000A543 4809C9                  	or rPOk, rPOk
 11438 0000A546 7502                    	jnz SD05CE
 11439 0000A548 EB05                    	jmp SDEnd05CE
 11440                                  SD05CE:
 11441 0000A54A E8(00000000)            	call pOutLI
 11442                                  SDEnd05CE:
 11443 0000A54F E8(00000000)            	call cDrop
 11444 0000A554 49FFCD                  	dec rFactCnt
 11445 0000A557 E304                    	jrcxz FacEnd05CD
 11446 0000A559 7402                    	jz FacEnd05CD
 11447 0000A55B EBDC                    	jmp FacRep05CD
 11448                                  FacEnd05CD:
 11449 0000A55D 4809C9                  	or rPOk, rPOk
 11450 0000A560 7502                    	jnz SD05CF
 11451 0000A562 EB08                    	jmp SDEnd05CF
 11452                                  SD05CF:
 11453 0000A564 E8(00000000)            	call pOut
 11454 0000A569 022922                  	 db 0x02, ')"'
 11455                                  SDEnd05CF:
 11456 0000A56C E8(00000000)            	call cDrop
 11457                                  SDEnd05CC:
 11458                                  DLEnd05CB:
 11459 0000A571 E8(00000000)            	call cDrop
 11460 0000A576 4809C9                  	or rPOk, rPOk
 11461 0000A579 7502                    	jnz SD05D0
 11462 0000A57B EB08                    	jmp SDEnd05BC
 11463                                  SD05D0:
 11464 0000A57D E8(00000000)            	call pOut
 11465 0000A582 027D2C                  	 db 0x02, '},'
 11466                                  SDEnd05BC:
 11467 0000A585 E8(00000000)            	call cDrop
 11468 0000A58A C3                      	ret
 11469                                  
 11470                                  ;Bit62 = LLLVAR, 
 11471                                  ;		( "00",	 pOut(0x0a, 0x09, 0x09,	'"00" : "All products allowed",')
 11472                                  ;		|	 pOut(0x0a, 0x09, 0x09,	'"B62.1" : ['),
 11473                                  ;		 (LLVAR* 	<<	dec rFactCnt>>
 11474                                  ;		 		<<	dec rFactCnt>>
 11475                                  ;		        (pOut(0x0a, 0x09, 0x09, 0x09,'"'), IDSProduct, pOut('",'))
 11476                                  ;		 ), DropLastChar, pOut("],")	
 11477                                  ;		),
 11478                                  ;
 11479                                  ;		( n, 	 pOut(0x0a, 0x09, 0x09,	'"B62.2" : "Device type ('), pOutLI, pOut(')",') ),
 11480                                  ;		( "000", pOut(0x0a, 0x09, 0x09,	'"B62.3" : "Message ()"')
 11481                                  ;		|	 pOut(0x0a, 0x09, 0x09,	'"B62.3" : "Message ('),
 11482                                  ;		  (LLLVAR*(ans, pOutLI), pOut(')"'))),
 11483                                  ;		pOut('},');
 11484                                  ;
 11485                                  
 11486                                  ;xxxxxxxxxxxxxxxxxxxxxxxxxxxxxxxxxxxxxxxxxxxxxxxxxxxxxxxxxxxxxxxxxxxxxxxxxxxxxx
 11487                                  Bit63:
 11488 0000A58B E8(00000000)            	call cPush
 11489 0000A590 E8(00000000)            	call cPush
 11490 0000A595 41BD03000000            	mov rFactCnt, 3
 11491 0000A59B 4D09ED                  	or rFactCnt, rFactCnt
 11492 0000A59E 740E                    	jz FacEnd05D1
 11493                                  FacRep05D1:
 11494 0000A5A0 E8(00000000)            	call n
 11495 0000A5A5 49FFCD                  	dec rFactCnt
 11496 0000A5A8 E304                    	jrcxz FacEnd05D1
 11497 0000A5AA 7402                    	jz FacEnd05D1
 11498 0000A5AC EBF2                    	jmp FacRep05D1
 11499                                  FacEnd05D1:
 11500 0000A5AE E8(00000000)            	call cDrop
 11501 0000A5B3 4809C9                  	or rPOk, rPOk
 11502 0000A5B6 7505                    	jnz SD05D2
 11503 0000A5B8 E97F010000              	jmp SDEnd05D2
 11504                                  SD05D2:
 11505 0000A5BD E8(00000000)            	call pOut
 11506 0000A5C2 210A0909224236332D-     	 db 0x21, 0x0a, 0x09, 0x09, '"B63-1 Service level"      : "'
 11506 0000A5CB 312053657276696365-
 11506 0000A5D4 206C6576656C222020-
 11506 0000A5DD 202020203A2022     
 11507 0000A5E4 4809C9                  	or rPOk, rPOk
 11508 0000A5E7 7505                    	jnz SD05D3
 11509 0000A5E9 E94E010000              	jmp SDEnd05D2
 11510                                  SD05D3:
 11511 0000A5EE E8(00000000)            	call cPush
 11512 0000A5F3 E8(00000000)            	call pIn
 11513 0000A5F8 0153                    	 db 0x0001, "S"
 11514 0000A5FA 4809C9                  	or rPOk, rPOk
 11515 0000A5FD 7502                    	jnz SD05D4
 11516 0000A5FF EB14                    	jmp SDEnd05D4
 11517                                  SD05D4:
 11518 0000A601 E8(00000000)            	call pOut
 11519 0000A606 0E533D53656C662073-     	 db 0x0E, 'S=Self serve",'
 11519 0000A60F 65727665222C       
 11520                                  SDEnd05D4:
 11521 0000A615 E305                    	jrcxz DL05D5
 11522 0000A617 E9A8000000              	jmp DLEnd05D5
 11523 0000A61C 48FFC1                  DL05D5:	inc rcx
 11524 0000A61F E8(00000000)            	call cTop
 11525 0000A624 E8(00000000)            	call pIn
 11526 0000A629 0146                    	 db 0x0001, "F"
 11527 0000A62B 4809C9                  	or rPOk, rPOk
 11528 0000A62E 7502                    	jnz SD05D6
 11529 0000A630 EB14                    	jmp SDEnd05D6
 11530                                  SD05D6:
 11531 0000A632 E8(00000000)            	call pOut
 11532 0000A637 0E463D46756C6C2073-     	 db 0x0E, 'F=Full serve",'
 11532 0000A640 65727665222C       
 11533                                  SDEnd05D6:
 11534 0000A646 E302                    	jrcxz DL05D7
 11535 0000A648 EB7A                    	jmp DLEnd05D5
 11536 0000A64A 48FFC1                  DL05D7:	inc rcx
 11537 0000A64D E8(00000000)            	call cTop
 11538 0000A652 E8(00000000)            	call pIn
 11539 0000A657 0120                    	 db 0x0001, " "
 11540 0000A659 4809C9                  	or rPOk, rPOk
 11541 0000A65C 7502                    	jnz SD05D8
 11542 0000A65E EB0F                    	jmp SDEnd05D8
 11543                                  SD05D8:
 11544 0000A660 E8(00000000)            	call pOut
 11545 0000A665 094E6F20696E666F22-     	 db 0x09, 'No info",'
 11545 0000A66E 2C                 
 11546                                  SDEnd05D8:
 11547 0000A66F E302                    	jrcxz DL05D9
 11548 0000A671 EB51                    	jmp DLEnd05D5
 11549 0000A673 48FFC1                  DL05D9:	inc rcx
 11550 0000A676 E8(00000000)            	call cTop
 11551 0000A67B E8(00000000)            	call b
 11552 0000A680 4809C9                  	or rPOk, rPOk
 11553 0000A683 7502                    	jnz SD05DA
 11554 0000A685 EB3D                    	jmp SDEnd05DA
 11555                                  SD05DA:
 11556 0000A687 E8(00000000)            	call pOut
 11557 0000A68C 1C5761726E696E672C-     	 db 0x1C, 'Warning, unknown IFSF code: '
 11557 0000A695 20756E6B6E6F776E20-
 11557 0000A69E 4946534620636F6465-
 11557 0000A6A7 3A20               
 11558 0000A6A9 4809C9                  	or rPOk, rPOk
 11559 0000A6AC 7502                    	jnz SD05DB
 11560 0000A6AE EB14                    	jmp SDEnd05DA
 11561                                  SD05DB:
 11562 0000A6B0 E8(00000000)            	call pOutLI
 11563 0000A6B5 4809C9                  	or rPOk, rPOk
 11564 0000A6B8 7502                    	jnz SD05DC
 11565 0000A6BA EB08                    	jmp SDEnd05DA
 11566                                  SD05DC:
 11567 0000A6BC E8(00000000)            	call pOut
 11568 0000A6C1 02222C                  	 db 0x02, '",'
 11569                                  SDEnd05DA:
 11570                                  DLEnd05D5:
 11571 0000A6C4 E8(00000000)            	call cDrop
 11572 0000A6C9 4809C9                  	or rPOk, rPOk
 11573 0000A6CC 7502                    	jnz SD05DD
 11574 0000A6CE EB6C                    	jmp SDEnd05D2
 11575                                  SD05DD:
 11576 0000A6D0 E8(00000000)            	call cPush
 11577 0000A6D5 41BD02000000            	mov rFactCnt, 2
 11578 0000A6DB 4D09ED                  	or rFactCnt, rFactCnt
 11579 0000A6DE 740E                    	jz FacEnd05DE
 11580                                  FacRep05DE:
 11581 0000A6E0 E8(00000000)            	call n
 11582 0000A6E5 49FFCD                  	dec rFactCnt
 11583 0000A6E8 E304                    	jrcxz FacEnd05DE
 11584 0000A6EA 7402                    	jz FacEnd05DE
 11585 0000A6EC EBF2                    	jmp FacRep05DE
 11586                                  FacEnd05DE:
 11587 0000A6EE E8(00000000)            	call cDrop
 11588 0000A6F3 4809C9                  	or rPOk, rPOk
 11589 0000A6F6 7502                    	jnz SD05DF
 11590 0000A6F8 EB42                    	jmp SDEnd05D2
 11591                                  SD05DF:
 11592 0000A6FA E8(00000000)            	call pOut
 11593 0000A6FF 210A0909224236332D-     	 db 0x21, 0x0a, 0x09, 0x09, '"B63-2 Number of products" : "'
 11593 0000A708 32204E756D62657220-
 11593 0000A711 6F662070726F647563-
 11593 0000A71A 747322203A2022     
 11594 0000A721 4809C9                  	or rPOk, rPOk
 11595 0000A724 7502                    	jnz SD05E0
 11596 0000A726 EB14                    	jmp SDEnd05D2
 11597                                  SD05E0:
 11598 0000A728 E8(00000000)            	call pOutLI
 11599 0000A72D 4809C9                  	or rPOk, rPOk
 11600 0000A730 7502                    	jnz SD05E1
 11601 0000A732 EB08                    	jmp SDEnd05D2
 11602                                  SD05E1:
 11603 0000A734 E8(00000000)            	call pOut
 11604 0000A739 02222C                  	 db 0x02, '",'
 11605                                  SDEnd05D2:
 11606 0000A73C 4809C9                  	or rPOk, rPOk
 11607 0000A73F 7505                    	jnz AD05E2
 11608 0000A741 E9A1050000              	jmp ADEnd05E2
 11609                                  AD05E2:
 11610 0000A746 E8(00000000)            	call cAndProlog
 11611 0000A74B E8(00000000)            	call cPush
 11612 0000A750 41BD02000000            	mov rFactCnt, 2
 11613 0000A756 4D09ED                  	or rFactCnt, rFactCnt
 11614 0000A759 740E                    	jz FacEnd05E3
 11615                                  FacRep05E3:
 11616 0000A75B E8(00000000)            	call n
 11617 0000A760 49FFCD                  	dec rFactCnt
 11618 0000A763 E304                    	jrcxz FacEnd05E3
 11619 0000A765 7402                    	jz FacEnd05E3
 11620 0000A767 EBF2                    	jmp FacRep05E3
 11621                                  FacEnd05E3:
 11622 0000A769 E8(00000000)            	call cDrop
 11623 0000A76E E8(00000000)            	call Dec2Bin
 11624 0000A773 4989C5                  	mov rFactCnt, rax
 11625 0000A776 4809C0                  	or rax, rax
 11626 0000A779 7505                    	jnz FacRep05E4
 11627 0000A77B E947050000              	jmp FacEnd05E4
 11628                                  FacRep05E4:
 11629 0000A780 E8(00000000)            	call cPush
 11630 0000A785 E8(00000000)            	call pOut
 11631 0000A78A 210A0909224236332D-     	 db 0x21, 0x0a, 0x09, 0x09, '"B63-3 Product code"       : "'
 11631 0000A793 332050726F64756374-
 11631 0000A79C 20636F646522202020-
 11631 0000A7A5 202020203A2022     
 11632 0000A7AC 4809C9                  	or rPOk, rPOk
 11633 0000A7AF 7505                    	jnz SD05E5
 11634 0000A7B1 E900050000              	jmp SDEnd05E5
 11635                                  SD05E5:
 11636 0000A7B6 E854F5FFFF              	call IDSProduct
 11637 0000A7BB 4809C9                  	or rPOk, rPOk
 11638 0000A7BE 7505                    	jnz SD05E6
 11639 0000A7C0 E9F1040000              	jmp SDEnd05E5
 11640                                  SD05E6:
 11641 0000A7C5 E8(00000000)            	call pOut
 11642 0000A7CA 02222C                  	 db 0x02, '",'
 11643 0000A7CD 4809C9                  	or rPOk, rPOk
 11644 0000A7D0 7505                    	jnz SD05E7
 11645 0000A7D2 E9DF040000              	jmp SDEnd05E5
 11646                                  SD05E7:
 11647 0000A7D7 E8(00000000)            	call pOut
 11648 0000A7DC 210A0909224236332D-     	 db 0x21, 0x0a, 0x09, 0x09, '"B63-4 Unit of measure"    : "'
 11648 0000A7E5 3420556E6974206F66-
 11648 0000A7EE 206D65617375726522-
 11648 0000A7F7 202020203A2022     
 11649 0000A7FE 4809C9                  	or rPOk, rPOk
 11650 0000A801 7505                    	jnz SD05E8
 11651 0000A803 E9AE040000              	jmp SDEnd05E5
 11652                                  SD05E8:
 11653 0000A808 E8(00000000)            	call cPush
 11654 0000A80D E8(00000000)            	call pIn
 11655 0000A812 014C                    	 db 0x0001, "L"
 11656 0000A814 4809C9                  	or rPOk, rPOk
 11657 0000A817 7502                    	jnz SD05E9
 11658 0000A819 EB0D                    	jmp SDEnd05E9
 11659                                  SD05E9:
 11660 0000A81B E8(00000000)            	call pOut
 11661 0000A820 074C69746572222C        	 db 0x07, 'Liter",'
 11662                                  SDEnd05E9:
 11663 0000A828 E305                    	jrcxz DL05EA
 11664 0000A82A E9A7000000              	jmp DLEnd05EA
 11665 0000A82F 48FFC1                  DL05EA:	inc rcx
 11666 0000A832 E8(00000000)            	call cTop
 11667 0000A837 E8(00000000)            	call pIn
 11668 0000A83C 0155                    	 db 0x0001, "U"
 11669 0000A83E 4809C9                  	or rPOk, rPOk
 11670 0000A841 7502                    	jnz SD05EB
 11671 0000A843 EB0C                    	jmp SDEnd05EB
 11672                                  SD05EB:
 11673 0000A845 E8(00000000)            	call pOut
 11674 0000A84A 06556E6974222C          	 db 0x06, 'Unit",'
 11675                                  SDEnd05EB:
 11676 0000A851 E305                    	jrcxz DL05EC
 11677 0000A853 E97E000000              	jmp DLEnd05EA
 11678 0000A858 48FFC1                  DL05EC:	inc rcx
 11679 0000A85B E8(00000000)            	call cTop
 11680 0000A860 E8(00000000)            	call pIn
 11681 0000A865 0157                    	 db 0x0001, "W"
 11682 0000A867 4809C9                  	or rPOk, rPOk
 11683 0000A86A 7502                    	jnz SD05ED
 11684 0000A86C EB0A                    	jmp SDEnd05ED
 11685                                  SD05ED:
 11686 0000A86E E8(00000000)            	call pOut
 11687 0000A873 044B67222C              	 db 0x04, 'Kg",'
 11688                                  SDEnd05ED:
 11689 0000A878 E302                    	jrcxz DL05EE
 11690 0000A87A EB5A                    	jmp DLEnd05EA
 11691 0000A87C 48FFC1                  DL05EE:	inc rcx
 11692 0000A87F E8(00000000)            	call cTop
 11693 0000A884 E8(00000000)            	call pIn
 11694 0000A889 014F                    	 db 0x0001, "O"
 11695 0000A88B 4809C9                  	or rPOk, rPOk
 11696 0000A88E 7502                    	jnz SD05EF
 11697 0000A890 EB0C                    	jmp SDEnd05EF
 11698                                  SD05EF:
 11699 0000A892 E8(00000000)            	call pOut
 11700 0000A897 064E6F6E65222C          	 db 0x06, 'None",'
 11701                                  SDEnd05EF:
 11702 0000A89E E302                    	jrcxz DL05F0
 11703 0000A8A0 EB34                    	jmp DLEnd05EA
 11704 0000A8A2 48FFC1                  DL05F0:	inc rcx
 11705 0000A8A5 E8(00000000)            	call cTop
 11706 0000A8AA E8(00000000)            	call b
 11707 0000A8AF 4809C9                  	or rPOk, rPOk
 11708 0000A8B2 7502                    	jnz SD05F1
 11709 0000A8B4 EB20                    	jmp SDEnd05F1
 11710                                  SD05F1:
 11711 0000A8B6 E8(00000000)            	call pOut
 11712 0000A8BB 1A5761726E696E672C-     	 db 0x1A, 'Warning, Unknown measure",'
 11712 0000A8C4 20556E6B6E6F776E20-
 11712 0000A8CD 6D656173757265222C 
 11713                                  SDEnd05F1:
 11714                                  DLEnd05EA:
 11715 0000A8D6 E8(00000000)            	call cDrop
 11716 0000A8DB 4809C9                  	or rPOk, rPOk
 11717 0000A8DE 7505                    	jnz SD05F2
 11718 0000A8E0 E9D1030000              	jmp SDEnd05E5
 11719                                  SD05F2:
 11720 0000A8E5 E8(00000000)            	call cPush
 11721                                  RSRep05F4:
 11722 0000A8EA E8(00000000)            	call cPush
 11723 0000A8EF E8(00000000)            	call n
 11724 0000A8F4 E8(00000000)            	call cDrop
 11725 0000A8F9 E307                    	jrcxz RSEnd05F4
 11726 0000A8FB 4D09F6                  	or rInEndFlg, rInEndFlg
 11727 0000A8FE 7502                    	jnz RSEnd05F4
 11728 0000A900 EBE8                    	jmp RSRep05F4
 11729                                  RSEnd05F4:
 11730 0000A902 4831C9                  	xor rPOk, rPOk
 11731 0000A905 48FFC1                  	inc rPOk
 11732 0000A908 E8(00000000)            	call cDrop
 11733 0000A90D 4809C9                  	or rPOk, rPOk
 11734 0000A910 7505                    	jnz SD05F5
 11735 0000A912 E99F030000              	jmp SDEnd05E5
 11736                                  SD05F5:
 11737 0000A917 E8(00000000)            	call pOut
 11738 0000A91C 210A0909224236332D-     	 db 0x21, 0x0a, 0x09, 0x09, '"B63-5.1 Quantity"         : "'
 11738 0000A925 352E31205175616E74-
 11738 0000A92E 697479222020202020-
 11738 0000A937 202020203A2022     
 11739 0000A93E 4809C9                  	or rPOk, rPOk
 11740 0000A941 7505                    	jnz SD05F6
 11741 0000A943 E96E030000              	jmp SDEnd05E5
 11742                                  SD05F6:
 11743 0000A948 E8(00000000)            	call pOutLIdpTrim
 11744 0000A94D 4809C9                  	or rPOk, rPOk
 11745 0000A950 7505                    	jnz SD05F7
 11746 0000A952 E95F030000              	jmp SDEnd05E5
 11747                                  SD05F7:
 11748 0000A957 E8(00000000)            	call pOut
 11749 0000A95C 02222C                  	 db 0x02, '",'
 11750 0000A95F 4809C9                  	or rPOk, rPOk
 11751 0000A962 7505                    	jnz SD05F8
 11752 0000A964 E94D030000              	jmp SDEnd05E5
 11753                                  SD05F8:
 11754 0000A969 E8(00000000)            	call cPush
 11755 0000A96E E8(00000000)            	call pIn
 11756 0000A973 0150                    	 db 0x0001, "P"
 11757 0000A975 4809C9                  	or rPOk, rPOk
 11758 0000A978 7502                    	jnz SD05F9
 11759 0000A97A EB71                    	jmp SDEnd05F9
 11760                                  SD05F9:
 11761 0000A97C E8(00000000)            	call cPush
 11762                                  RSRep05FB:
 11763 0000A981 E8(00000000)            	call cPush
 11764 0000A986 E8(00000000)            	call n
 11765 0000A98B E8(00000000)            	call cDrop
 11766 0000A990 E307                    	jrcxz RSEnd05FB
 11767 0000A992 4D09F6                  	or rInEndFlg, rInEndFlg
 11768 0000A995 7502                    	jnz RSEnd05FB
 11769 0000A997 EBE8                    	jmp RSRep05FB
 11770                                  RSEnd05FB:
 11771 0000A999 4831C9                  	xor rPOk, rPOk
 11772 0000A99C 48FFC1                  	inc rPOk
 11773 0000A99F E8(00000000)            	call cDrop
 11774 0000A9A4 4809C9                  	or rPOk, rPOk
 11775 0000A9A7 7502                    	jnz SD05FC
 11776 0000A9A9 EB42                    	jmp SDEnd05F9
 11777                                  SD05FC:
 11778 0000A9AB E8(00000000)            	call pOut
 11779 0000A9B0 210A0909224236332D-     	 db 0x21, 0x0a, 0x09, 0x09, '"B63-5.2 Pump"             : "'
 11779 0000A9B9 352E322050756D7022-
 11779 0000A9C2 202020202020202020-
 11779 0000A9CB 202020203A2022     
 11780 0000A9D2 4809C9                  	or rPOk, rPOk
 11781 0000A9D5 7502                    	jnz SD05FD
 11782 0000A9D7 EB14                    	jmp SDEnd05F9
 11783                                  SD05FD:
 11784 0000A9D9 E8(00000000)            	call pOutLI
 11785 0000A9DE 4809C9                  	or rPOk, rPOk
 11786 0000A9E1 7502                    	jnz SD05FE
 11787 0000A9E3 EB08                    	jmp SDEnd05F9
 11788                                  SD05FE:
 11789 0000A9E5 E8(00000000)            	call pOut
 11790 0000A9EA 02222C                  	 db 0x02, '",'
 11791                                  SDEnd05F9:
 11792 0000A9ED E8(00000000)            	call cDrop
 11793 0000A9F2 4831C9                  	xor rPOk, rPOk
 11794 0000A9F5 48FFC1                  	inc rPOk
 11795 0000A9F8 4809C9                  	or rPOk, rPOk
 11796 0000A9FB 7505                    	jnz SD05FF
 11797 0000A9FD E9B4020000              	jmp SDEnd05E5
 11798                                  SD05FF:
 11799 0000AA02 E8(00000000)            	call cPush
 11800 0000AA07 E8(00000000)            	call pIn
 11801 0000AA0C 014E                    	 db 0x0001, "N"
 11802 0000AA0E 4809C9                  	or rPOk, rPOk
 11803 0000AA11 7502                    	jnz SD0600
 11804 0000AA13 EB71                    	jmp SDEnd0600
 11805                                  SD0600:
 11806 0000AA15 E8(00000000)            	call cPush
 11807                                  RSRep0602:
 11808 0000AA1A E8(00000000)            	call cPush
 11809 0000AA1F E8(00000000)            	call n
 11810 0000AA24 E8(00000000)            	call cDrop
 11811 0000AA29 E307                    	jrcxz RSEnd0602
 11812 0000AA2B 4D09F6                  	or rInEndFlg, rInEndFlg
 11813 0000AA2E 7502                    	jnz RSEnd0602
 11814 0000AA30 EBE8                    	jmp RSRep0602
 11815                                  RSEnd0602:
 11816 0000AA32 4831C9                  	xor rPOk, rPOk
 11817 0000AA35 48FFC1                  	inc rPOk
 11818 0000AA38 E8(00000000)            	call cDrop
 11819 0000AA3D 4809C9                  	or rPOk, rPOk
 11820 0000AA40 7502                    	jnz SD0603
 11821 0000AA42 EB42                    	jmp SDEnd0600
 11822                                  SD0603:
 11823 0000AA44 E8(00000000)            	call pOut
 11824 0000AA49 210A0909224236332D-     	 db 0x21, 0x0a, 0x09, 0x09, '"B63-5.3 Nozzle"           : "'
 11824 0000AA52 352E33204E6F7A7A6C-
 11824 0000AA5B 652220202020202020-
 11824 0000AA64 202020203A2022     
 11825 0000AA6B 4809C9                  	or rPOk, rPOk
 11826 0000AA6E 7502                    	jnz SD0604
 11827 0000AA70 EB14                    	jmp SDEnd0600
 11828                                  SD0604:
 11829 0000AA72 E8(00000000)            	call pOutLI
 11830 0000AA77 4809C9                  	or rPOk, rPOk
 11831 0000AA7A 7502                    	jnz SD0605
 11832 0000AA7C EB08                    	jmp SDEnd0600
 11833                                  SD0605:
 11834 0000AA7E E8(00000000)            	call pOut
 11835 0000AA83 02222C                  	 db 0x02, '",'
 11836                                  SDEnd0600:
 11837 0000AA86 E8(00000000)            	call cDrop
 11838 0000AA8B 4831C9                  	xor rPOk, rPOk
 11839 0000AA8E 48FFC1                  	inc rPOk
 11840 0000AA91 4809C9                  	or rPOk, rPOk
 11841 0000AA94 7505                    	jnz SD0606
 11842 0000AA96 E91B020000              	jmp SDEnd05E5
 11843                                  SD0606:
 11844 0000AA9B E8(00000000)            	call pIn
 11845 0000AAA0 015C                    	 db 0x0001, "\"
 11846 0000AAA2 4809C9                  	or rPOk, rPOk
 11847 0000AAA5 7505                    	jnz SD0607
 11848 0000AAA7 E90A020000              	jmp SDEnd05E5
 11849                                  SD0607:
 11850 0000AAAC E8(00000000)            	call cPush
 11851                                  RSRep0609:
 11852 0000AAB1 E8(00000000)            	call cPush
 11853 0000AAB6 E8(00000000)            	call n
 11854 0000AABB E8(00000000)            	call cDrop
 11855 0000AAC0 E307                    	jrcxz RSEnd0609
 11856 0000AAC2 4D09F6                  	or rInEndFlg, rInEndFlg
 11857 0000AAC5 7502                    	jnz RSEnd0609
 11858 0000AAC7 EBE8                    	jmp RSRep0609
 11859                                  RSEnd0609:
 11860 0000AAC9 4831C9                  	xor rPOk, rPOk
 11861 0000AACC 48FFC1                  	inc rPOk
 11862 0000AACF E8(00000000)            	call cDrop
 11863 0000AAD4 4809C9                  	or rPOk, rPOk
 11864 0000AAD7 7505                    	jnz SD060A
 11865 0000AAD9 E9D8010000              	jmp SDEnd05E5
 11866                                  SD060A:
 11867 0000AADE E8(00000000)            	call pOut
 11868 0000AAE3 210A0909224236332D-     	 db 0x21, 0x0a, 0x09, 0x09, '"B63-6 Unit Price"         : "'
 11868 0000AAEC 3620556E6974205072-
 11868 0000AAF5 696365222020202020-
 11868 0000AAFE 202020203A2022     
 11869 0000AB05 4809C9                  	or rPOk, rPOk
 11870 0000AB08 7505                    	jnz SD060B
 11871 0000AB0A E9A7010000              	jmp SDEnd05E5
 11872                                  SD060B:
 11873 0000AB0F E8(00000000)            	call pOutLIdpTrim
 11874 0000AB14 4809C9                  	or rPOk, rPOk
 11875 0000AB17 7505                    	jnz SD060C
 11876 0000AB19 E998010000              	jmp SDEnd05E5
 11877                                  SD060C:
 11878 0000AB1E E8(00000000)            	call pOut
 11879 0000AB23 02222C                  	 db 0x02, '",'
 11880 0000AB26 4809C9                  	or rPOk, rPOk
 11881 0000AB29 7505                    	jnz SD060D
 11882 0000AB2B E986010000              	jmp SDEnd05E5
 11883                                  SD060D:
 11884 0000AB30 E8(00000000)            	call pIn
 11885 0000AB35 015C                    	 db 0x0001, "\"
 11886 0000AB37 4809C9                  	or rPOk, rPOk
 11887 0000AB3A 7505                    	jnz SD060E
 11888 0000AB3C E975010000              	jmp SDEnd05E5
 11889                                  SD060E:
 11890 0000AB41 E8(00000000)            	call cPush
 11891                                  RSRep0610:
 11892 0000AB46 E8(00000000)            	call cPush
 11893 0000AB4B E8(00000000)            	call n
 11894 0000AB50 E8(00000000)            	call cDrop
 11895 0000AB55 E307                    	jrcxz RSEnd0610
 11896 0000AB57 4D09F6                  	or rInEndFlg, rInEndFlg
 11897 0000AB5A 7502                    	jnz RSEnd0610
 11898 0000AB5C EBE8                    	jmp RSRep0610
 11899                                  RSEnd0610:
 11900 0000AB5E 4831C9                  	xor rPOk, rPOk
 11901 0000AB61 48FFC1                  	inc rPOk
 11902 0000AB64 E8(00000000)            	call cDrop
 11903 0000AB69 4809C9                  	or rPOk, rPOk
 11904 0000AB6C 7505                    	jnz SD0611
 11905 0000AB6E E943010000              	jmp SDEnd05E5
 11906                                  SD0611:
 11907 0000AB73 E8(00000000)            	call pOut
 11908 0000AB78 210A0909224236332D-     	 db 0x21, 0x0a, 0x09, 0x09, '"B63-7 Amount"             : "'
 11908 0000AB81 3720416D6F756E7422-
 11908 0000AB8A 202020202020202020-
 11908 0000AB93 202020203A2022     
 11909 0000AB9A 4809C9                  	or rPOk, rPOk
 11910 0000AB9D 7505                    	jnz SD0612
 11911 0000AB9F E912010000              	jmp SDEnd05E5
 11912                                  SD0612:
 11913 0000ABA4 E8(00000000)            	call pOutLI
 11914 0000ABA9 4809C9                  	or rPOk, rPOk
 11915 0000ABAC 7505                    	jnz SD0613
 11916 0000ABAE E903010000              	jmp SDEnd05E5
 11917                                  SD0613:
 11918 0000ABB3 E8(00000000)            	call pOut
 11919 0000ABB8 02222C                  	 db 0x02, '",'
 11920 0000ABBB 4809C9                  	or rPOk, rPOk
 11921 0000ABBE 7505                    	jnz SD0614
 11922 0000ABC0 E9F1000000              	jmp SDEnd05E5
 11923                                  SD0614:
 11924 0000ABC5 E8(00000000)            	call pIn
 11925 0000ABCA 015C                    	 db 0x0001, "\"
 11926 0000ABCC 4809C9                  	or rPOk, rPOk
 11927 0000ABCF 7505                    	jnz SD0615
 11928 0000ABD1 E9E0000000              	jmp SDEnd05E5
 11929                                  SD0615:
 11930 0000ABD6 E82855FFFF              	call an
 11931 0000ABDB 4809C9                  	or rPOk, rPOk
 11932 0000ABDE 7505                    	jnz SD0616
 11933 0000ABE0 E9D1000000              	jmp SDEnd05E5
 11934                                  SD0616:
 11935 0000ABE5 E8(00000000)            	call pOut
 11936 0000ABEA 210A0909224236332D-     	 db 0x21, 0x0a, 0x09, 0x09, '"B63-8 Tax code"           : "'
 11936 0000ABF3 382054617820636F64-
 11936 0000ABFC 652220202020202020-
 11936 0000AC05 202020203A2022     
 11937 0000AC0C 4809C9                  	or rPOk, rPOk
 11938 0000AC0F 7505                    	jnz SD0617
 11939 0000AC11 E9A0000000              	jmp SDEnd05E5
 11940                                  SD0617:
 11941 0000AC16 E8(00000000)            	call pOutLI
 11942 0000AC1B 4809C9                  	or rPOk, rPOk
 11943 0000AC1E 7505                    	jnz SD0618
 11944 0000AC20 E991000000              	jmp SDEnd05E5
 11945                                  SD0618:
 11946 0000AC25 E8(00000000)            	call pOut
 11947 0000AC2A 02222C                  	 db 0x02, '",'
 11948 0000AC2D 4809C9                  	or rPOk, rPOk
 11949 0000AC30 7505                    	jnz SD0619
 11950 0000AC32 E97F000000              	jmp SDEnd05E5
 11951                                  SD0619:
 11952 0000AC37 E8(00000000)            	call cPush
 11953                                  RSRep061B:
 11954 0000AC3C E8(00000000)            	call cPush
 11955 0000AC41 E8(00000000)            	call n
 11956 0000AC46 E8(00000000)            	call cDrop
 11957 0000AC4B E307                    	jrcxz RSEnd061B
 11958 0000AC4D 4D09F6                  	or rInEndFlg, rInEndFlg
 11959 0000AC50 7502                    	jnz RSEnd061B
 11960 0000AC52 EBE8                    	jmp RSRep061B
 11961                                  RSEnd061B:
 11962 0000AC54 4831C9                  	xor rPOk, rPOk
 11963 0000AC57 48FFC1                  	inc rPOk
 11964 0000AC5A E8(00000000)            	call cDrop
 11965 0000AC5F 4809C9                  	or rPOk, rPOk
 11966 0000AC62 7502                    	jnz SD061C
 11967 0000AC64 EB50                    	jmp SDEnd05E5
 11968                                  SD061C:
 11969 0000AC66 E8(00000000)            	call pOut
 11970 0000AC6B 210A0909224236332D-     	 db 0x21, 0x0a, 0x09, 0x09, '"B63-9 Added product code" : "'
 11970 0000AC74 392041646465642070-
 11970 0000AC7D 726F6475637420636F-
 11970 0000AC86 646522203A2022     
 11971 0000AC8D 4809C9                  	or rPOk, rPOk
 11972 0000AC90 7502                    	jnz SD061D
 11973 0000AC92 EB22                    	jmp SDEnd05E5
 11974                                  SD061D:
 11975 0000AC94 E8(00000000)            	call pOutLI
 11976 0000AC99 4809C9                  	or rPOk, rPOk
 11977 0000AC9C 7502                    	jnz SD061E
 11978 0000AC9E EB16                    	jmp SDEnd05E5
 11979                                  SD061E:
 11980 0000ACA0 E8(00000000)            	call pOut
 11981 0000ACA5 02222C                  	 db 0x02, '",'
 11982 0000ACA8 4809C9                  	or rPOk, rPOk
 11983 0000ACAB 7502                    	jnz SD061F
 11984 0000ACAD EB07                    	jmp SDEnd05E5
 11985                                  SD061F:
 11986 0000ACAF E8(00000000)            	call pIn
 11987 0000ACB4 015C                    	 db 0x0001, "\"
 11988                                  SDEnd05E5:
 11989 0000ACB6 E8(00000000)            	call cDrop
 11990 0000ACBB 49FFCD                  	dec rFactCnt
 11991 0000ACBE E307                    	jrcxz FacEnd05E4
 11992 0000ACC0 7405                    	jz FacEnd05E4
 11993 0000ACC2 E9B9FAFFFF              	jmp FacRep05E4
 11994                                  FacEnd05E4:
 11995 0000ACC7 4809C9                  	or rPOk, rPOk
 11996 0000ACCA 7502                    	jnz SD0620
 11997 0000ACCC EB14                    	jmp SDEnd0620
 11998                                  SD0620:
 11999 0000ACCE E8(00000000)            	call DropLastChar
 12000 0000ACD3 4809C9                  	or rPOk, rPOk
 12001 0000ACD6 7502                    	jnz SD0621
 12002 0000ACD8 EB08                    	jmp SDEnd0620
 12003                                  SD0621:
 12004 0000ACDA E8(00000000)            	call pOut
 12005 0000ACDF 027D2C                  	 db 0x02, '},'
 12006                                  SDEnd0620:
 12007 0000ACE2 E8(00000000)            	call cAndEpilog
 12008                                  ADEnd05E2:
 12009 0000ACE7 E8(00000000)            	call cDrop
 12010 0000ACEC C3                      	ret
 12011                                  
 12012                                  ;Bit63 =  (3*n), pOut(0x0a, 0x09, 0x09, '"B63-1 Service level"      : "'),
 12013                                  ;		("S", pOut('S=Self serve",')|
 12014                                  ;		 "F", pOut('F=Full serve",')|
 12015                                  ;		 " ", pOut('No info",')|
 12016                                  ;		 b,   pOut('Warning, unknown IFSF code: '), pOutLI, pOut('",') ),
 12017                                  ;	 	(2*n),			pOut(0x0a, 0x09, 0x09, '"B63-2 Number of products" : "'), pOutLI, pOut('",')
 12018                                  ;	      + (2*n)* ( 		pOut(0x0a, 0x09, 0x09, '"B63-3 Product code"       : "'), IDSProduct, pOut('",'),
 12019                                  ;					pOut(0x0a, 0x09, 0x09, '"B63-4 Unit of measure"    : "'),
 12020                                  ;			 			("L", pOut('Liter",')|
 12021                                  ;			 	 		 "U", pOut('Unit",')|
 12022                                  ;			 	 		 "W", pOut('Kg",')|
 12023                                  ;			 	 		 "O", pOut('None",')|
 12024                                  ;			 	 		  b , pOut('Warning, Unknown measure",')),
 12025                                  ;			 	{n}, 	pOut(0x0a, 0x09, 0x09, '"B63-5.1 Quantity"         : "'), pOutLIdpTrim,	pOut('",'),
 12026                                  ;			 ["P",	{n}, 	pOut(0x0a, 0x09, 0x09, '"B63-5.2 Pump"             : "'), pOutLI,	pOut('",')],
 12027                                  ;			 ["N",	{n}, 	pOut(0x0a, 0x09, 0x09, '"B63-5.3 Nozzle"           : "'), pOutLI,	pOut('",')],
 12028                                  ;			 "\",	{n}, 	pOut(0x0a, 0x09, 0x09, '"B63-6 Unit Price"         : "'), pOutLIdpTrim,	pOut('",'),
 12029                                  ;			 "\",	{n}, 	pOut(0x0a, 0x09, 0x09, '"B63-7 Amount"             : "'), pOutLI,	pOut('",'),
 12030                                  ;			 "\",	 an, 	pOut(0x0a, 0x09, 0x09, '"B63-8 Tax code"           : "'), pOutLI,	pOut('",'),
 12031                                  ;				{n}, 	pOut(0x0a, 0x09, 0x09, '"B63-9 Added product code" : "'), pOutLI,	pOut('",'),
 12032                                  ;			 "\"
 12033                                  ;		        ),
 12034                                  ;	DropLastChar,
 12035                                  ;	pOut('},');
 12036                                  ;
 12037                                  ;
